
/Users/misfit/Desktop/dev/OddSIDKick-pico2/build/OddSIDKick-pico2.elf:     file format elf32-littlearm

Sections:
Idx Name          Size      VMA       LMA       File off  Algn
  0 .text         0000b31c  10000000  10000000  00001000  2**3
                  CONTENTS, ALLOC, LOAD, READONLY, CODE
  1 .rodata       00023000  1000c000  1000c000  0000d000  2**12
                  CONTENTS, ALLOC, LOAD, READONLY, DATA
  2 .ARM.exidx    00000008  1002f000  1002f000  00030000  2**2
                  CONTENTS, ALLOC, LOAD, READONLY, DATA
  3 .binary_info  0000001c  1002f008  1002f008  00030008  2**2
                  CONTENTS, ALLOC, LOAD, READONLY, DATA
  4 .ram_vector_table 00000110  20000000  20000000  00033000  2**2
                  ALLOC
  5 .uninitialized_data 00000000  20000110  20000110  00032928  2**0
                  CONTENTS
  6 .data         000018f0  20000110  1002f024  00030110  2**3
                  CONTENTS, ALLOC, LOAD, READONLY, CODE
  7 .tdata        00000000  20001a00  20001a00  00032928  2**0
                  CONTENTS, ALLOC, LOAD, DATA, THREAD_LOCAL
  8 .tbss         00000000  20001a00  20001a00  00000000  2**0
                  ALLOC, THREAD_LOCAL
  9 .bss          0001d9d4  20001a00  10030914  00032a00  2**3
                  ALLOC
 10 .heap         00000800  2001f3d4  10030914  000333d4  2**2
                  ALLOC, READONLY
 11 .scratch_x    00000000  20080000  20080000  00032928  2**0
                  CONTENTS
 12 .scratch_y    00000000  20081000  20081000  00032928  2**0
                  CONTENTS
 13 .stack1_dummy 00000800  20080000  20080000  00033000  2**2
                  ALLOC
 14 .stack_dummy  00000800  20081000  20081000  00033000  2**5
                  ALLOC, READONLY
 15 .flash_end    00000014  10030914  10030914  00032914  2**2
                  CONTENTS, ALLOC, LOAD, READONLY, DATA
 16 .ARM.attributes 00000034  00000000  00000000  00032928  2**0
                  CONTENTS, READONLY
 17 .comment      00000045  00000000  00000000  0003295c  2**0
                  CONTENTS, READONLY
 18 .debug_info   0004d82d  00000000  00000000  000329a1  2**0
                  CONTENTS, READONLY, DEBUGGING, OCTETS
 19 .debug_abbrev 0000ad35  00000000  00000000  000801ce  2**0
                  CONTENTS, READONLY, DEBUGGING, OCTETS
 20 .debug_loclists 0002bc3a  00000000  00000000  0008af03  2**0
                  CONTENTS, READONLY, DEBUGGING, OCTETS
 21 .debug_aranges 00001830  00000000  00000000  000b6b40  2**3
                  CONTENTS, READONLY, DEBUGGING, OCTETS
 22 .debug_rnglists 00006fd9  00000000  00000000  000b8370  2**0
                  CONTENTS, READONLY, DEBUGGING, OCTETS
 23 .debug_line   0003170b  00000000  00000000  000bf349  2**0
                  CONTENTS, READONLY, DEBUGGING, OCTETS
 24 .debug_str    0000d138  00000000  00000000  000f0a54  2**0
                  CONTENTS, READONLY, DEBUGGING, OCTETS
 25 .debug_frame  00004758  00000000  00000000  000fdb8c  2**2
                  CONTENTS, READONLY, DEBUGGING, OCTETS
 26 .debug_line_str 000002f5  00000000  00000000  001022e4  2**0
                  CONTENTS, READONLY, DEBUGGING, OCTETS

/Users/misfit/Desktop/dev/OddSIDKick-pico2/build/OddSIDKick-pico2.elf:     file format elf32-littlearm


Disassembly of section .text:

10000000 <__VECTOR_TABLE>:
10000000:	20082000 	.word	0x20082000
10000004:	1000015d 	.word	0x1000015d
10000008:	1000011b 	.word	0x1000011b
1000000c:	1000011d 	.word	0x1000011d
10000010:	10000111 	.word	0x10000111
10000014:	10000111 	.word	0x10000111
10000018:	10000111 	.word	0x10000111
1000001c:	10000111 	.word	0x10000111
10000020:	10000119 	.word	0x10000119
10000024:	10000119 	.word	0x10000119
10000028:	10000119 	.word	0x10000119
1000002c:	1000011f 	.word	0x1000011f
10000030:	10000111 	.word	0x10000111
10000034:	10000119 	.word	0x10000119
10000038:	10000121 	.word	0x10000121
1000003c:	10000123 	.word	0x10000123
10000040:	10000111 	.word	0x10000111
10000044:	10000111 	.word	0x10000111
10000048:	10000111 	.word	0x10000111
1000004c:	10000111 	.word	0x10000111
10000050:	10000111 	.word	0x10000111
10000054:	10000111 	.word	0x10000111
10000058:	10000111 	.word	0x10000111
1000005c:	10000111 	.word	0x10000111
10000060:	10000111 	.word	0x10000111
10000064:	10000111 	.word	0x10000111
10000068:	10000111 	.word	0x10000111
1000006c:	10000111 	.word	0x10000111
10000070:	10000111 	.word	0x10000111
10000074:	10000111 	.word	0x10000111
10000078:	10000111 	.word	0x10000111
1000007c:	10000111 	.word	0x10000111
10000080:	10000111 	.word	0x10000111
10000084:	10000111 	.word	0x10000111
10000088:	10000111 	.word	0x10000111
1000008c:	10000111 	.word	0x10000111
10000090:	10000111 	.word	0x10000111
10000094:	10000111 	.word	0x10000111
10000098:	10000111 	.word	0x10000111
1000009c:	10000111 	.word	0x10000111
100000a0:	10000111 	.word	0x10000111
100000a4:	10000111 	.word	0x10000111
100000a8:	10000111 	.word	0x10000111
100000ac:	10000111 	.word	0x10000111
100000b0:	10000111 	.word	0x10000111
100000b4:	10000111 	.word	0x10000111
100000b8:	10000111 	.word	0x10000111
100000bc:	10000111 	.word	0x10000111
100000c0:	10000111 	.word	0x10000111
100000c4:	10000111 	.word	0x10000111
100000c8:	10000111 	.word	0x10000111
100000cc:	10000111 	.word	0x10000111
100000d0:	10000111 	.word	0x10000111
100000d4:	10000111 	.word	0x10000111
100000d8:	10000111 	.word	0x10000111
100000dc:	10000111 	.word	0x10000111
100000e0:	10000111 	.word	0x10000111
100000e4:	10000111 	.word	0x10000111
100000e8:	10000111 	.word	0x10000111
100000ec:	10000111 	.word	0x10000111
100000f0:	10000111 	.word	0x10000111
100000f4:	10000111 	.word	0x10000111
100000f8:	10000111 	.word	0x10000111
100000fc:	10000111 	.word	0x10000111
10000100:	10000111 	.word	0x10000111
10000104:	10000111 	.word	0x10000111
10000108:	10000111 	.word	0x10000111
1000010c:	10000111 	.word	0x10000111

10000110 <__unhandled_user_irq>:
10000110:	f3ef 8005 	mrs	r0, IPSR
10000114:	3810      	subs	r0, #16

10000116 <unhandled_user_irq_num_in_r0>:
10000116:	be00      	bkpt	0x0000

10000118 <isr_invalid>:
10000118:	be00      	bkpt	0x0000

1000011a <isr_nmi>:
1000011a:	be00      	bkpt	0x0000

1000011c <isr_hardfault>:
1000011c:	be00      	bkpt	0x0000

1000011e <isr_svcall>:
1000011e:	be00      	bkpt	0x0000

10000120 <isr_pendsv>:
10000120:	be00      	bkpt	0x0000

10000122 <isr_systick>:
10000122:	be00      	bkpt	0x0000

10000124 <__default_isrs_end>:
10000124:	7188ebf2 	.word	0x7188ebf2
10000128:	1002f008 	.word	0x1002f008
1000012c:	1002f024 	.word	0x1002f024
10000130:	100001a0 	.word	0x100001a0
10000134:	e71aa390 	.word	0xe71aa390

10000138 <__binary_info_header_end>:
10000138:	ffffded3 	.word	0xffffded3
1000013c:	10210142 	.word	0x10210142
10000140:	000001ff 	.word	0x000001ff
10000144:	000307dc 	.word	0x000307dc
10000148:	ab123579 	.word	0xab123579

1000014c <_entry_point>:
1000014c:	f04f 0000 	mov.w	r0, #0

10000150 <_enter_vtable_in_r0>:
10000150:	491e      	ldr	r1, [pc, #120]	@ (100001cc <data_cpy_table+0x2c>)
10000152:	6008      	str	r0, [r1, #0]
10000154:	c806      	ldmia	r0!, {r1, r2}
10000156:	f381 8808 	msr	MSP, r1
1000015a:	4710      	bx	r2

1000015c <_reset_handler>:
1000015c:	f04f 4050 	mov.w	r0, #3489660928	@ 0xd0000000
10000160:	6800      	ldr	r0, [r0, #0]
10000162:	b110      	cbz	r0, 1000016a <hold_non_core0_in_bootrom+0x6>

10000164 <hold_non_core0_in_bootrom>:
10000164:	f04f 0000 	mov.w	r0, #0
10000168:	e7f2      	b.n	10000150 <_enter_vtable_in_r0>
1000016a:	a40d      	add	r4, pc, #52	@ (adr r4, 100001a0 <data_cpy_table>)
1000016c:	cc0e      	ldmia	r4!, {r1, r2, r3}
1000016e:	2900      	cmp	r1, #0
10000170:	d002      	beq.n	10000178 <hold_non_core0_in_bootrom+0x14>
10000172:	f000 f812 	bl	1000019a <data_cpy>
10000176:	e7f9      	b.n	1000016c <hold_non_core0_in_bootrom+0x8>
10000178:	4915      	ldr	r1, [pc, #84]	@ (100001d0 <data_cpy_table+0x30>)
1000017a:	4a16      	ldr	r2, [pc, #88]	@ (100001d4 <data_cpy_table+0x34>)
1000017c:	2000      	movs	r0, #0
1000017e:	e000      	b.n	10000182 <bss_fill_test>

10000180 <bss_fill_loop>:
10000180:	c101      	stmia	r1!, {r0}

10000182 <bss_fill_test>:
10000182:	4291      	cmp	r1, r2
10000184:	d1fc      	bne.n	10000180 <bss_fill_loop>

10000186 <platform_entry>:
10000186:	4914      	ldr	r1, [pc, #80]	@ (100001d8 <data_cpy_table+0x38>)
10000188:	4788      	blx	r1
1000018a:	4914      	ldr	r1, [pc, #80]	@ (100001dc <data_cpy_table+0x3c>)
1000018c:	4788      	blx	r1
1000018e:	4914      	ldr	r1, [pc, #80]	@ (100001e0 <data_cpy_table+0x40>)
10000190:	4788      	blx	r1
10000192:	be00      	bkpt	0x0000
10000194:	e7fd      	b.n	10000192 <platform_entry+0xc>

10000196 <data_cpy_loop>:
10000196:	c901      	ldmia	r1!, {r0}
10000198:	c201      	stmia	r2!, {r0}

1000019a <data_cpy>:
1000019a:	429a      	cmp	r2, r3
1000019c:	d3fb      	bcc.n	10000196 <data_cpy_loop>
1000019e:	4770      	bx	lr

100001a0 <data_cpy_table>:
100001a0:	1002f024 	.word	0x1002f024
100001a4:	20000110 	.word	0x20000110
100001a8:	20001a00 	.word	0x20001a00
100001ac:	10030914 	.word	0x10030914
100001b0:	20080000 	.word	0x20080000
100001b4:	20080000 	.word	0x20080000
100001b8:	10030914 	.word	0x10030914
100001bc:	20081000 	.word	0x20081000
100001c0:	20081000 	.word	0x20081000
100001c4:	00000000 	.word	0x00000000
100001c8:	4770      	bx	lr
100001ca:	0000      	.short	0x0000
100001cc:	e000ed08 	.word	0xe000ed08
100001d0:	20001a00 	.word	0x20001a00
100001d4:	2001f3d4 	.word	0x2001f3d4
100001d8:	10009841 	.word	0x10009841
100001dc:	100013b1 	.word	0x100013b1
100001e0:	10009839 	.word	0x10009839

100001e4 <_init>:
100001e4:	b5f8      	push	{r3, r4, r5, r6, r7, lr}
100001e6:	bf00      	nop

100001e8 <register_tm_clones>:
100001e8:	4b06      	ldr	r3, [pc, #24]	@ (10000204 <register_tm_clones+0x1c>)
100001ea:	4907      	ldr	r1, [pc, #28]	@ (10000208 <register_tm_clones+0x20>)
100001ec:	1ac9      	subs	r1, r1, r3
100001ee:	1089      	asrs	r1, r1, #2
100001f0:	bf48      	it	mi
100001f2:	3101      	addmi	r1, #1
100001f4:	1049      	asrs	r1, r1, #1
100001f6:	d003      	beq.n	10000200 <register_tm_clones+0x18>
100001f8:	4b04      	ldr	r3, [pc, #16]	@ (1000020c <register_tm_clones+0x24>)
100001fa:	b10b      	cbz	r3, 10000200 <register_tm_clones+0x18>
100001fc:	4801      	ldr	r0, [pc, #4]	@ (10000204 <register_tm_clones+0x1c>)
100001fe:	4718      	bx	r3
10000200:	4770      	bx	lr
10000202:	bf00      	nop
10000204:	20001a00 	.word	0x20001a00
10000208:	20001a00 	.word	0x20001a00
1000020c:	00000000 	.word	0x00000000

10000210 <frame_dummy>:
10000210:	b508      	push	{r3, lr}
10000212:	4b05      	ldr	r3, [pc, #20]	@ (10000228 <frame_dummy+0x18>)
10000214:	b11b      	cbz	r3, 1000021e <frame_dummy+0xe>
10000216:	4905      	ldr	r1, [pc, #20]	@ (1000022c <frame_dummy+0x1c>)
10000218:	4805      	ldr	r0, [pc, #20]	@ (10000230 <frame_dummy+0x20>)
1000021a:	f3af 8000 	nop.w
1000021e:	e8bd 4008 	ldmia.w	sp!, {r3, lr}
10000222:	f7ff bfe1 	b.w	100001e8 <register_tm_clones>
10000226:	bf00      	nop
10000228:	00000000 	.word	0x00000000
1000022c:	20008aec 	.word	0x20008aec
10000230:	1000b31c 	.word	0x1000b31c

10000234 <initGPIOs>:
10000234:	b510      	push	{r4, lr}
10000236:	2400      	movs	r4, #0
10000238:	4620      	mov	r0, r4
1000023a:	3401      	adds	r4, #1
1000023c:	f005 fa86 	bl	1000574c <gpio_init>
10000240:	2c1a      	cmp	r4, #26
10000242:	d1f9      	bne.n	10000238 <initGPIOs+0x4>
10000244:	201c      	movs	r0, #28
10000246:	f005 fa81 	bl	1000574c <gpio_init>
1000024a:	2200      	movs	r2, #0
1000024c:	2101      	movs	r1, #1
1000024e:	200f      	movs	r0, #15
10000250:	f005 fa4a 	bl	100056e8 <gpio_set_pulls>
10000254:	2200      	movs	r2, #0
10000256:	2101      	movs	r1, #1
10000258:	2016      	movs	r0, #22
1000025a:	f005 fa45 	bl	100056e8 <gpio_set_pulls>
1000025e:	4b02      	ldr	r3, [pc, #8]	@ (10000268 <initGPIOs+0x34>)
10000260:	ee00 3014 			gpioc_lo_oe_put r3
10000264:	bd10      	pop	{r4, pc}
10000266:	bf00      	nop
10000268:	02803d40 	.word	0x02803d40

1000026c <initPotGPIOs>:
1000026c:	b500      	push	{lr}
1000026e:	4b2a      	ldr	r3, [pc, #168]	@ (10000318 <initPotGPIOs+0xac>)
10000270:	b083      	sub	sp, #12
10000272:	f893 2039 	ldrb.w	r2, [r3, #57]	@ 0x39
10000276:	b38a      	cbz	r2, 100002dc <initPotGPIOs+0x70>
10000278:	f009 fd3a 	bl	10009cf0 <adc_init>
1000027c:	211f      	movs	r1, #31
1000027e:	200b      	movs	r0, #11
10000280:	f005 fa14 	bl	100056ac <gpio_set_function>
10000284:	2200      	movs	r2, #0
10000286:	200b      	movs	r0, #11
10000288:	4611      	mov	r1, r2
1000028a:	f005 fa2d 	bl	100056e8 <gpio_set_pulls>
1000028e:	2100      	movs	r1, #0
10000290:	200b      	movs	r0, #11
10000292:	f005 fa4b 	bl	1000572c <gpio_set_input_enabled>
10000296:	2108      	movs	r1, #8
10000298:	4a20      	ldr	r2, [pc, #128]	@ (1000031c <initPotGPIOs+0xb0>)
1000029a:	4b21      	ldr	r3, [pc, #132]	@ (10000320 <initPotGPIOs+0xb4>)
1000029c:	f8d2 c000 	ldr.w	ip, [r2]
100002a0:	4820      	ldr	r0, [pc, #128]	@ (10000324 <initPotGPIOs+0xb8>)
100002a2:	ea8c 0303 	eor.w	r3, ip, r3
100002a6:	f502 5200 	add.w	r2, r2, #8192	@ 0x2000
100002aa:	f403 4370 	and.w	r3, r3, #61440	@ 0xf000
100002ae:	6003      	str	r3, [r0, #0]
100002b0:	6011      	str	r1, [r2, #0]
100002b2:	200a      	movs	r0, #10
100002b4:	f005 fa4a 	bl	1000574c <gpio_init>
100002b8:	f04f 4350 	mov.w	r3, #3489660928	@ 0xd0000000
100002bc:	2200      	movs	r2, #0
100002be:	f44f 6140 	mov.w	r1, #3072	@ 0xc00
100002c2:	200a      	movs	r0, #10
100002c4:	6219      	str	r1, [r3, #32]
100002c6:	4611      	mov	r1, r2
100002c8:	f005 fa0e 	bl	100056e8 <gpio_set_pulls>
100002cc:	2200      	movs	r2, #0
100002ce:	200b      	movs	r0, #11
100002d0:	4611      	mov	r1, r2
100002d2:	b003      	add	sp, #12
100002d4:	f85d eb04 	ldr.w	lr, [sp], #4
100002d8:	f005 ba06 	b.w	100056e8 <gpio_set_pulls>
100002dc:	4b0f      	ldr	r3, [pc, #60]	@ (1000031c <initPotGPIOs+0xb0>)
100002de:	200a      	movs	r0, #10
100002e0:	6819      	ldr	r1, [r3, #0]
100002e2:	601a      	str	r2, [r3, #0]
100002e4:	9201      	str	r2, [sp, #4]
100002e6:	f005 fa31 	bl	1000574c <gpio_init>
100002ea:	200b      	movs	r0, #11
100002ec:	f005 fa2e 	bl	1000574c <gpio_init>
100002f0:	f04f 4350 	mov.w	r3, #3489660928	@ 0xd0000000
100002f4:	f44f 6140 	mov.w	r1, #3072	@ 0xc00
100002f8:	9a01      	ldr	r2, [sp, #4]
100002fa:	200a      	movs	r0, #10
100002fc:	6219      	str	r1, [r3, #32]
100002fe:	4611      	mov	r1, r2
10000300:	9201      	str	r2, [sp, #4]
10000302:	f005 f9f1 	bl	100056e8 <gpio_set_pulls>
10000306:	9a01      	ldr	r2, [sp, #4]
10000308:	200b      	movs	r0, #11
1000030a:	4611      	mov	r1, r2
1000030c:	b003      	add	sp, #12
1000030e:	f85d eb04 	ldr.w	lr, [sp], #4
10000312:	f005 b9e9 	b.w	100056e8 <gpio_set_pulls>
10000316:	bf00      	nop
10000318:	20008a08 	.word	0x20008a08
1000031c:	400a0000 	.word	0x400a0000
10000320:	ffff1000 	.word	0xffff1000
10000324:	400a1000 	.word	0x400a1000

10000328 <initI2S>:
10000328:	b530      	push	{r4, r5, lr}
1000032a:	f44f 7280 	mov.w	r2, #256	@ 0x100
1000032e:	b083      	sub	sp, #12
10000330:	2103      	movs	r1, #3
10000332:	4811      	ldr	r0, [pc, #68]	@ (10000378 <initI2S+0x50>)
10000334:	f00a f916 	bl	1000a564 <audio_new_producer_pool>
10000338:	4605      	mov	r5, r0
1000033a:	4b10      	ldr	r3, [pc, #64]	@ (1000037c <initI2S+0x54>)
1000033c:	a901      	add	r1, sp, #4
1000033e:	681b      	ldr	r3, [r3, #0]
10000340:	480f      	ldr	r0, [pc, #60]	@ (10000380 <initI2S+0x58>)
10000342:	9301      	str	r3, [sp, #4]
10000344:	f009 fe7e 	bl	1000a044 <audio_i2s_setup>
10000348:	4628      	mov	r0, r5
1000034a:	f009 ff0f 	bl	1000a16c <audio_i2s_connect>
1000034e:	2101      	movs	r1, #1
10000350:	4628      	mov	r0, r5
10000352:	f00a f923 	bl	1000a59c <take_audio_buffer>
10000356:	4604      	mov	r4, r0
10000358:	68c2      	ldr	r2, [r0, #12]
1000035a:	6803      	ldr	r3, [r0, #0]
1000035c:	0092      	lsls	r2, r2, #2
1000035e:	2100      	movs	r1, #0
10000360:	6858      	ldr	r0, [r3, #4]
10000362:	f00a fd29 	bl	1000adb8 <memset>
10000366:	68e3      	ldr	r3, [r4, #12]
10000368:	4628      	mov	r0, r5
1000036a:	4621      	mov	r1, r4
1000036c:	60a3      	str	r3, [r4, #8]
1000036e:	f00a f90b 	bl	1000a588 <give_audio_buffer>
10000372:	4628      	mov	r0, r5
10000374:	b003      	add	sp, #12
10000376:	bd30      	pop	{r4, r5, pc}
10000378:	200010f8 	.word	0x200010f8
1000037c:	1000ea9c 	.word	0x1000ea9c
10000380:	200010f0 	.word	0x200010f0

10000384 <resetEverything>:
10000384:	2300      	movs	r3, #0
10000386:	4902      	ldr	r1, [pc, #8]	@ (10000390 <resetEverything+0xc>)
10000388:	4a02      	ldr	r2, [pc, #8]	@ (10000394 <resetEverything+0x10>)
1000038a:	700b      	strb	r3, [r1, #0]
1000038c:	7013      	strb	r3, [r2, #0]
1000038e:	4770      	bx	lr
10000390:	2001f3ce 	.word	0x2001f3ce
10000394:	2001f3cd 	.word	0x2001f3cd

10000398 <updateEmulationParameters>:
10000398:	2100      	movs	r1, #0
1000039a:	b510      	push	{r4, lr}
1000039c:	4c11      	ldr	r4, [pc, #68]	@ (100003e4 <updateEmulationParameters+0x4c>)
1000039e:	200b      	movs	r0, #11
100003a0:	7822      	ldrb	r2, [r4, #0]
100003a2:	1a52      	subs	r2, r2, r1
100003a4:	bf18      	it	ne
100003a6:	2201      	movne	r2, #1
100003a8:	f005 f99e 	bl	100056e8 <gpio_set_pulls>
100003ac:	2100      	movs	r1, #0
100003ae:	7822      	ldrb	r2, [r4, #0]
100003b0:	200a      	movs	r0, #10
100003b2:	1a52      	subs	r2, r2, r1
100003b4:	bf18      	it	ne
100003b6:	2201      	movne	r2, #1
100003b8:	f005 f996 	bl	100056e8 <gpio_set_pulls>
100003bc:	4b0a      	ldr	r3, [pc, #40]	@ (100003e8 <updateEmulationParameters+0x50>)
100003be:	480b      	ldr	r0, [pc, #44]	@ (100003ec <updateEmulationParameters+0x54>)
100003c0:	781a      	ldrb	r2, [r3, #0]
100003c2:	4c0b      	ldr	r4, [pc, #44]	@ (100003f0 <updateEmulationParameters+0x58>)
100003c4:	2a03      	cmp	r2, #3
100003c6:	bf14      	ite	ne
100003c8:	f64f 7300 	movwne	r3, #65280	@ 0xff00
100003cc:	f24c 0340 	movweq	r3, #49216	@ 0xc040
100003d0:	7002      	strb	r2, [r0, #0]
100003d2:	4908      	ldr	r1, [pc, #32]	@ (100003f4 <updateEmulationParameters+0x5c>)
100003d4:	7824      	ldrb	r4, [r4, #0]
100003d6:	4a08      	ldr	r2, [pc, #32]	@ (100003f8 <updateEmulationParameters+0x60>)
100003d8:	4808      	ldr	r0, [pc, #32]	@ (100003fc <updateEmulationParameters+0x64>)
100003da:	800b      	strh	r3, [r1, #0]
100003dc:	7004      	strb	r4, [r0, #0]
100003de:	8013      	strh	r3, [r2, #0]
100003e0:	bd10      	pop	{r4, pc}
100003e2:	bf00      	nop
100003e4:	2001f3be 	.word	0x2001f3be
100003e8:	2001f3bc 	.word	0x2001f3bc
100003ec:	2001f3cb 	.word	0x2001f3cb
100003f0:	2001f3c0 	.word	0x2001f3c0
100003f4:	20008b7c 	.word	0x20008b7c
100003f8:	20008b78 	.word	0x20008b78
100003fc:	2001f3bf 	.word	0x2001f3bf

10000400 <handleSerialSID>:
10000400:	e92d 4ff8 	stmdb	sp!, {r3, r4, r5, r6, r7, r8, r9, sl, fp, lr}
10000404:	4c35      	ldr	r4, [pc, #212]	@ (100004dc <handleSerialSID+0xdc>)
10000406:	2100      	movs	r1, #0
10000408:	f04f 30ff 	mov.w	r0, #4294967295	@ 0xffffffff
1000040c:	f005 fa92 	bl	10005934 <irq_set_mask_enabled>
10000410:	4933      	ldr	r1, [pc, #204]	@ (100004e0 <handleSerialSID+0xe0>)
10000412:	4620      	mov	r0, r4
10000414:	f005 ffec 	bl	100063f0 <uart_init>
10000418:	2102      	movs	r1, #2
1000041a:	2000      	movs	r0, #0
1000041c:	f005 f946 	bl	100056ac <gpio_set_function>
10000420:	2102      	movs	r1, #2
10000422:	2001      	movs	r0, #1
10000424:	f005 f942 	bl	100056ac <gpio_set_function>
10000428:	6b20      	ldr	r0, [r4, #48]	@ 0x30
1000042a:	4d2e      	ldr	r5, [pc, #184]	@ (100004e4 <handleSerialSID+0xe4>)
1000042c:	f400 4040 	and.w	r0, r0, #49152	@ 0xc000
10000430:	2300      	movs	r3, #0
10000432:	2201      	movs	r2, #1
10000434:	6328      	str	r0, [r5, #48]	@ 0x30
10000436:	2108      	movs	r1, #8
10000438:	4620      	mov	r0, r4
1000043a:	f006 f861 	bl	10006500 <uart_set_format>
1000043e:	2101      	movs	r1, #1
10000440:	4620      	mov	r0, r4
10000442:	f006 f89b 	bl	1000657c <uart_set_fifo_enabled>
10000446:	4928      	ldr	r1, [pc, #160]	@ (100004e8 <handleSerialSID+0xe8>)
10000448:	4b28      	ldr	r3, [pc, #160]	@ (100004ec <handleSerialSID+0xec>)
1000044a:	780f      	ldrb	r7, [r1, #0]
1000044c:	2100      	movs	r1, #0
1000044e:	4a28      	ldr	r2, [pc, #160]	@ (100004f0 <handleSerialSID+0xf0>)
10000450:	f893 8000 	ldrb.w	r8, [r3]
10000454:	4b27      	ldr	r3, [pc, #156]	@ (100004f4 <handleSerialSID+0xf4>)
10000456:	8896      	ldrh	r6, [r2, #4]
10000458:	781b      	ldrb	r3, [r3, #0]
1000045a:	7890      	ldrb	r0, [r2, #2]
1000045c:	f892 e000 	ldrb.w	lr, [r2]
10000460:	f892 c001 	ldrb.w	ip, [r2, #1]
10000464:	f8df a098 	ldr.w	sl, [pc, #152]	@ 10000500 <handleSerialSID+0x100>
10000468:	4d23      	ldr	r5, [pc, #140]	@ (100004f8 <handleSerialSID+0xf8>)
1000046a:	69a2      	ldr	r2, [r4, #24]
1000046c:	06d2      	lsls	r2, r2, #27
1000046e:	d4fc      	bmi.n	1000046a <handleSerialSID+0x6a>
10000470:	69a2      	ldr	r2, [r4, #24]
10000472:	06d2      	lsls	r2, r2, #27
10000474:	d4fc      	bmi.n	10000470 <handleSerialSID+0x70>
10000476:	6822      	ldr	r2, [r4, #0]
10000478:	fa5f f982 	uxtb.w	r9, r2
1000047c:	2b03      	cmp	r3, #3
1000047e:	d8f4      	bhi.n	1000046a <handleSerialSID+0x6a>
10000480:	e8df f003 	tbb	[pc, r3]
10000484:	0e1e0205 	.word	0x0e1e0205
10000488:	4648      	mov	r0, r9
1000048a:	2302      	movs	r3, #2
1000048c:	e7ed      	b.n	1000046a <handleSerialSID+0x6a>
1000048e:	f012 0f80 	tst.w	r2, #128	@ 0x80
10000492:	d0ea      	beq.n	1000046a <handleSerialSID+0x6a>
10000494:	2301      	movs	r3, #1
10000496:	f3c2 1e40 	ubfx	lr, r2, #5, #1
1000049a:	f009 0c1f 	and.w	ip, r9, #31
1000049e:	e7e4      	b.n	1000046a <handleSerialSID+0x6a>
100004a0:	ea4f 230c 	mov.w	r3, ip, lsl #8
100004a4:	f403 53f8 	and.w	r3, r3, #7936	@ 0x1f00
100004a8:	4303      	orrs	r3, r0
100004aa:	1c7a      	adds	r2, r7, #1
100004ac:	b2d2      	uxtb	r2, r2
100004ae:	ea43 0b05 	orr.w	fp, r3, r5
100004b2:	f1be 0f00 	cmp.w	lr, #0
100004b6:	bf08      	it	eq
100004b8:	469b      	moveq	fp, r3
100004ba:	4590      	cmp	r8, r2
100004bc:	d103      	bne.n	100004c6 <handleSerialSID+0xc6>
100004be:	e7fe      	b.n	100004be <handleSerialSID+0xbe>
100004c0:	464e      	mov	r6, r9
100004c2:	2303      	movs	r3, #3
100004c4:	e7d1      	b.n	1000046a <handleSerialSID+0x6a>
100004c6:	4b0d      	ldr	r3, [pc, #52]	@ (100004fc <handleSerialSID+0xfc>)
100004c8:	ea46 2609 	orr.w	r6, r6, r9, lsl #8
100004cc:	4431      	add	r1, r6
100004ce:	f823 b017 	strh.w	fp, [r3, r7, lsl #1]
100004d2:	f84a 1027 	str.w	r1, [sl, r7, lsl #2]
100004d6:	2300      	movs	r3, #0
100004d8:	4617      	mov	r7, r2
100004da:	e7c6      	b.n	1000046a <handleSerialSID+0x6a>
100004dc:	40070000 	.word	0x40070000
100004e0:	001e8480 	.word	0x001e8480
100004e4:	40071000 	.word	0x40071000
100004e8:	2001f3ce 	.word	0x2001f3ce
100004ec:	2001f3cd 	.word	0x2001f3cd
100004f0:	2001e99c 	.word	0x2001e99c
100004f4:	2001f3d0 	.word	0x2001f3d0
100004f8:	ffff8000 	.word	0xffff8000
100004fc:	2001e384 	.word	0x2001e384
10000500:	2001e584 	.word	0x2001e584

10000504 <readConfiguration>:
10000504:	f44f 72c0 	mov.w	r2, #384	@ 0x180
10000508:	b538      	push	{r3, r4, r5, lr}
1000050a:	491b      	ldr	r1, [pc, #108]	@ (10000578 <readConfiguration+0x74>)
1000050c:	481b      	ldr	r0, [pc, #108]	@ (1000057c <readConfiguration+0x78>)
1000050e:	f00a fcc1 	bl	1000ae94 <memcpy>
10000512:	481b      	ldr	r0, [pc, #108]	@ (10000580 <readConfiguration+0x7c>)
10000514:	2104      	movs	r1, #4
10000516:	4602      	mov	r2, r0
10000518:	4b1a      	ldr	r3, [pc, #104]	@ (10000584 <readConfiguration+0x80>)
1000051a:	681b      	ldr	r3, [r3, #0]
1000051c:	681d      	ldr	r5, [r3, #0]
1000051e:	685c      	ldr	r4, [r3, #4]
10000520:	f8d3 e008 	ldr.w	lr, [r3, #8]
10000524:	f8d3 c00c 	ldr.w	ip, [r3, #12]
10000528:	3901      	subs	r1, #1
1000052a:	6015      	str	r5, [r2, #0]
1000052c:	6054      	str	r4, [r2, #4]
1000052e:	f8c2 e008 	str.w	lr, [r2, #8]
10000532:	f8c2 c00c 	str.w	ip, [r2, #12]
10000536:	f103 0310 	add.w	r3, r3, #16
1000053a:	f102 0210 	add.w	r2, r2, #16
1000053e:	d1ed      	bne.n	1000051c <readConfiguration+0x18>
10000540:	4b11      	ldr	r3, [pc, #68]	@ (10000588 <readConfiguration+0x84>)
10000542:	4912      	ldr	r1, [pc, #72]	@ (1000058c <readConfiguration+0x88>)
10000544:	781c      	ldrb	r4, [r3, #0]
10000546:	785d      	ldrb	r5, [r3, #1]
10000548:	7803      	ldrb	r3, [r0, #0]
1000054a:	4a11      	ldr	r2, [pc, #68]	@ (10000590 <readConfiguration+0x8c>)
1000054c:	2bff      	cmp	r3, #255	@ 0xff
1000054e:	d00c      	beq.n	1000056a <readConfiguration+0x66>
10000550:	f890 3038 	ldrb.w	r3, [r0, #56]	@ 0x38
10000554:	b913      	cbnz	r3, 1000055c <readConfiguration+0x58>
10000556:	7015      	strb	r5, [r2, #0]
10000558:	700c      	strb	r4, [r1, #0]
1000055a:	bd38      	pop	{r3, r4, r5, pc}
1000055c:	f890 4036 	ldrb.w	r4, [r0, #54]	@ 0x36
10000560:	f890 3037 	ldrb.w	r3, [r0, #55]	@ 0x37
10000564:	700c      	strb	r4, [r1, #0]
10000566:	7013      	strb	r3, [r2, #0]
10000568:	bd38      	pop	{r3, r4, r5, pc}
1000056a:	700c      	strb	r4, [r1, #0]
1000056c:	7015      	strb	r5, [r2, #0]
1000056e:	e8bd 4038 	ldmia.w	sp!, {r3, r4, r5, lr}
10000572:	f001 b80b 	b.w	1000158c <setDefaultConfiguration>
10000576:	bf00      	nop
10000578:	1000f200 	.word	0x1000f200
1000057c:	20015384 	.word	0x20015384
10000580:	20008a08 	.word	0x20008a08
10000584:	20001100 	.word	0x20001100
10000588:	10019000 	.word	0x10019000
1000058c:	2001f3b9 	.word	0x2001f3b9
10000590:	2001f3b8 	.word	0x2001f3b8

10000594 <writeConfiguration>:
10000594:	b538      	push	{r3, r4, r5, lr}
10000596:	2202      	movs	r2, #2
10000598:	2106      	movs	r1, #6
1000059a:	482a      	ldr	r0, [pc, #168]	@ (10000644 <writeConfiguration+0xb0>)
1000059c:	f006 f894 	bl	100066c8 <set_sys_clock_pll>
100005a0:	4c29      	ldr	r4, [pc, #164]	@ (10000648 <writeConfiguration+0xb4>)
100005a2:	4620      	mov	r0, r4
100005a4:	f1a0 0001 	sub.w	r0, r0, #1
100005a8:	d1fc      	bne.n	100005a4 <writeConfiguration+0x10>
100005aa:	f44f 5180 	mov.w	r1, #4096	@ 0x1000
100005ae:	4827      	ldr	r0, [pc, #156]	@ (1000064c <writeConfiguration+0xb8>)
100005b0:	f00a fe8a 	bl	1000b2c8 <__flash_range_erase_veneer>
100005b4:	f44f 7280 	mov.w	r2, #256	@ 0x100
100005b8:	4925      	ldr	r1, [pc, #148]	@ (10000650 <writeConfiguration+0xbc>)
100005ba:	4824      	ldr	r0, [pc, #144]	@ (1000064c <writeConfiguration+0xb8>)
100005bc:	f00a fe6c 	bl	1000b298 <__flash_range_program_veneer>
100005c0:	2202      	movs	r2, #2
100005c2:	2106      	movs	r1, #6
100005c4:	481f      	ldr	r0, [pc, #124]	@ (10000644 <writeConfiguration+0xb0>)
100005c6:	f006 f87f 	bl	100066c8 <set_sys_clock_pll>
100005ca:	4620      	mov	r0, r4
100005cc:	f1a0 0001 	sub.w	r0, r0, #1
100005d0:	d1fc      	bne.n	100005cc <writeConfiguration+0x38>
100005d2:	f44f 72c0 	mov.w	r2, #384	@ 0x180
100005d6:	491f      	ldr	r1, [pc, #124]	@ (10000654 <writeConfiguration+0xc0>)
100005d8:	481f      	ldr	r0, [pc, #124]	@ (10000658 <writeConfiguration+0xc4>)
100005da:	f00a fc5b 	bl	1000ae94 <memcpy>
100005de:	481c      	ldr	r0, [pc, #112]	@ (10000650 <writeConfiguration+0xbc>)
100005e0:	2104      	movs	r1, #4
100005e2:	4602      	mov	r2, r0
100005e4:	4b1d      	ldr	r3, [pc, #116]	@ (1000065c <writeConfiguration+0xc8>)
100005e6:	681b      	ldr	r3, [r3, #0]
100005e8:	681d      	ldr	r5, [r3, #0]
100005ea:	f8d3 e004 	ldr.w	lr, [r3, #4]
100005ee:	f8d3 c008 	ldr.w	ip, [r3, #8]
100005f2:	68dc      	ldr	r4, [r3, #12]
100005f4:	3901      	subs	r1, #1
100005f6:	6015      	str	r5, [r2, #0]
100005f8:	f8c2 e004 	str.w	lr, [r2, #4]
100005fc:	f8c2 c008 	str.w	ip, [r2, #8]
10000600:	60d4      	str	r4, [r2, #12]
10000602:	f103 0310 	add.w	r3, r3, #16
10000606:	f102 0210 	add.w	r2, r2, #16
1000060a:	d1ed      	bne.n	100005e8 <writeConfiguration+0x54>
1000060c:	4b14      	ldr	r3, [pc, #80]	@ (10000660 <writeConfiguration+0xcc>)
1000060e:	4915      	ldr	r1, [pc, #84]	@ (10000664 <writeConfiguration+0xd0>)
10000610:	781c      	ldrb	r4, [r3, #0]
10000612:	785d      	ldrb	r5, [r3, #1]
10000614:	7803      	ldrb	r3, [r0, #0]
10000616:	4a14      	ldr	r2, [pc, #80]	@ (10000668 <writeConfiguration+0xd4>)
10000618:	2bff      	cmp	r3, #255	@ 0xff
1000061a:	d00c      	beq.n	10000636 <writeConfiguration+0xa2>
1000061c:	f890 3038 	ldrb.w	r3, [r0, #56]	@ 0x38
10000620:	b913      	cbnz	r3, 10000628 <writeConfiguration+0x94>
10000622:	7015      	strb	r5, [r2, #0]
10000624:	700c      	strb	r4, [r1, #0]
10000626:	bd38      	pop	{r3, r4, r5, pc}
10000628:	f890 4036 	ldrb.w	r4, [r0, #54]	@ 0x36
1000062c:	f890 3037 	ldrb.w	r3, [r0, #55]	@ 0x37
10000630:	700c      	strb	r4, [r1, #0]
10000632:	7013      	strb	r3, [r2, #0]
10000634:	bd38      	pop	{r3, r4, r5, pc}
10000636:	700c      	strb	r4, [r1, #0]
10000638:	7015      	strb	r5, [r2, #0]
1000063a:	e8bd 4038 	ldmia.w	sp!, {r3, r4, r5, lr}
1000063e:	f000 bfa5 	b.w	1000158c <setDefaultConfiguration>
10000642:	bf00      	nop
10000644:	59682f00 	.word	0x59682f00
10000648:	00014c08 	.word	0x00014c08
1000064c:	0001a000 	.word	0x0001a000
10000650:	20008a08 	.word	0x20008a08
10000654:	1000f200 	.word	0x1000f200
10000658:	20015384 	.word	0x20015384
1000065c:	20001100 	.word	0x20001100
10000660:	10019000 	.word	0x10019000
10000664:	2001f3b9 	.word	0x2001f3b9
10000668:	2001f3b8 	.word	0x2001f3b8
1000066c:	00000000 	.word	0x00000000

10000670 <runEmulation>:
10000670:	e92d 4ff0 	stmdb	sp!, {r4, r5, r6, r7, r8, r9, sl, fp, lr}
10000674:	2100      	movs	r1, #0
10000676:	b099      	sub	sp, #100	@ 0x64
10000678:	f04f 30ff 	mov.w	r0, #4294967295	@ 0xffffffff
1000067c:	f005 f95a 	bl	10005934 <irq_set_mask_enabled>
10000680:	2019      	movs	r0, #25
10000682:	f005 f863 	bl	1000574c <gpio_init>
10000686:	2619      	movs	r6, #25
10000688:	2701      	movs	r7, #1
1000068a:	ec47 6044 	gpioc_bit_oe_put r6, r7
1000068e:	2104      	movs	r1, #4
10000690:	4630      	mov	r0, r6
10000692:	f005 f80b 	bl	100056ac <gpio_set_function>
10000696:	2500      	movs	r5, #0
10000698:	f640 3212 	movw	r2, #2834	@ 0xb12
1000069c:	2310      	movs	r3, #16
1000069e:	4c93      	ldr	r4, [pc, #588]	@ (100008ec <runEmulation+0x27c>)
100006a0:	4629      	mov	r1, r5
100006a2:	6525      	str	r5, [r4, #80]	@ 0x50
100006a4:	4630      	mov	r0, r6
100006a6:	65a5      	str	r5, [r4, #88]	@ 0x58
100006a8:	65e5      	str	r5, [r4, #92]	@ 0x5c
100006aa:	6622      	str	r2, [r4, #96]	@ 0x60
100006ac:	6563      	str	r3, [r4, #84]	@ 0x54
100006ae:	6527      	str	r7, [r4, #80]	@ 0x50
100006b0:	f005 f82c 	bl	1000570c <gpio_set_drive_strength>
100006b4:	6de3      	ldr	r3, [r4, #92]	@ 0x5c
100006b6:	4a8e      	ldr	r2, [pc, #568]	@ (100008f0 <runEmulation+0x280>)
100006b8:	f36f 030f 	bfc	r3, #0, #16
100006bc:	65d3      	str	r3, [r2, #92]	@ 0x5c
100006be:	498d      	ldr	r1, [pc, #564]	@ (100008f4 <runEmulation+0x284>)
100006c0:	488d      	ldr	r0, [pc, #564]	@ (100008f8 <runEmulation+0x288>)
100006c2:	f000 fec3 	bl	1000144c <exo_decrunch>
100006c6:	22fe      	movs	r2, #254	@ 0xfe
100006c8:	498c      	ldr	r1, [pc, #560]	@ (100008fc <runEmulation+0x28c>)
100006ca:	4b8d      	ldr	r3, [pc, #564]	@ (10000900 <runEmulation+0x290>)
100006cc:	488d      	ldr	r0, [pc, #564]	@ (10000904 <runEmulation+0x294>)
100006ce:	700d      	strb	r5, [r1, #0]
100006d0:	7005      	strb	r5, [r0, #0]
100006d2:	701a      	strb	r2, [r3, #0]
100006d4:	f001 f9a4 	bl	10001a20 <initReSID>
100006d8:	f64a 4144 	movw	r1, #44100	@ 0xac44
100006dc:	488a      	ldr	r0, [pc, #552]	@ (10000908 <runEmulation+0x298>)
100006de:	f002 faaf 	bl	10002c40 <ym3812_init>
100006e2:	2440      	movs	r4, #64	@ 0x40
100006e4:	4605      	mov	r5, r0
100006e6:	9006      	str	r0, [sp, #24]
100006e8:	4622      	mov	r2, r4
100006ea:	2100      	movs	r1, #0
100006ec:	4628      	mov	r0, r5
100006ee:	f002 fbaf 	bl	10002e50 <ym3812_write>
100006f2:	3401      	adds	r4, #1
100006f4:	223f      	movs	r2, #63	@ 0x3f
100006f6:	2101      	movs	r1, #1
100006f8:	4628      	mov	r0, r5
100006fa:	f002 fba9 	bl	10002e50 <ym3812_write>
100006fe:	2c56      	cmp	r4, #86	@ 0x56
10000700:	d1f2      	bne.n	100006e8 <runEmulation+0x78>
10000702:	f04f 0a00 	mov.w	sl, #0
10000706:	f244 0240 	movw	r2, #16448	@ 0x4040
1000070a:	4b80      	ldr	r3, [pc, #512]	@ (1000090c <runEmulation+0x29c>)
1000070c:	4980      	ldr	r1, [pc, #512]	@ (10000910 <runEmulation+0x2a0>)
1000070e:	f883 a000 	strb.w	sl, [r3]
10000712:	4b80      	ldr	r3, [pc, #512]	@ (10000914 <runEmulation+0x2a4>)
10000714:	800a      	strh	r2, [r1, #0]
10000716:	f883 a000 	strb.w	sl, [r3]
1000071a:	f7ff fe3d 	bl	10000398 <updateEmulationParameters>
1000071e:	f7ff fe03 	bl	10000328 <initI2S>
10000722:	f44f 4300 	mov.w	r3, #32768	@ 0x8000
10000726:	4a7c      	ldr	r2, [pc, #496]	@ (10000918 <runEmulation+0x2a8>)
10000728:	f8df b224 	ldr.w	fp, [pc, #548]	@ 10000950 <runEmulation+0x2e0>
1000072c:	e9cd aa0c 	strd	sl, sl, [sp, #48]	@ 0x30
10000730:	f8df 8220 	ldr.w	r8, [pc, #544]	@ 10000954 <runEmulation+0x2e4>
10000734:	4d79      	ldr	r5, [pc, #484]	@ (1000091c <runEmulation+0x2ac>)
10000736:	f8df 9220 	ldr.w	r9, [pc, #544]	@ 10000958 <runEmulation+0x2e8>
1000073a:	4f79      	ldr	r7, [pc, #484]	@ (10000920 <runEmulation+0x2b0>)
1000073c:	9311      	str	r3, [sp, #68]	@ 0x44
1000073e:	6010      	str	r0, [r2, #0]
10000740:	9310      	str	r3, [sp, #64]	@ 0x40
10000742:	f8cd a038 	str.w	sl, [sp, #56]	@ 0x38
10000746:	f8cd a028 	str.w	sl, [sp, #40]	@ 0x28
1000074a:	f8cd b00c 	str.w	fp, [sp, #12]
1000074e:	4b6d      	ldr	r3, [pc, #436]	@ (10000904 <runEmulation+0x294>)
10000750:	781b      	ldrb	r3, [r3, #0]
10000752:	2b00      	cmp	r3, #0
10000754:	f040 82a3 	bne.w	10000c9e <runEmulation+0x62e>
10000758:	4b72      	ldr	r3, [pc, #456]	@ (10000924 <runEmulation+0x2b4>)
1000075a:	781a      	ldrb	r2, [r3, #0]
1000075c:	2a00      	cmp	r2, #0
1000075e:	f000 80a2 	beq.w	100008a6 <runEmulation+0x236>
10000762:	4b71      	ldr	r3, [pc, #452]	@ (10000928 <runEmulation+0x2b8>)
10000764:	781b      	ldrb	r3, [r3, #0]
10000766:	2b00      	cmp	r3, #0
10000768:	f000 809d 	beq.w	100008a6 <runEmulation+0x236>
1000076c:	4b6f      	ldr	r3, [pc, #444]	@ (1000092c <runEmulation+0x2bc>)
1000076e:	990d      	ldr	r1, [sp, #52]	@ 0x34
10000770:	781b      	ldrb	r3, [r3, #0]
10000772:	eb0d 0001 	add.w	r0, sp, r1
10000776:	f880 304c 	strb.w	r3, [r0, #76]	@ 0x4c
1000077a:	1c4b      	adds	r3, r1, #1
1000077c:	b2db      	uxtb	r3, r3
1000077e:	2b03      	cmp	r3, #3
10000780:	bf28      	it	cs
10000782:	2300      	movcs	r3, #0
10000784:	f89d 404c 	ldrb.w	r4, [sp, #76]	@ 0x4c
10000788:	930d      	str	r3, [sp, #52]	@ 0x34
1000078a:	f89d 304d 	ldrb.w	r3, [sp, #77]	@ 0x4d
1000078e:	f89d 104e 	ldrb.w	r1, [sp, #78]	@ 0x4e
10000792:	429c      	cmp	r4, r3
10000794:	bf94      	ite	ls
10000796:	461e      	movls	r6, r3
10000798:	4626      	movhi	r6, r4
1000079a:	9104      	str	r1, [sp, #16]
1000079c:	18e1      	adds	r1, r4, r3
1000079e:	429c      	cmp	r4, r3
100007a0:	bf88      	it	hi
100007a2:	461c      	movhi	r4, r3
100007a4:	9b04      	ldr	r3, [sp, #16]
100007a6:	4419      	add	r1, r3
100007a8:	4b61      	ldr	r3, [pc, #388]	@ (10000930 <runEmulation+0x2c0>)
100007aa:	781b      	ldrb	r3, [r3, #0]
100007ac:	f880 3050 	strb.w	r3, [r0, #80]	@ 0x50
100007b0:	f89d 0050 	ldrb.w	r0, [sp, #80]	@ 0x50
100007b4:	f89d c051 	ldrb.w	ip, [sp, #81]	@ 0x51
100007b8:	f89d e052 	ldrb.w	lr, [sp, #82]	@ 0x52
100007bc:	eb00 030c 	add.w	r3, r0, ip
100007c0:	4473      	add	r3, lr
100007c2:	9307      	str	r3, [sp, #28]
100007c4:	9b04      	ldr	r3, [sp, #16]
100007c6:	429e      	cmp	r6, r3
100007c8:	bfb8      	it	lt
100007ca:	461e      	movlt	r6, r3
100007cc:	42a3      	cmp	r3, r4
100007ce:	bfd4      	ite	le
100007d0:	18f6      	addle	r6, r6, r3
100007d2:	1936      	addgt	r6, r6, r4
100007d4:	4560      	cmp	r0, ip
100007d6:	bf94      	ite	ls
100007d8:	4664      	movls	r4, ip
100007da:	4604      	movhi	r4, r0
100007dc:	4560      	cmp	r0, ip
100007de:	bf88      	it	hi
100007e0:	4660      	movhi	r0, ip
100007e2:	4574      	cmp	r4, lr
100007e4:	bfb8      	it	lt
100007e6:	4674      	movlt	r4, lr
100007e8:	4586      	cmp	lr, r0
100007ea:	bfd4      	ite	le
100007ec:	4474      	addle	r4, lr
100007ee:	1824      	addgt	r4, r4, r0
100007f0:	9b07      	ldr	r3, [sp, #28]
100007f2:	1b89      	subs	r1, r1, r6
100007f4:	1b1b      	subs	r3, r3, r4
100007f6:	2a01      	cmp	r2, #1
100007f8:	b2c9      	uxtb	r1, r1
100007fa:	b2db      	uxtb	r3, r3
100007fc:	f000 84fc 	beq.w	100011f8 <runEmulation+0xb88>
10000800:	484c      	ldr	r0, [pc, #304]	@ (10000934 <runEmulation+0x2c4>)
10000802:	7800      	ldrb	r0, [r0, #0]
10000804:	2800      	cmp	r0, #0
10000806:	d14b      	bne.n	100008a0 <runEmulation+0x230>
10000808:	2a03      	cmp	r2, #3
1000080a:	f000 8595 	beq.w	10001338 <runEmulation+0xcc8>
1000080e:	484a      	ldr	r0, [pc, #296]	@ (10000938 <runEmulation+0x2c8>)
10000810:	4a4a      	ldr	r2, [pc, #296]	@ (1000093c <runEmulation+0x2cc>)
10000812:	7806      	ldrb	r6, [r0, #0]
10000814:	f44f 4000 	mov.w	r0, #32768	@ 0x8000
10000818:	9004      	str	r0, [sp, #16]
1000081a:	f44f 3080 	mov.w	r0, #65536	@ 0x10000
1000081e:	7812      	ldrb	r2, [r2, #0]
10000820:	0234      	lsls	r4, r6, #8
10000822:	ea4f 2e02 	mov.w	lr, r2, lsl #8
10000826:	9407      	str	r4, [sp, #28]
10000828:	1a8a      	subs	r2, r1, r2
1000082a:	9910      	ldr	r1, [sp, #64]	@ 0x40
1000082c:	9c07      	ldr	r4, [sp, #28]
1000082e:	1b9b      	subs	r3, r3, r6
10000830:	eba1 060e 	sub.w	r6, r1, lr
10000834:	9911      	ldr	r1, [sp, #68]	@ 0x44
10000836:	ebc6 2c02 	rsb	ip, r6, r2, lsl #8
1000083a:	1b09      	subs	r1, r1, r4
1000083c:	9c04      	ldr	r4, [sp, #16]
1000083e:	021b      	lsls	r3, r3, #8
10000840:	45a4      	cmp	ip, r4
10000842:	ea4f 2202 	mov.w	r2, r2, lsl #8
10000846:	f340 84dc 	ble.w	10001202 <runEmulation+0xb92>
1000084a:	9c04      	ldr	r4, [sp, #16]
1000084c:	eba3 0c01 	sub.w	ip, r3, r1
10000850:	45a4      	cmp	ip, r4
10000852:	4406      	add	r6, r0
10000854:	f340 84e0 	ble.w	10001218 <runEmulation+0xba8>
10000858:	4401      	add	r1, r0
1000085a:	24fa      	movs	r4, #250	@ 0xfa
1000085c:	eb02 0242 	add.w	r2, r2, r2, lsl #1
10000860:	0052      	lsls	r2, r2, #1
10000862:	fb04 2206 	mla	r2, r4, r6, r2
10000866:	1214      	asrs	r4, r2, #8
10000868:	ebb0 2f22 	cmp.w	r0, r2, asr #8
1000086c:	f04f 02fa 	mov.w	r2, #250	@ 0xfa
10000870:	eb03 0343 	add.w	r3, r3, r3, lsl #1
10000874:	ea4f 0343 	mov.w	r3, r3, lsl #1
10000878:	fb02 3301 	mla	r3, r2, r1, r3
1000087c:	bfd8      	it	le
1000087e:	1a24      	suble	r4, r4, r0
10000880:	121a      	asrs	r2, r3, #8
10000882:	ebb0 2f23 	cmp.w	r0, r3, asr #8
10000886:	9b07      	ldr	r3, [sp, #28]
10000888:	eb04 010e 	add.w	r1, r4, lr
1000088c:	bfd8      	it	le
1000088e:	1a12      	suble	r2, r2, r0
10000890:	189a      	adds	r2, r3, r2
10000892:	9110      	str	r1, [sp, #64]	@ 0x40
10000894:	120b      	asrs	r3, r1, #8
10000896:	492a      	ldr	r1, [pc, #168]	@ (10000940 <runEmulation+0x2d0>)
10000898:	9211      	str	r2, [sp, #68]	@ 0x44
1000089a:	764b      	strb	r3, [r1, #25]
1000089c:	1213      	asrs	r3, r2, #8
1000089e:	768b      	strb	r3, [r1, #26]
100008a0:	2300      	movs	r3, #0
100008a2:	4a21      	ldr	r2, [pc, #132]	@ (10000928 <runEmulation+0x2b8>)
100008a4:	7013      	strb	r3, [r2, #0]
100008a6:	4a27      	ldr	r2, [pc, #156]	@ (10000944 <runEmulation+0x2d4>)
100008a8:	7813      	ldrb	r3, [r2, #0]
100008aa:	b18b      	cbz	r3, 100008d0 <runEmulation+0x260>
100008ac:	7813      	ldrb	r3, [r2, #0]
100008ae:	2b02      	cmp	r3, #2
100008b0:	f000 83ec 	beq.w	1000108c <runEmulation+0xa1c>
100008b4:	4b23      	ldr	r3, [pc, #140]	@ (10000944 <runEmulation+0x2d4>)
100008b6:	781b      	ldrb	r3, [r3, #0]
100008b8:	2b03      	cmp	r3, #3
100008ba:	b2dc      	uxtb	r4, r3
100008bc:	f000 844e 	beq.w	1000115c <runEmulation+0xaec>
100008c0:	2200      	movs	r2, #0
100008c2:	4611      	mov	r1, r2
100008c4:	4610      	mov	r0, r2
100008c6:	f006 f82d 	bl	10006924 <watchdog_reboot>
100008ca:	2300      	movs	r3, #0
100008cc:	4a1d      	ldr	r2, [pc, #116]	@ (10000944 <runEmulation+0x2d4>)
100008ce:	7013      	strb	r3, [r2, #0]
100008d0:	4a1d      	ldr	r2, [pc, #116]	@ (10000948 <runEmulation+0x2d8>)
100008d2:	f898 3000 	ldrb.w	r3, [r8]
100008d6:	7812      	ldrb	r2, [r2, #0]
100008d8:	491c      	ldr	r1, [pc, #112]	@ (1000094c <runEmulation+0x2dc>)
100008da:	429a      	cmp	r2, r3
100008dc:	e9d1 6400 	ldrd	r6, r4, [r1]
100008e0:	f000 80c1 	beq.w	10000a66 <runEmulation+0x3f6>
100008e4:	e9cd 6407 	strd	r6, r4, [sp, #28]
100008e8:	e05b      	b.n	100009a2 <runEmulation+0x332>
100008ea:	bf00      	nop
100008ec:	400a8000 	.word	0x400a8000
100008f0:	400a9000 	.word	0x400a9000
100008f4:	2000dde4 	.word	0x2000dde4
100008f8:	1000ea9b 	.word	0x1000ea9b
100008fc:	2001f3cc 	.word	0x2001f3cc
10000900:	20001115 	.word	0x20001115
10000904:	2001f3c6 	.word	0x2001f3c6
10000908:	00369e99 	.word	0x00369e99
1000090c:	2001f3c8 	.word	0x2001f3c8
10000910:	20008ad4 	.word	0x20008ad4
10000914:	2001f3c9 	.word	0x2001f3c9
10000918:	2000845c 	.word	0x2000845c
1000091c:	2001e384 	.word	0x2001e384
10000920:	20004258 	.word	0x20004258
10000924:	2001f3cb 	.word	0x2001f3cb
10000928:	2001f3d2 	.word	0x2001f3d2
1000092c:	20001109 	.word	0x20001109
10000930:	20001108 	.word	0x20001108
10000934:	2001f3d1 	.word	0x2001f3d1
10000938:	20008b7c 	.word	0x20008b7c
1000093c:	20008b78 	.word	0x20008b78
10000940:	20008b04 	.word	0x20008b04
10000944:	2001f3c7 	.word	0x2001f3c7
10000948:	2001f3ce 	.word	0x2001f3ce
1000094c:	20004088 	.word	0x20004088
10000950:	2001f3cf 	.word	0x2001f3cf
10000954:	2001f3cd 	.word	0x2001f3cd
10000958:	2001e584 	.word	0x2001e584
1000095c:	f935 0013 	ldrsh.w	r0, [r5, r3, lsl #1]
10000960:	f835 4013 	ldrh.w	r4, [r5, r3, lsl #1]
10000964:	2800      	cmp	r0, #0
10000966:	f280 810b 	bge.w	10000b80 <runEmulation+0x510>
1000096a:	e9d7 0100 	ldrd	r0, r1, [r7]
1000096e:	f859 2023 	ldr.w	r2, [r9, r3, lsl #2]
10000972:	4290      	cmp	r0, r2
10000974:	f171 0200 	sbcs.w	r2, r1, #0
10000978:	d37a      	bcc.n	10000a70 <runEmulation+0x400>
1000097a:	3301      	adds	r3, #1
1000097c:	f888 3000 	strb.w	r3, [r8]
10000980:	4ba2      	ldr	r3, [pc, #648]	@ (10000c0c <runEmulation+0x59c>)
10000982:	781b      	ldrb	r3, [r3, #0]
10000984:	2b00      	cmp	r3, #0
10000986:	f000 80f1 	beq.w	10000b6c <runEmulation+0x4fc>
1000098a:	b2e2      	uxtb	r2, r4
1000098c:	9806      	ldr	r0, [sp, #24]
1000098e:	f3c4 3100 	ubfx	r1, r4, #12, #1
10000992:	f002 fa5d 	bl	10002e50 <ym3812_write>
10000996:	4a9e      	ldr	r2, [pc, #632]	@ (10000c10 <runEmulation+0x5a0>)
10000998:	f898 3000 	ldrb.w	r3, [r8]
1000099c:	7812      	ldrb	r2, [r2, #0]
1000099e:	4293      	cmp	r3, r2
100009a0:	d05f      	beq.n	10000a62 <runEmulation+0x3f2>
100009a2:	9903      	ldr	r1, [sp, #12]
100009a4:	7809      	ldrb	r1, [r1, #0]
100009a6:	2900      	cmp	r1, #0
100009a8:	d1d8      	bne.n	1000095c <runEmulation+0x2ec>
100009aa:	f859 a023 	ldr.w	sl, [r9, r3, lsl #2]
100009ae:	468b      	mov	fp, r1
100009b0:	e9d7 0100 	ldrd	r0, r1, [r7]
100009b4:	4550      	cmp	r0, sl
100009b6:	f171 0200 	sbcs.w	r2, r1, #0
100009ba:	f0c0 825b 	bcc.w	10000e74 <runEmulation+0x804>
100009be:	f935 2013 	ldrsh.w	r2, [r5, r3, lsl #1]
100009c2:	1c59      	adds	r1, r3, #1
100009c4:	455a      	cmp	r2, fp
100009c6:	f835 4013 	ldrh.w	r4, [r5, r3, lsl #1]
100009ca:	f888 1000 	strb.w	r1, [r8]
100009ce:	dbd7      	blt.n	10000980 <runEmulation+0x310>
100009d0:	0a26      	lsrs	r6, r4, #8
100009d2:	b2e4      	uxtb	r4, r4
100009d4:	4621      	mov	r1, r4
100009d6:	4630      	mov	r0, r6
100009d8:	f001 f8ce 	bl	10001b78 <writeReSID>
100009dc:	4b8d      	ldr	r3, [pc, #564]	@ (10000c14 <runEmulation+0x5a4>)
100009de:	681b      	ldr	r3, [r3, #0]
100009e0:	f1b3 4f00 	cmp.w	r3, #2147483648	@ 0x80000000
100009e4:	f000 810c 	beq.w	10000c00 <runEmulation+0x590>
100009e8:	4b8b      	ldr	r3, [pc, #556]	@ (10000c18 <runEmulation+0x5a8>)
100009ea:	4a89      	ldr	r2, [pc, #548]	@ (10000c10 <runEmulation+0x5a0>)
100009ec:	7819      	ldrb	r1, [r3, #0]
100009ee:	7812      	ldrb	r2, [r2, #0]
100009f0:	f898 3000 	ldrb.w	r3, [r8]
100009f4:	2900      	cmp	r1, #0
100009f6:	d0d2      	beq.n	1000099e <runEmulation+0x32e>
100009f8:	1ff0      	subs	r0, r6, #7
100009fa:	b2c0      	uxtb	r0, r0
100009fc:	2806      	cmp	r0, #6
100009fe:	f240 80d4 	bls.w	10000baa <runEmulation+0x53a>
10000a02:	f1a6 000e 	sub.w	r0, r6, #14
10000a06:	b2c0      	uxtb	r0, r0
10000a08:	2806      	cmp	r0, #6
10000a0a:	f200 84ab 	bhi.w	10001364 <runEmulation+0xcf4>
10000a0e:	2102      	movs	r1, #2
10000a10:	9104      	str	r1, [sp, #16]
10000a12:	2804      	cmp	r0, #4
10000a14:	f000 80ce 	beq.w	10000bb4 <runEmulation+0x544>
10000a18:	2801      	cmp	r0, #1
10000a1a:	f000 82a3 	beq.w	10000f64 <runEmulation+0x8f4>
10000a1e:	2802      	cmp	r0, #2
10000a20:	d1bd      	bne.n	1000099e <runEmulation+0x32e>
10000a22:	9904      	ldr	r1, [sp, #16]
10000a24:	487d      	ldr	r0, [pc, #500]	@ (10000c1c <runEmulation+0x5ac>)
10000a26:	4e7e      	ldr	r6, [pc, #504]	@ (10000c20 <runEmulation+0x5b0>)
10000a28:	5c40      	ldrb	r0, [r0, r1]
10000a2a:	6831      	ldr	r1, [r6, #0]
10000a2c:	2803      	cmp	r0, #3
10000a2e:	f8d6 c004 	ldr.w	ip, [r6, #4]
10000a32:	910b      	str	r1, [sp, #44]	@ 0x2c
10000a34:	f000 8310 	beq.w	10001058 <runEmulation+0x9e8>
10000a38:	9904      	ldr	r1, [sp, #16]
10000a3a:	f04f 0e01 	mov.w	lr, #1
10000a3e:	00c9      	lsls	r1, r1, #3
10000a40:	4608      	mov	r0, r1
10000a42:	9109      	str	r1, [sp, #36]	@ 0x24
10000a44:	4e77      	ldr	r6, [pc, #476]	@ (10000c24 <runEmulation+0x5b4>)
10000a46:	990b      	ldr	r1, [sp, #44]	@ 0x2c
10000a48:	4293      	cmp	r3, r2
10000a4a:	5031      	str	r1, [r6, r0]
10000a4c:	4873      	ldr	r0, [pc, #460]	@ (10000c1c <runEmulation+0x5ac>)
10000a4e:	9904      	ldr	r1, [sp, #16]
10000a50:	f800 e001 	strb.w	lr, [r0, r1]
10000a54:	4874      	ldr	r0, [pc, #464]	@ (10000c28 <runEmulation+0x5b8>)
10000a56:	5444      	strb	r4, [r0, r1]
10000a58:	9809      	ldr	r0, [sp, #36]	@ 0x24
10000a5a:	4430      	add	r0, r6
10000a5c:	f8c0 c004 	str.w	ip, [r0, #4]
10000a60:	d19f      	bne.n	100009a2 <runEmulation+0x332>
10000a62:	e9dd 6407 	ldrd	r6, r4, [sp, #28]
10000a66:	9b03      	ldr	r3, [sp, #12]
10000a68:	781b      	ldrb	r3, [r3, #0]
10000a6a:	2b00      	cmp	r3, #0
10000a6c:	f000 8200 	beq.w	10000e70 <runEmulation+0x800>
10000a70:	f64f 73fe 	movw	r3, #65534	@ 0xfffe
10000a74:	4a6d      	ldr	r2, [pc, #436]	@ (10000c2c <runEmulation+0x5bc>)
10000a76:	6812      	ldr	r2, [r2, #0]
10000a78:	429a      	cmp	r2, r3
10000a7a:	f47f ae68 	bne.w	1000074e <runEmulation+0xde>
10000a7e:	f9bd 1030 	ldrsh.w	r1, [sp, #48]	@ 0x30
10000a82:	f9bd 0028 	ldrsh.w	r0, [sp, #40]	@ 0x28
10000a86:	f8ad 1048 	strh.w	r1, [sp, #72]	@ 0x48
10000a8a:	f8ad 004a 	strh.w	r0, [sp, #74]	@ 0x4a
10000a8e:	f640 3212 	movw	r2, #2834	@ 0xb12
10000a92:	180c      	adds	r4, r1, r0
10000a94:	f504 3380 	add.w	r3, r4, #65536	@ 0x10000
10000a98:	fb02 f303 	mul.w	r3, r2, r3
10000a9c:	4a64      	ldr	r2, [pc, #400]	@ (10000c30 <runEmulation+0x5c0>)
10000a9e:	145b      	asrs	r3, r3, #17
10000aa0:	f9b2 2000 	ldrsh.w	r2, [r2]
10000aa4:	b1c2      	cbz	r2, 10000ad8 <runEmulation+0x468>
10000aa6:	4e63      	ldr	r6, [pc, #396]	@ (10000c34 <runEmulation+0x5c4>)
10000aa8:	f5c2 4c80 	rsb	ip, r2, #16384	@ 0x4000
10000aac:	8836      	ldrh	r6, [r6, #0]
10000aae:	fb16 f602 	smulbb	r6, r6, r2
10000ab2:	fb03 630c 	mla	r3, r3, ip, r6
10000ab6:	4e60      	ldr	r6, [pc, #384]	@ (10000c38 <runEmulation+0x5c8>)
10000ab8:	139b      	asrs	r3, r3, #14
10000aba:	8836      	ldrh	r6, [r6, #0]
10000abc:	4432      	add	r2, r6
10000abe:	b212      	sxth	r2, r2
10000ac0:	2a00      	cmp	r2, #0
10000ac2:	f2c0 8321 	blt.w	10001108 <runEmulation+0xa98>
10000ac6:	f5b2 4f80 	cmp.w	r2, #16384	@ 0x4000
10000aca:	f2c0 831e 	blt.w	1000110a <runEmulation+0xa9a>
10000ace:	2200      	movs	r2, #0
10000ad0:	4e57      	ldr	r6, [pc, #348]	@ (10000c30 <runEmulation+0x5c0>)
10000ad2:	8032      	strh	r2, [r6, #0]
10000ad4:	4e58      	ldr	r6, [pc, #352]	@ (10000c38 <runEmulation+0x5c8>)
10000ad6:	8032      	strh	r2, [r6, #0]
10000ad8:	4a54      	ldr	r2, [pc, #336]	@ (10000c2c <runEmulation+0x5bc>)
10000ada:	6013      	str	r3, [r2, #0]
10000adc:	4b57      	ldr	r3, [pc, #348]	@ (10000c3c <runEmulation+0x5cc>)
10000ade:	881b      	ldrh	r3, [r3, #0]
10000ae0:	2bff      	cmp	r3, #255	@ 0xff
10000ae2:	d805      	bhi.n	10000af0 <runEmulation+0x480>
10000ae4:	4a56      	ldr	r2, [pc, #344]	@ (10000c40 <runEmulation+0x5d0>)
10000ae6:	b289      	uxth	r1, r1
10000ae8:	ea41 4100 	orr.w	r1, r1, r0, lsl #16
10000aec:	f842 1023 	str.w	r1, [r2, r3, lsl #2]
10000af0:	4a52      	ldr	r2, [pc, #328]	@ (10000c3c <runEmulation+0x5cc>)
10000af2:	3301      	adds	r3, #1
10000af4:	8013      	strh	r3, [r2, #0]
10000af6:	4b53      	ldr	r3, [pc, #332]	@ (10000c44 <runEmulation+0x5d4>)
10000af8:	2100      	movs	r1, #0
10000afa:	6818      	ldr	r0, [r3, #0]
10000afc:	f009 fd4e 	bl	1000a59c <take_audio_buffer>
10000b00:	4606      	mov	r6, r0
10000b02:	2800      	cmp	r0, #0
10000b04:	f000 80b8 	beq.w	10000c78 <runEmulation+0x608>
10000b08:	4b4f      	ldr	r3, [pc, #316]	@ (10000c48 <runEmulation+0x5d8>)
10000b0a:	781b      	ldrb	r3, [r3, #0]
10000b0c:	2b00      	cmp	r3, #0
10000b0e:	f040 834b 	bne.w	100011a8 <runEmulation+0xb38>
10000b12:	2300      	movs	r3, #0
10000b14:	6832      	ldr	r2, [r6, #0]
10000b16:	68f0      	ldr	r0, [r6, #12]
10000b18:	6852      	ldr	r2, [r2, #4]
10000b1a:	9204      	str	r2, [sp, #16]
10000b1c:	4a4a      	ldr	r2, [pc, #296]	@ (10000c48 <runEmulation+0x5d8>)
10000b1e:	7013      	strb	r3, [r2, #0]
10000b20:	2800      	cmp	r0, #0
10000b22:	f000 841c 	beq.w	1000135e <runEmulation+0xcee>
10000b26:	4a45      	ldr	r2, [pc, #276]	@ (10000c3c <runEmulation+0x5cc>)
10000b28:	f8b2 e000 	ldrh.w	lr, [r2]
10000b2c:	9a04      	ldr	r2, [sp, #16]
10000b2e:	f10e 3eff 	add.w	lr, lr, #4294967295	@ 0xffffffff
10000b32:	1f11      	subs	r1, r2, #4
10000b34:	461a      	mov	r2, r3
10000b36:	4842      	ldr	r0, [pc, #264]	@ (10000c40 <runEmulation+0x5d0>)
10000b38:	4573      	cmp	r3, lr
10000b3a:	f850 0023 	ldr.w	r0, [r0, r3, lsl #2]
10000b3e:	f103 0c01 	add.w	ip, r3, #1
10000b42:	f2c0 8083 	blt.w	10000c4c <runEmulation+0x5dc>
10000b46:	6048      	str	r0, [r1, #4]
10000b48:	68f0      	ldr	r0, [r6, #12]
10000b4a:	1c51      	adds	r1, r2, #1
10000b4c:	4281      	cmp	r1, r0
10000b4e:	f080 8086 	bcs.w	10000c5e <runEmulation+0x5ee>
10000b52:	9804      	ldr	r0, [sp, #16]
10000b54:	eb00 0282 	add.w	r2, r0, r2, lsl #2
10000b58:	4839      	ldr	r0, [pc, #228]	@ (10000c40 <runEmulation+0x5d0>)
10000b5a:	3101      	adds	r1, #1
10000b5c:	f850 0023 	ldr.w	r0, [r0, r3, lsl #2]
10000b60:	f842 0f04 	str.w	r0, [r2, #4]!
10000b64:	68f0      	ldr	r0, [r6, #12]
10000b66:	4288      	cmp	r0, r1
10000b68:	d8f6      	bhi.n	10000b58 <runEmulation+0x4e8>
10000b6a:	e078      	b.n	10000c5e <runEmulation+0x5ee>
10000b6c:	b2e1      	uxtb	r1, r4
10000b6e:	f3c4 2004 	ubfx	r0, r4, #8, #5
10000b72:	f001 f80b 	bl	10001b8c <writeReSID2>
10000b76:	4a26      	ldr	r2, [pc, #152]	@ (10000c10 <runEmulation+0x5a0>)
10000b78:	f898 3000 	ldrb.w	r3, [r8]
10000b7c:	7812      	ldrb	r2, [r2, #0]
10000b7e:	e70e      	b.n	1000099e <runEmulation+0x32e>
10000b80:	3301      	adds	r3, #1
10000b82:	b2db      	uxtb	r3, r3
10000b84:	2902      	cmp	r1, #2
10000b86:	f888 3000 	strb.w	r3, [r8]
10000b8a:	f3c4 2004 	ubfx	r0, r4, #8, #5
10000b8e:	d02a      	beq.n	10000be6 <runEmulation+0x576>
10000b90:	2901      	cmp	r1, #1
10000b92:	f47f af04 	bne.w	1000099e <runEmulation+0x32e>
10000b96:	2818      	cmp	r0, #24
10000b98:	f47f af01 	bne.w	1000099e <runEmulation+0x32e>
10000b9c:	b2e4      	uxtb	r4, r4
10000b9e:	f1a4 0180 	sub.w	r1, r4, #128	@ 0x80
10000ba2:	01c9      	lsls	r1, r1, #7
10000ba4:	910c      	str	r1, [sp, #48]	@ 0x30
10000ba6:	910a      	str	r1, [sp, #40]	@ 0x28
10000ba8:	e6f9      	b.n	1000099e <runEmulation+0x32e>
10000baa:	2101      	movs	r1, #1
10000bac:	2804      	cmp	r0, #4
10000bae:	9104      	str	r1, [sp, #16]
10000bb0:	f47f af32 	bne.w	10000a18 <runEmulation+0x3a8>
10000bb4:	f004 0019 	and.w	r0, r4, #25
10000bb8:	2811      	cmp	r0, #17
10000bba:	f200 8082 	bhi.w	10000cc2 <runEmulation+0x652>
10000bbe:	e8df f010 	tbh	[pc, r0, lsl #1]
10000bc2:	00f7      	.short	0x00f7
10000bc4:	008000ba 	.word	0x008000ba
10000bc8:	00800080 	.word	0x00800080
10000bcc:	00800080 	.word	0x00800080
10000bd0:	00760080 	.word	0x00760080
10000bd4:	00800076 	.word	0x00800076
10000bd8:	00800080 	.word	0x00800080
10000bdc:	00800080 	.word	0x00800080
10000be0:	00800080 	.word	0x00800080
10000be4:	009c      	.short	0x009c
10000be6:	2818      	cmp	r0, #24
10000be8:	b2e4      	uxtb	r4, r4
10000bea:	f000 8209 	beq.w	10001000 <runEmulation+0x990>
10000bee:	f1a4 0180 	sub.w	r1, r4, #128	@ 0x80
10000bf2:	9c0a      	ldr	r4, [sp, #40]	@ 0x28
10000bf4:	01c9      	lsls	r1, r1, #7
10000bf6:	2819      	cmp	r0, #25
10000bf8:	bf08      	it	eq
10000bfa:	460c      	moveq	r4, r1
10000bfc:	940a      	str	r4, [sp, #40]	@ 0x28
10000bfe:	e6ce      	b.n	1000099e <runEmulation+0x32e>
10000c00:	4621      	mov	r1, r4
10000c02:	4630      	mov	r0, r6
10000c04:	f000 ffc2 	bl	10001b8c <writeReSID2>
10000c08:	e6ee      	b.n	100009e8 <runEmulation+0x378>
10000c0a:	bf00      	nop
10000c0c:	2001f3bb 	.word	0x2001f3bb
10000c10:	2001f3ce 	.word	0x2001f3ce
10000c14:	2000428c 	.word	0x2000428c
10000c18:	2001f3c1 	.word	0x2001f3c1
10000c1c:	20008abc 	.word	0x20008abc
10000c20:	20004088 	.word	0x20004088
10000c24:	200040a8 	.word	0x200040a8
10000c28:	20008ab8 	.word	0x20008ab8
10000c2c:	20001110 	.word	0x20001110
10000c30:	20001106 	.word	0x20001106
10000c34:	2001f3b6 	.word	0x2001f3b6
10000c38:	20001104 	.word	0x20001104
10000c3c:	2001f3b4 	.word	0x2001f3b4
10000c40:	20008460 	.word	0x20008460
10000c44:	2000845c 	.word	0x2000845c
10000c48:	20001114 	.word	0x20001114
10000c4c:	f841 0f04 	str.w	r0, [r1, #4]!
10000c50:	68f0      	ldr	r0, [r6, #12]
10000c52:	3201      	adds	r2, #1
10000c54:	4282      	cmp	r2, r0
10000c56:	fa1f f38c 	uxth.w	r3, ip
10000c5a:	f4ff af6c 	bcc.w	10000b36 <runEmulation+0x4c6>
10000c5e:	4a74      	ldr	r2, [pc, #464]	@ (10000e30 <runEmulation+0x7c0>)
10000c60:	8013      	strh	r3, [r2, #0]
10000c62:	4b74      	ldr	r3, [pc, #464]	@ (10000e34 <runEmulation+0x7c4>)
10000c64:	60b0      	str	r0, [r6, #8]
10000c66:	4631      	mov	r1, r6
10000c68:	6818      	ldr	r0, [r3, #0]
10000c6a:	f009 fc8d 	bl	1000a588 <give_audio_buffer>
10000c6e:	2300      	movs	r3, #0
10000c70:	4a71      	ldr	r2, [pc, #452]	@ (10000e38 <runEmulation+0x7c8>)
10000c72:	8013      	strh	r3, [r2, #0]
10000c74:	4a6e      	ldr	r2, [pc, #440]	@ (10000e30 <runEmulation+0x7c0>)
10000c76:	8013      	strh	r3, [r2, #0]
10000c78:	11a4      	asrs	r4, r4, #6
10000c7a:	ea84 73e4 	eor.w	r3, r4, r4, asr #31
10000c7e:	4a6f      	ldr	r2, [pc, #444]	@ (10000e3c <runEmulation+0x7cc>)
10000c80:	eba3 73e4 	sub.w	r3, r3, r4, asr #31
10000c84:	009b      	lsls	r3, r3, #2
10000c86:	fb04 f404 	mul.w	r4, r4, r4
10000c8a:	6013      	str	r3, [r2, #0]
10000c8c:	6813      	ldr	r3, [r2, #0]
10000c8e:	eb03 13a4 	add.w	r3, r3, r4, asr #6
10000c92:	6013      	str	r3, [r2, #0]
10000c94:	4b6a      	ldr	r3, [pc, #424]	@ (10000e40 <runEmulation+0x7d0>)
10000c96:	781b      	ldrb	r3, [r3, #0]
10000c98:	2b00      	cmp	r3, #0
10000c9a:	f43f ad5d 	beq.w	10000758 <runEmulation+0xe8>
10000c9e:	4969      	ldr	r1, [pc, #420]	@ (10000e44 <runEmulation+0x7d4>)
10000ca0:	4869      	ldr	r0, [pc, #420]	@ (10000e48 <runEmulation+0x7d8>)
10000ca2:	f000 fbd3 	bl	1000144c <exo_decrunch>
10000ca6:	2300      	movs	r3, #0
10000ca8:	4a65      	ldr	r2, [pc, #404]	@ (10000e40 <runEmulation+0x7d0>)
10000caa:	7013      	strb	r3, [r2, #0]
10000cac:	e554      	b.n	10000758 <runEmulation+0xe8>
10000cae:	4867      	ldr	r0, [pc, #412]	@ (10000e4c <runEmulation+0x7dc>)
10000cb0:	9904      	ldr	r1, [sp, #16]
10000cb2:	5c40      	ldrb	r0, [r0, r1]
10000cb4:	2801      	cmp	r0, #1
10000cb6:	f000 82fa 	beq.w	100012ae <runEmulation+0xc3e>
10000cba:	2000      	movs	r0, #0
10000cbc:	4e63      	ldr	r6, [pc, #396]	@ (10000e4c <runEmulation+0x7dc>)
10000cbe:	9904      	ldr	r1, [sp, #16]
10000cc0:	5470      	strb	r0, [r6, r1]
10000cc2:	f004 0449 	and.w	r4, r4, #73	@ 0x49
10000cc6:	2c41      	cmp	r4, #65	@ 0x41
10000cc8:	d027      	beq.n	10000d1a <runEmulation+0x6aa>
10000cca:	2c49      	cmp	r4, #73	@ 0x49
10000ccc:	f47f ae67 	bne.w	1000099e <runEmulation+0x32e>
10000cd0:	485f      	ldr	r0, [pc, #380]	@ (10000e50 <runEmulation+0x7e0>)
10000cd2:	9904      	ldr	r1, [sp, #16]
10000cd4:	4e5f      	ldr	r6, [pc, #380]	@ (10000e54 <runEmulation+0x7e4>)
10000cd6:	5c40      	ldrb	r0, [r0, r1]
10000cd8:	e9d6 4600 	ldrd	r4, r6, [r6]
10000cdc:	2801      	cmp	r0, #1
10000cde:	f000 8267 	beq.w	100011b0 <runEmulation+0xb40>
10000ce2:	00c9      	lsls	r1, r1, #3
10000ce4:	9109      	str	r1, [sp, #36]	@ 0x24
10000ce6:	9909      	ldr	r1, [sp, #36]	@ 0x24
10000ce8:	485b      	ldr	r0, [pc, #364]	@ (10000e58 <runEmulation+0x7e8>)
10000cea:	5044      	str	r4, [r0, r1]
10000cec:	1808      	adds	r0, r1, r0
10000cee:	6046      	str	r6, [r0, #4]
10000cf0:	2003      	movs	r0, #3
10000cf2:	4c57      	ldr	r4, [pc, #348]	@ (10000e50 <runEmulation+0x7e0>)
10000cf4:	9904      	ldr	r1, [sp, #16]
10000cf6:	5460      	strb	r0, [r4, r1]
10000cf8:	e651      	b.n	1000099e <runEmulation+0x32e>
10000cfa:	2001      	movs	r0, #1
10000cfc:	4e53      	ldr	r6, [pc, #332]	@ (10000e4c <runEmulation+0x7dc>)
10000cfe:	9904      	ldr	r1, [sp, #16]
10000d00:	f004 0449 	and.w	r4, r4, #73	@ 0x49
10000d04:	5470      	strb	r0, [r6, r1]
10000d06:	4e53      	ldr	r6, [pc, #332]	@ (10000e54 <runEmulation+0x7e4>)
10000d08:	4854      	ldr	r0, [pc, #336]	@ (10000e5c <runEmulation+0x7ec>)
10000d0a:	ed96 7b00 	vldr	d7, [r6]
10000d0e:	eb00 00c1 	add.w	r0, r0, r1, lsl #3
10000d12:	2c41      	cmp	r4, #65	@ 0x41
10000d14:	ed80 7b00 	vstr	d7, [r0]
10000d18:	d1d7      	bne.n	10000cca <runEmulation+0x65a>
10000d1a:	484d      	ldr	r0, [pc, #308]	@ (10000e50 <runEmulation+0x7e0>)
10000d1c:	9904      	ldr	r1, [sp, #16]
10000d1e:	5c40      	ldrb	r0, [r0, r1]
10000d20:	2802      	cmp	r0, #2
10000d22:	f000 81c4 	beq.w	100010ae <runEmulation+0xa3e>
10000d26:	2804      	cmp	r0, #4
10000d28:	f000 81c1 	beq.w	100010ae <runEmulation+0xa3e>
10000d2c:	2000      	movs	r0, #0
10000d2e:	4c48      	ldr	r4, [pc, #288]	@ (10000e50 <runEmulation+0x7e0>)
10000d30:	9904      	ldr	r1, [sp, #16]
10000d32:	5460      	strb	r0, [r4, r1]
10000d34:	e633      	b.n	1000099e <runEmulation+0x32e>
10000d36:	4845      	ldr	r0, [pc, #276]	@ (10000e4c <runEmulation+0x7dc>)
10000d38:	9904      	ldr	r1, [sp, #16]
10000d3a:	5c40      	ldrb	r0, [r0, r1]
10000d3c:	2805      	cmp	r0, #5
10000d3e:	f000 82dd 	beq.w	100012fc <runEmulation+0xc8c>
10000d42:	2807      	cmp	r0, #7
10000d44:	d1b9      	bne.n	10000cba <runEmulation+0x64a>
10000d46:	460e      	mov	r6, r1
10000d48:	4842      	ldr	r0, [pc, #264]	@ (10000e54 <runEmulation+0x7e4>)
10000d4a:	6801      	ldr	r1, [r0, #0]
10000d4c:	4843      	ldr	r0, [pc, #268]	@ (10000e5c <runEmulation+0x7ec>)
10000d4e:	f850 0036 	ldr.w	r0, [r0, r6, lsl #3]
10000d52:	1a08      	subs	r0, r1, r0
10000d54:	9009      	str	r0, [sp, #36]	@ 0x24
10000d56:	4841      	ldr	r0, [pc, #260]	@ (10000e5c <runEmulation+0x7ec>)
10000d58:	eb00 0ec6 	add.w	lr, r0, r6, lsl #3
10000d5c:	483d      	ldr	r0, [pc, #244]	@ (10000e54 <runEmulation+0x7e4>)
10000d5e:	9e09      	ldr	r6, [sp, #36]	@ 0x24
10000d60:	f8d0 c004 	ldr.w	ip, [r0, #4]
10000d64:	f8de 0004 	ldr.w	r0, [lr, #4]
10000d68:	eb6c 0000 	sbc.w	r0, ip, r0
10000d6c:	2e16      	cmp	r6, #22
10000d6e:	f170 0000 	sbcs.w	r0, r0, #0
10000d72:	d2a2      	bcs.n	10000cba <runEmulation+0x64a>
10000d74:	483a      	ldr	r0, [pc, #232]	@ (10000e60 <runEmulation+0x7f0>)
10000d76:	9e04      	ldr	r6, [sp, #16]
10000d78:	ed9f 7b2b 	vldr	d7, [pc, #172]	@ 10000e28 <runEmulation+0x7b8>
10000d7c:	f840 1036 	str.w	r1, [r0, r6, lsl #3]
10000d80:	2600      	movs	r6, #0
10000d82:	4832      	ldr	r0, [pc, #200]	@ (10000e4c <runEmulation+0x7dc>)
10000d84:	9904      	ldr	r1, [sp, #16]
10000d86:	ed8e 7b00 	vstr	d7, [lr]
10000d8a:	5446      	strb	r6, [r0, r1]
10000d8c:	f04f 0102 	mov.w	r1, #2
10000d90:	9804      	ldr	r0, [sp, #16]
10000d92:	4e34      	ldr	r6, [pc, #208]	@ (10000e64 <runEmulation+0x7f4>)
10000d94:	5431      	strb	r1, [r6, r0]
10000d96:	2102      	movs	r1, #2
10000d98:	910e      	str	r1, [sp, #56]	@ 0x38
10000d9a:	4601      	mov	r1, r0
10000d9c:	4e32      	ldr	r6, [pc, #200]	@ (10000e68 <runEmulation+0x7f8>)
10000d9e:	5c30      	ldrb	r0, [r6, r0]
10000da0:	4e32      	ldr	r6, [pc, #200]	@ (10000e6c <runEmulation+0x7fc>)
10000da2:	5470      	strb	r0, [r6, r1]
10000da4:	482e      	ldr	r0, [pc, #184]	@ (10000e60 <runEmulation+0x7f0>)
10000da6:	eb00 00c1 	add.w	r0, r0, r1, lsl #3
10000daa:	f8c0 c004 	str.w	ip, [r0, #4]
10000dae:	e788      	b.n	10000cc2 <runEmulation+0x652>
10000db0:	4826      	ldr	r0, [pc, #152]	@ (10000e4c <runEmulation+0x7dc>)
10000db2:	9904      	ldr	r1, [sp, #16]
10000db4:	5c40      	ldrb	r0, [r0, r1]
10000db6:	2807      	cmp	r0, #7
10000db8:	f47f adf1 	bne.w	1000099e <runEmulation+0x32e>
10000dbc:	4825      	ldr	r0, [pc, #148]	@ (10000e54 <runEmulation+0x7e4>)
10000dbe:	4e27      	ldr	r6, [pc, #156]	@ (10000e5c <runEmulation+0x7ec>)
10000dc0:	4601      	mov	r1, r0
10000dc2:	6804      	ldr	r4, [r0, #0]
10000dc4:	9804      	ldr	r0, [sp, #16]
10000dc6:	f8d1 e004 	ldr.w	lr, [r1, #4]
10000dca:	f856 0030 	ldr.w	r0, [r6, r0, lsl #3]
10000dce:	ebb4 0c00 	subs.w	ip, r4, r0
10000dd2:	9804      	ldr	r0, [sp, #16]
10000dd4:	eb06 06c0 	add.w	r6, r6, r0, lsl #3
10000dd8:	6870      	ldr	r0, [r6, #4]
10000dda:	eb6e 0000 	sbc.w	r0, lr, r0
10000dde:	f1bc 0f16 	cmp.w	ip, #22
10000de2:	f170 0000 	sbcs.w	r0, r0, #0
10000de6:	f4bf adda 	bcs.w	1000099e <runEmulation+0x32e>
10000dea:	9904      	ldr	r1, [sp, #16]
10000dec:	481c      	ldr	r0, [pc, #112]	@ (10000e60 <runEmulation+0x7f0>)
10000dee:	f04f 0c02 	mov.w	ip, #2
10000df2:	f840 4031 	str.w	r4, [r0, r1, lsl #3]
10000df6:	2400      	movs	r4, #0
10000df8:	4814      	ldr	r0, [pc, #80]	@ (10000e4c <runEmulation+0x7dc>)
10000dfa:	f8cd c038 	str.w	ip, [sp, #56]	@ 0x38
10000dfe:	5444      	strb	r4, [r0, r1]
10000e00:	4c18      	ldr	r4, [pc, #96]	@ (10000e64 <runEmulation+0x7f4>)
10000e02:	f804 c001 	strb.w	ip, [r4, r1]
10000e06:	4c18      	ldr	r4, [pc, #96]	@ (10000e68 <runEmulation+0x7f8>)
10000e08:	5c60      	ldrb	r0, [r4, r1]
10000e0a:	4c18      	ldr	r4, [pc, #96]	@ (10000e6c <runEmulation+0x7fc>)
10000e0c:	5460      	strb	r0, [r4, r1]
10000e0e:	4814      	ldr	r0, [pc, #80]	@ (10000e60 <runEmulation+0x7f0>)
10000e10:	eb00 01c1 	add.w	r1, r0, r1, lsl #3
10000e14:	f8c1 e004 	str.w	lr, [r1, #4]
10000e18:	2000      	movs	r0, #0
10000e1a:	2100      	movs	r1, #0
10000e1c:	e9c6 0100 	strd	r0, r1, [r6]
10000e20:	e5bd      	b.n	1000099e <runEmulation+0x32e>
10000e22:	bf00      	nop
10000e24:	f3af 8000 	nop.w
	...
10000e30:	2001f3b2 	.word	0x2001f3b2
10000e34:	2000845c 	.word	0x2000845c
10000e38:	2001f3b4 	.word	0x2001f3b4
10000e3c:	20008ae8 	.word	0x20008ae8
10000e40:	2001f3c6 	.word	0x2001f3c6
10000e44:	2000dde4 	.word	0x2000dde4
10000e48:	1000ea9b 	.word	0x1000ea9b
10000e4c:	20008ac4 	.word	0x20008ac4
10000e50:	20008abc 	.word	0x20008abc
10000e54:	20004088 	.word	0x20004088
10000e58:	200040a8 	.word	0x200040a8
10000e5c:	200040c0 	.word	0x200040c0
10000e60:	20004090 	.word	0x20004090
10000e64:	20008ab4 	.word	0x20008ab4
10000e68:	20008ac0 	.word	0x20008ac0
10000e6c:	2001e984 	.word	0x2001e984
10000e70:	46b2      	mov	sl, r6
10000e72:	46a3      	mov	fp, r4
10000e74:	e9d7 2300 	ldrd	r2, r3, [r7]
10000e78:	4552      	cmp	r2, sl
10000e7a:	eb73 030b 	sbcs.w	r3, r3, fp
10000e7e:	f080 80aa 	bcs.w	10000fd6 <runEmulation+0x966>
10000e82:	4ba3      	ldr	r3, [pc, #652]	@ (10001110 <runEmulation+0xaa0>)
10000e84:	781b      	ldrb	r3, [r3, #0]
10000e86:	2b00      	cmp	r3, #0
10000e88:	d032      	beq.n	10000ef0 <runEmulation+0x880>
10000e8a:	49a2      	ldr	r1, [pc, #648]	@ (10001114 <runEmulation+0xaa4>)
10000e8c:	4ca2      	ldr	r4, [pc, #648]	@ (10001118 <runEmulation+0xaa8>)
10000e8e:	680b      	ldr	r3, [r1, #0]
10000e90:	6822      	ldr	r2, [r4, #0]
10000e92:	1a98      	subs	r0, r3, r2
10000e94:	684a      	ldr	r2, [r1, #4]
10000e96:	6861      	ldr	r1, [r4, #4]
10000e98:	eb62 0101 	sbc.w	r1, r2, r1
10000e9c:	28fb      	cmp	r0, #251	@ 0xfb
10000e9e:	f171 0100 	sbcs.w	r1, r1, #0
10000ea2:	f080 81fa 	bcs.w	1000129a <runEmulation+0xc2a>
10000ea6:	4c9c      	ldr	r4, [pc, #624]	@ (10001118 <runEmulation+0xaa8>)
10000ea8:	68a1      	ldr	r1, [r4, #8]
10000eaa:	1a58      	subs	r0, r3, r1
10000eac:	68e1      	ldr	r1, [r4, #12]
10000eae:	eb62 0101 	sbc.w	r1, r2, r1
10000eb2:	28fb      	cmp	r0, #251	@ 0xfb
10000eb4:	f171 0100 	sbcs.w	r1, r1, #0
10000eb8:	f080 81e5 	bcs.w	10001286 <runEmulation+0xc16>
10000ebc:	4896      	ldr	r0, [pc, #600]	@ (10001118 <runEmulation+0xaa8>)
10000ebe:	6901      	ldr	r1, [r0, #16]
10000ec0:	1a5b      	subs	r3, r3, r1
10000ec2:	6941      	ldr	r1, [r0, #20]
10000ec4:	eb62 0201 	sbc.w	r2, r2, r1
10000ec8:	2bfb      	cmp	r3, #251	@ 0xfb
10000eca:	f172 0200 	sbcs.w	r2, r2, #0
10000ece:	f080 81d3 	bcs.w	10001278 <runEmulation+0xc08>
10000ed2:	4b92      	ldr	r3, [pc, #584]	@ (1000111c <runEmulation+0xaac>)
10000ed4:	781b      	ldrb	r3, [r3, #0]
10000ed6:	2b00      	cmp	r3, #0
10000ed8:	f040 81c3 	bne.w	10001262 <runEmulation+0xbf2>
10000edc:	4b8f      	ldr	r3, [pc, #572]	@ (1000111c <runEmulation+0xaac>)
10000ede:	785b      	ldrb	r3, [r3, #1]
10000ee0:	2b00      	cmp	r3, #0
10000ee2:	f040 81b3 	bne.w	1000124c <runEmulation+0xbdc>
10000ee6:	4b8d      	ldr	r3, [pc, #564]	@ (1000111c <runEmulation+0xaac>)
10000ee8:	789b      	ldrb	r3, [r3, #2]
10000eea:	2b00      	cmp	r3, #0
10000eec:	f040 81a3 	bne.w	10001236 <runEmulation+0xbc6>
10000ef0:	e9d7 0100 	ldrd	r0, r1, [r7]
10000ef4:	4b8a      	ldr	r3, [pc, #552]	@ (10001120 <runEmulation+0xab0>)
10000ef6:	e9c7 ab00 	strd	sl, fp, [r7]
10000efa:	781b      	ldrb	r3, [r3, #0]
10000efc:	ebba 0000 	subs.w	r0, sl, r0
10000f00:	2b00      	cmp	r3, #0
10000f02:	f000 8081 	beq.w	10001008 <runEmulation+0x998>
10000f06:	f000 fe2f 	bl	10001b68 <emulateCyclesReSIDSingle>
10000f0a:	4b86      	ldr	r3, [pc, #536]	@ (10001124 <runEmulation+0xab4>)
10000f0c:	4886      	ldr	r0, [pc, #536]	@ (10001128 <runEmulation+0xab8>)
10000f0e:	6819      	ldr	r1, [r3, #0]
10000f10:	311b      	adds	r1, #27
10000f12:	f000 febb 	bl	10001c8c <readRegs>
10000f16:	f64f 73fe 	movw	r3, #65534	@ 0xfffe
10000f1a:	4a84      	ldr	r2, [pc, #528]	@ (1000112c <runEmulation+0xabc>)
10000f1c:	6812      	ldr	r2, [r2, #0]
10000f1e:	429a      	cmp	r2, r3
10000f20:	f47f ac15 	bne.w	1000074e <runEmulation+0xde>
10000f24:	9b03      	ldr	r3, [sp, #12]
10000f26:	781b      	ldrb	r3, [r3, #0]
10000f28:	2b00      	cmp	r3, #0
10000f2a:	f47f ada8 	bne.w	10000a7e <runEmulation+0x40e>
10000f2e:	4b7c      	ldr	r3, [pc, #496]	@ (10001120 <runEmulation+0xab0>)
10000f30:	781b      	ldrb	r3, [r3, #0]
10000f32:	2b00      	cmp	r3, #0
10000f34:	d05a      	beq.n	10000fec <runEmulation+0x97c>
10000f36:	2201      	movs	r2, #1
10000f38:	9806      	ldr	r0, [sp, #24]
10000f3a:	a915      	add	r1, sp, #84	@ 0x54
10000f3c:	f001 ff9e 	bl	10002e7c <ym3812_update_one>
10000f40:	4b7b      	ldr	r3, [pc, #492]	@ (10001130 <runEmulation+0xac0>)
10000f42:	781b      	ldrb	r3, [r3, #0]
10000f44:	2b00      	cmp	r3, #0
10000f46:	f040 816e 	bne.w	10001226 <runEmulation+0xbb6>
10000f4a:	9a15      	ldr	r2, [sp, #84]	@ 0x54
10000f4c:	4979      	ldr	r1, [pc, #484]	@ (10001134 <runEmulation+0xac4>)
10000f4e:	a812      	add	r0, sp, #72	@ 0x48
10000f50:	9100      	str	r1, [sp, #0]
10000f52:	f10d 014a 	add.w	r1, sp, #74	@ 0x4a
10000f56:	f000 fe5f 	bl	10001c18 <outputReSIDFM>
10000f5a:	f9bd 1048 	ldrsh.w	r1, [sp, #72]	@ 0x48
10000f5e:	f9bd 004a 	ldrsh.w	r0, [sp, #74]	@ 0x4a
10000f62:	e594      	b.n	10000a8e <runEmulation+0x41e>
10000f64:	4874      	ldr	r0, [pc, #464]	@ (10001138 <runEmulation+0xac8>)
10000f66:	9904      	ldr	r1, [sp, #16]
10000f68:	5c40      	ldrb	r0, [r0, r1]
10000f6a:	2805      	cmp	r0, #5
10000f6c:	d04f      	beq.n	1000100e <runEmulation+0x99e>
10000f6e:	2806      	cmp	r0, #6
10000f70:	f47f ad15 	bne.w	1000099e <runEmulation+0x32e>
10000f74:	4867      	ldr	r0, [pc, #412]	@ (10001114 <runEmulation+0xaa4>)
10000f76:	4e71      	ldr	r6, [pc, #452]	@ (1000113c <runEmulation+0xacc>)
10000f78:	f8d0 c000 	ldr.w	ip, [r0]
10000f7c:	f856 6031 	ldr.w	r6, [r6, r1, lsl #3]
10000f80:	ebbc 0606 	subs.w	r6, ip, r6
10000f84:	960b      	str	r6, [sp, #44]	@ 0x2c
10000f86:	4e6d      	ldr	r6, [pc, #436]	@ (1000113c <runEmulation+0xacc>)
10000f88:	eb06 0ec1 	add.w	lr, r6, r1, lsl #3
10000f8c:	6841      	ldr	r1, [r0, #4]
10000f8e:	9e0b      	ldr	r6, [sp, #44]	@ 0x2c
10000f90:	f8de 0004 	ldr.w	r0, [lr, #4]
10000f94:	9109      	str	r1, [sp, #36]	@ 0x24
10000f96:	eb61 0000 	sbc.w	r0, r1, r0
10000f9a:	2e16      	cmp	r6, #22
10000f9c:	f170 0000 	sbcs.w	r0, r0, #0
10000fa0:	f4bf acfd 	bcs.w	1000099e <runEmulation+0x32e>
10000fa4:	9904      	ldr	r1, [sp, #16]
10000fa6:	4866      	ldr	r0, [pc, #408]	@ (10001140 <runEmulation+0xad0>)
10000fa8:	4e5b      	ldr	r6, [pc, #364]	@ (10001118 <runEmulation+0xaa8>)
10000faa:	5444      	strb	r4, [r0, r1]
10000fac:	2400      	movs	r4, #0
10000fae:	f846 c031 	str.w	ip, [r6, r1, lsl #3]
10000fb2:	f04f 0c02 	mov.w	ip, #2
10000fb6:	4860      	ldr	r0, [pc, #384]	@ (10001138 <runEmulation+0xac8>)
10000fb8:	f8cd c038 	str.w	ip, [sp, #56]	@ 0x38
10000fbc:	5444      	strb	r4, [r0, r1]
10000fbe:	4857      	ldr	r0, [pc, #348]	@ (1000111c <runEmulation+0xaac>)
10000fc0:	f800 c001 	strb.w	ip, [r0, r1]
10000fc4:	9809      	ldr	r0, [sp, #36]	@ 0x24
10000fc6:	eb06 01c1 	add.w	r1, r6, r1, lsl #3
10000fca:	6048      	str	r0, [r1, #4]
10000fcc:	2000      	movs	r0, #0
10000fce:	2100      	movs	r1, #0
10000fd0:	e9ce 0100 	strd	r0, r1, [lr]
10000fd4:	e4e3      	b.n	1000099e <runEmulation+0x32e>
10000fd6:	f64f 73fe 	movw	r3, #65534	@ 0xfffe
10000fda:	4a54      	ldr	r2, [pc, #336]	@ (1000112c <runEmulation+0xabc>)
10000fdc:	6812      	ldr	r2, [r2, #0]
10000fde:	429a      	cmp	r2, r3
10000fe0:	f47f abb5 	bne.w	1000074e <runEmulation+0xde>
10000fe4:	4b4e      	ldr	r3, [pc, #312]	@ (10001120 <runEmulation+0xab0>)
10000fe6:	781b      	ldrb	r3, [r3, #0]
10000fe8:	2b00      	cmp	r3, #0
10000fea:	d1a4      	bne.n	10000f36 <runEmulation+0x8c6>
10000fec:	f10d 014a 	add.w	r1, sp, #74	@ 0x4a
10000ff0:	a812      	add	r0, sp, #72	@ 0x48
10000ff2:	f000 fddf 	bl	10001bb4 <outputReSID>
10000ff6:	f9bd 1048 	ldrsh.w	r1, [sp, #72]	@ 0x48
10000ffa:	f9bd 004a 	ldrsh.w	r0, [sp, #74]	@ 0x4a
10000ffe:	e546      	b.n	10000a8e <runEmulation+0x41e>
10001000:	3c80      	subs	r4, #128	@ 0x80
10001002:	01e1      	lsls	r1, r4, #7
10001004:	910c      	str	r1, [sp, #48]	@ 0x30
10001006:	e4ca      	b.n	1000099e <runEmulation+0x32e>
10001008:	f000 fd9a 	bl	10001b40 <emulateCyclesReSID>
1000100c:	e77d      	b.n	10000f0a <runEmulation+0x89a>
1000100e:	460e      	mov	r6, r1
10001010:	4840      	ldr	r0, [pc, #256]	@ (10001114 <runEmulation+0xaa4>)
10001012:	4601      	mov	r1, r0
10001014:	f8d0 c000 	ldr.w	ip, [r0]
10001018:	4848      	ldr	r0, [pc, #288]	@ (1000113c <runEmulation+0xacc>)
1000101a:	6849      	ldr	r1, [r1, #4]
1000101c:	f850 6036 	ldr.w	r6, [r0, r6, lsl #3]
10001020:	ebbc 0606 	subs.w	r6, ip, r6
10001024:	9609      	str	r6, [sp, #36]	@ 0x24
10001026:	9e04      	ldr	r6, [sp, #16]
10001028:	eb00 0ec6 	add.w	lr, r0, r6, lsl #3
1000102c:	f8de 0004 	ldr.w	r0, [lr, #4]
10001030:	9e09      	ldr	r6, [sp, #36]	@ 0x24
10001032:	eb61 0000 	sbc.w	r0, r1, r0
10001036:	2e16      	cmp	r6, #22
10001038:	f170 0000 	sbcs.w	r0, r0, #0
1000103c:	f4bf acaf 	bcs.w	1000099e <runEmulation+0x32e>
10001040:	9e04      	ldr	r6, [sp, #16]
10001042:	483e      	ldr	r0, [pc, #248]	@ (1000113c <runEmulation+0xacc>)
10001044:	f840 c036 	str.w	ip, [r0, r6, lsl #3]
10001048:	483e      	ldr	r0, [pc, #248]	@ (10001144 <runEmulation+0xad4>)
1000104a:	f8ce 1004 	str.w	r1, [lr, #4]
1000104e:	5584      	strb	r4, [r0, r6]
10001050:	2007      	movs	r0, #7
10001052:	4c39      	ldr	r4, [pc, #228]	@ (10001138 <runEmulation+0xac8>)
10001054:	55a0      	strb	r0, [r4, r6]
10001056:	e4a2      	b.n	1000099e <runEmulation+0x32e>
10001058:	4e3b      	ldr	r6, [pc, #236]	@ (10001148 <runEmulation+0xad8>)
1000105a:	9904      	ldr	r1, [sp, #16]
1000105c:	f856 0031 	ldr.w	r0, [r6, r1, lsl #3]
10001060:	990b      	ldr	r1, [sp, #44]	@ 0x2c
10001062:	1a08      	subs	r0, r1, r0
10001064:	9904      	ldr	r1, [sp, #16]
10001066:	900f      	str	r0, [sp, #60]	@ 0x3c
10001068:	eb06 00c1 	add.w	r0, r6, r1, lsl #3
1000106c:	6840      	ldr	r0, [r0, #4]
1000106e:	ea4f 01c1 	mov.w	r1, r1, lsl #3
10001072:	eb6c 0e00 	sbc.w	lr, ip, r0
10001076:	980f      	ldr	r0, [sp, #60]	@ 0x3c
10001078:	9109      	str	r1, [sp, #36]	@ 0x24
1000107a:	2816      	cmp	r0, #22
1000107c:	f17e 0e00 	sbcs.w	lr, lr, #0
10001080:	f0c0 80b6 	bcc.w	100011f0 <runEmulation+0xb80>
10001084:	f04f 0e01 	mov.w	lr, #1
10001088:	4608      	mov	r0, r1
1000108a:	e4db      	b.n	10000a44 <runEmulation+0x3d4>
1000108c:	f000 fa7e 	bl	1000158c <setDefaultConfiguration>
10001090:	2304      	movs	r3, #4
10001092:	4a2e      	ldr	r2, [pc, #184]	@ (1000114c <runEmulation+0xadc>)
10001094:	f882 3038 	strb.w	r3, [r2, #56]	@ 0x38
10001098:	f640 4303 	movw	r3, #3075	@ 0xc03
1000109c:	86d3      	strh	r3, [r2, #54]	@ 0x36
1000109e:	f7ff fa79 	bl	10000594 <writeConfiguration>
100010a2:	2200      	movs	r2, #0
100010a4:	4611      	mov	r1, r2
100010a6:	4610      	mov	r0, r2
100010a8:	f005 fc3c 	bl	10006924 <watchdog_reboot>
100010ac:	e408      	b.n	100008c0 <runEmulation+0x250>
100010ae:	4819      	ldr	r0, [pc, #100]	@ (10001114 <runEmulation+0xaa4>)
100010b0:	4c25      	ldr	r4, [pc, #148]	@ (10001148 <runEmulation+0xad8>)
100010b2:	9904      	ldr	r1, [sp, #16]
100010b4:	6806      	ldr	r6, [r0, #0]
100010b6:	4817      	ldr	r0, [pc, #92]	@ (10001114 <runEmulation+0xaa4>)
100010b8:	eb04 0cc1 	add.w	ip, r4, r1, lsl #3
100010bc:	f854 4031 	ldr.w	r4, [r4, r1, lsl #3]
100010c0:	f8d0 e004 	ldr.w	lr, [r0, #4]
100010c4:	f8dc 0004 	ldr.w	r0, [ip, #4]
100010c8:	1b34      	subs	r4, r6, r4
100010ca:	eb6e 0000 	sbc.w	r0, lr, r0
100010ce:	2c16      	cmp	r4, #22
100010d0:	f170 0000 	sbcs.w	r0, r0, #0
100010d4:	f4bf ae2a 	bcs.w	10000d2c <runEmulation+0x6bc>
100010d8:	2400      	movs	r4, #0
100010da:	480f      	ldr	r0, [pc, #60]	@ (10001118 <runEmulation+0xaa8>)
100010dc:	f840 6031 	str.w	r6, [r0, r1, lsl #3]
100010e0:	2001      	movs	r0, #1
100010e2:	4e1b      	ldr	r6, [pc, #108]	@ (10001150 <runEmulation+0xae0>)
100010e4:	900e      	str	r0, [sp, #56]	@ 0x38
100010e6:	5474      	strb	r4, [r6, r1]
100010e8:	4c0c      	ldr	r4, [pc, #48]	@ (1000111c <runEmulation+0xaac>)
100010ea:	5460      	strb	r0, [r4, r1]
100010ec:	4c19      	ldr	r4, [pc, #100]	@ (10001154 <runEmulation+0xae4>)
100010ee:	5c60      	ldrb	r0, [r4, r1]
100010f0:	4c13      	ldr	r4, [pc, #76]	@ (10001140 <runEmulation+0xad0>)
100010f2:	5460      	strb	r0, [r4, r1]
100010f4:	4808      	ldr	r0, [pc, #32]	@ (10001118 <runEmulation+0xaa8>)
100010f6:	eb00 01c1 	add.w	r1, r0, r1, lsl #3
100010fa:	f8c1 e004 	str.w	lr, [r1, #4]
100010fe:	2000      	movs	r0, #0
10001100:	2100      	movs	r1, #0
10001102:	e9cc 0100 	strd	r0, r1, [ip]
10001106:	e44a      	b.n	1000099e <runEmulation+0x32e>
10001108:	2200      	movs	r2, #0
1000110a:	4e13      	ldr	r6, [pc, #76]	@ (10001158 <runEmulation+0xae8>)
1000110c:	8032      	strh	r2, [r6, #0]
1000110e:	e4e3      	b.n	10000ad8 <runEmulation+0x468>
10001110:	2001f3c1 	.word	0x2001f3c1
10001114:	20004088 	.word	0x20004088
10001118:	20004090 	.word	0x20004090
1000111c:	20008ab4 	.word	0x20008ab4
10001120:	2001f3bb 	.word	0x2001f3bb
10001124:	2000110c 	.word	0x2000110c
10001128:	20008b1f 	.word	0x20008b1f
1000112c:	20001110 	.word	0x20001110
10001130:	2001f3c9 	.word	0x2001f3c9
10001134:	20008ad4 	.word	0x20008ad4
10001138:	20008ac4 	.word	0x20008ac4
1000113c:	200040c0 	.word	0x200040c0
10001140:	2001e984 	.word	0x2001e984
10001144:	20008ac0 	.word	0x20008ac0
10001148:	200040a8 	.word	0x200040a8
1000114c:	20008a08 	.word	0x20008a08
10001150:	20008abc 	.word	0x20008abc
10001154:	20008ab8 	.word	0x20008ab8
10001158:	20001106 	.word	0x20001106
1000115c:	2201      	movs	r2, #1
1000115e:	2620      	movs	r6, #32
10001160:	4983      	ldr	r1, [pc, #524]	@ (10001370 <runEmulation+0xd00>)
10001162:	f10d 0e54 	add.w	lr, sp, #84	@ 0x54
10001166:	f891 3038 	ldrb.w	r3, [r1, #56]	@ 0x38
1000116a:	f8df c240 	ldr.w	ip, [pc, #576]	@ 100013ac <runEmulation+0xd3c>
1000116e:	f003 0303 	and.w	r3, r3, #3
10001172:	fb13 2404 	smlabb	r4, r3, r4, r2
10001176:	4a7f      	ldr	r2, [pc, #508]	@ (10001374 <runEmulation+0xd04>)
10001178:	eb03 0343 	add.w	r3, r3, r3, lsl #1
1000117c:	ca07      	ldmia	r2, {r0, r1, r2}
1000117e:	e88e 0007 	stmia.w	lr, {r0, r1, r2}
10001182:	4433      	add	r3, r6
10001184:	446b      	add	r3, sp
10001186:	f893 3034 	ldrb.w	r3, [r3, #52]	@ 0x34
1000118a:	4979      	ldr	r1, [pc, #484]	@ (10001370 <runEmulation+0xd00>)
1000118c:	f881 3038 	strb.w	r3, [r1, #56]	@ 0x38
10001190:	00db      	lsls	r3, r3, #3
10001192:	f83e 2004 	ldrh.w	r2, [lr, r4]
10001196:	409e      	lsls	r6, r3
10001198:	4b77      	ldr	r3, [pc, #476]	@ (10001378 <runEmulation+0xd08>)
1000119a:	86ca      	strh	r2, [r1, #54]	@ 0x36
1000119c:	615e      	str	r6, [r3, #20]
1000119e:	4660      	mov	r0, ip
100011a0:	f1a0 0001 	sub.w	r0, r0, #1
100011a4:	d1fc      	bne.n	100011a0 <runEmulation+0xb30>
100011a6:	e77a      	b.n	1000109e <runEmulation+0xa2e>
100011a8:	2001      	movs	r0, #1
100011aa:	f009 f831 	bl	1000a210 <audio_i2s_set_enabled>
100011ae:	e4b0      	b.n	10000b12 <runEmulation+0x4a2>
100011b0:	4872      	ldr	r0, [pc, #456]	@ (1000137c <runEmulation+0xd0c>)
100011b2:	f850 0031 	ldr.w	r0, [r0, r1, lsl #3]
100011b6:	1a20      	subs	r0, r4, r0
100011b8:	900b      	str	r0, [sp, #44]	@ 0x2c
100011ba:	4870      	ldr	r0, [pc, #448]	@ (1000137c <runEmulation+0xd0c>)
100011bc:	eb00 0ec1 	add.w	lr, r0, r1, lsl #3
100011c0:	f8de 0004 	ldr.w	r0, [lr, #4]
100011c4:	ea4f 01c1 	mov.w	r1, r1, lsl #3
100011c8:	eb66 0c00 	sbc.w	ip, r6, r0
100011cc:	980b      	ldr	r0, [sp, #44]	@ 0x2c
100011ce:	9109      	str	r1, [sp, #36]	@ 0x24
100011d0:	2816      	cmp	r0, #22
100011d2:	f17c 0c00 	sbcs.w	ip, ip, #0
100011d6:	f4bf ad86 	bcs.w	10000ce6 <runEmulation+0x676>
100011da:	4868      	ldr	r0, [pc, #416]	@ (1000137c <runEmulation+0xd0c>)
100011dc:	9904      	ldr	r1, [sp, #16]
100011de:	f840 4031 	str.w	r4, [r0, r1, lsl #3]
100011e2:	2002      	movs	r0, #2
100011e4:	4c66      	ldr	r4, [pc, #408]	@ (10001380 <runEmulation+0xd10>)
100011e6:	f8ce 6004 	str.w	r6, [lr, #4]
100011ea:	5460      	strb	r0, [r4, r1]
100011ec:	f7ff bbd7 	b.w	1000099e <runEmulation+0x32e>
100011f0:	f04f 0e04 	mov.w	lr, #4
100011f4:	4608      	mov	r0, r1
100011f6:	e425      	b.n	10000a44 <runEmulation+0x3d4>
100011f8:	4a62      	ldr	r2, [pc, #392]	@ (10001384 <runEmulation+0xd14>)
100011fa:	7651      	strb	r1, [r2, #25]
100011fc:	7693      	strb	r3, [r2, #26]
100011fe:	f7ff bb4f 	b.w	100008a0 <runEmulation+0x230>
10001202:	eba6 0c02 	sub.w	ip, r6, r2
10001206:	45a4      	cmp	ip, r4
10001208:	9c04      	ldr	r4, [sp, #16]
1000120a:	eba3 0c01 	sub.w	ip, r3, r1
1000120e:	bfc8      	it	gt
10001210:	1812      	addgt	r2, r2, r0
10001212:	45a4      	cmp	ip, r4
10001214:	f73f ab20 	bgt.w	10000858 <runEmulation+0x1e8>
10001218:	eba1 0c03 	sub.w	ip, r1, r3
1000121c:	45a4      	cmp	ip, r4
1000121e:	bfc8      	it	gt
10001220:	181b      	addgt	r3, r3, r0
10001222:	f7ff bb1a 	b.w	1000085a <runEmulation+0x1ea>
10001226:	4958      	ldr	r1, [pc, #352]	@ (10001388 <runEmulation+0xd18>)
10001228:	784a      	ldrb	r2, [r1, #1]
1000122a:	7809      	ldrb	r1, [r1, #0]
1000122c:	0152      	lsls	r2, r2, #5
1000122e:	eb02 1241 	add.w	r2, r2, r1, lsl #5
10001232:	9215      	str	r2, [sp, #84]	@ 0x54
10001234:	e68a      	b.n	10000f4c <runEmulation+0x8dc>
10001236:	4b55      	ldr	r3, [pc, #340]	@ (1000138c <runEmulation+0xd1c>)
10001238:	2002      	movs	r0, #2
1000123a:	7899      	ldrb	r1, [r3, #2]
1000123c:	9b0e      	ldr	r3, [sp, #56]	@ 0x38
1000123e:	3980      	subs	r1, #128	@ 0x80
10001240:	ea43 2101 	orr.w	r1, r3, r1, lsl #8
10001244:	b209      	sxth	r1, r1
10001246:	f000 fcab 	bl	10001ba0 <outputDigi>
1000124a:	e651      	b.n	10000ef0 <runEmulation+0x880>
1000124c:	4b4f      	ldr	r3, [pc, #316]	@ (1000138c <runEmulation+0xd1c>)
1000124e:	2001      	movs	r0, #1
10001250:	7859      	ldrb	r1, [r3, #1]
10001252:	9b0e      	ldr	r3, [sp, #56]	@ 0x38
10001254:	3980      	subs	r1, #128	@ 0x80
10001256:	ea43 2101 	orr.w	r1, r3, r1, lsl #8
1000125a:	b209      	sxth	r1, r1
1000125c:	f000 fca0 	bl	10001ba0 <outputDigi>
10001260:	e641      	b.n	10000ee6 <runEmulation+0x876>
10001262:	4b4a      	ldr	r3, [pc, #296]	@ (1000138c <runEmulation+0xd1c>)
10001264:	2000      	movs	r0, #0
10001266:	7819      	ldrb	r1, [r3, #0]
10001268:	9b0e      	ldr	r3, [sp, #56]	@ 0x38
1000126a:	3980      	subs	r1, #128	@ 0x80
1000126c:	ea43 2101 	orr.w	r1, r3, r1, lsl #8
10001270:	b209      	sxth	r1, r1
10001272:	f000 fc95 	bl	10001ba0 <outputDigi>
10001276:	e631      	b.n	10000edc <runEmulation+0x86c>
10001278:	2100      	movs	r1, #0
1000127a:	4b45      	ldr	r3, [pc, #276]	@ (10001390 <runEmulation+0xd20>)
1000127c:	2002      	movs	r0, #2
1000127e:	7099      	strb	r1, [r3, #2]
10001280:	f000 fc8e 	bl	10001ba0 <outputDigi>
10001284:	e625      	b.n	10000ed2 <runEmulation+0x862>
10001286:	2100      	movs	r1, #0
10001288:	4b41      	ldr	r3, [pc, #260]	@ (10001390 <runEmulation+0xd20>)
1000128a:	2001      	movs	r0, #1
1000128c:	7059      	strb	r1, [r3, #1]
1000128e:	f000 fc87 	bl	10001ba0 <outputDigi>
10001292:	4a40      	ldr	r2, [pc, #256]	@ (10001394 <runEmulation+0xd24>)
10001294:	e9d2 3200 	ldrd	r3, r2, [r2]
10001298:	e610      	b.n	10000ebc <runEmulation+0x84c>
1000129a:	2100      	movs	r1, #0
1000129c:	4b3c      	ldr	r3, [pc, #240]	@ (10001390 <runEmulation+0xd20>)
1000129e:	4608      	mov	r0, r1
100012a0:	7019      	strb	r1, [r3, #0]
100012a2:	f000 fc7d 	bl	10001ba0 <outputDigi>
100012a6:	4a3b      	ldr	r2, [pc, #236]	@ (10001394 <runEmulation+0xd24>)
100012a8:	e9d2 3200 	ldrd	r3, r2, [r2]
100012ac:	e5fb      	b.n	10000ea6 <runEmulation+0x836>
100012ae:	4e3a      	ldr	r6, [pc, #232]	@ (10001398 <runEmulation+0xd28>)
100012b0:	4838      	ldr	r0, [pc, #224]	@ (10001394 <runEmulation+0xd24>)
100012b2:	f8d0 e000 	ldr.w	lr, [r0]
100012b6:	f856 0031 	ldr.w	r0, [r6, r1, lsl #3]
100012ba:	eb06 01c1 	add.w	r1, r6, r1, lsl #3
100012be:	ebbe 0000 	subs.w	r0, lr, r0
100012c2:	900b      	str	r0, [sp, #44]	@ 0x2c
100012c4:	4833      	ldr	r0, [pc, #204]	@ (10001394 <runEmulation+0xd24>)
100012c6:	9e0b      	ldr	r6, [sp, #44]	@ 0x2c
100012c8:	f8d0 c004 	ldr.w	ip, [r0, #4]
100012cc:	6848      	ldr	r0, [r1, #4]
100012ce:	9109      	str	r1, [sp, #36]	@ 0x24
100012d0:	eb6c 0000 	sbc.w	r0, ip, r0
100012d4:	2e87      	cmp	r6, #135	@ 0x87
100012d6:	f170 0000 	sbcs.w	r0, r0, #0
100012da:	f4bf acee 	bcs.w	10000cba <runEmulation+0x64a>
100012de:	4e2e      	ldr	r6, [pc, #184]	@ (10001398 <runEmulation+0xd28>)
100012e0:	9904      	ldr	r1, [sp, #16]
100012e2:	f1be 0004 	subs.w	r0, lr, #4
100012e6:	f846 0031 	str.w	r0, [r6, r1, lsl #3]
100012ea:	9909      	ldr	r1, [sp, #36]	@ 0x24
100012ec:	f14c 30ff 	adc.w	r0, ip, #4294967295	@ 0xffffffff
100012f0:	6048      	str	r0, [r1, #4]
100012f2:	2005      	movs	r0, #5
100012f4:	4e29      	ldr	r6, [pc, #164]	@ (1000139c <runEmulation+0xd2c>)
100012f6:	9904      	ldr	r1, [sp, #16]
100012f8:	5470      	strb	r0, [r6, r1]
100012fa:	e4e2      	b.n	10000cc2 <runEmulation+0x652>
100012fc:	4825      	ldr	r0, [pc, #148]	@ (10001394 <runEmulation+0xd24>)
100012fe:	460e      	mov	r6, r1
10001300:	6801      	ldr	r1, [r0, #0]
10001302:	4825      	ldr	r0, [pc, #148]	@ (10001398 <runEmulation+0xd28>)
10001304:	9109      	str	r1, [sp, #36]	@ 0x24
10001306:	4601      	mov	r1, r0
10001308:	f850 0036 	ldr.w	r0, [r0, r6, lsl #3]
1000130c:	9e09      	ldr	r6, [sp, #36]	@ 0x24
1000130e:	ebb6 0c00 	subs.w	ip, r6, r0
10001312:	460e      	mov	r6, r1
10001314:	9904      	ldr	r1, [sp, #16]
10001316:	481f      	ldr	r0, [pc, #124]	@ (10001394 <runEmulation+0xd24>)
10001318:	eb06 06c1 	add.w	r6, r6, r1, lsl #3
1000131c:	6876      	ldr	r6, [r6, #4]
1000131e:	6840      	ldr	r0, [r0, #4]
10001320:	eb60 0606 	sbc.w	r6, r0, r6
10001324:	f1bc 0f16 	cmp.w	ip, #22
10001328:	f176 0600 	sbcs.w	r6, r6, #0
1000132c:	f4bf acc5 	bcs.w	10000cba <runEmulation+0x64a>
10001330:	2006      	movs	r0, #6
10001332:	4e1a      	ldr	r6, [pc, #104]	@ (1000139c <runEmulation+0xd2c>)
10001334:	5470      	strb	r0, [r6, r1]
10001336:	e4c4      	b.n	10000cc2 <runEmulation+0x652>
10001338:	f44f 4280 	mov.w	r2, #16384	@ 0x4000
1000133c:	9204      	str	r2, [sp, #16]
1000133e:	f24c 0240 	movw	r2, #49216	@ 0xc040
10001342:	4c17      	ldr	r4, [pc, #92]	@ (100013a0 <runEmulation+0xd30>)
10001344:	2640      	movs	r6, #64	@ 0x40
10001346:	8022      	strh	r2, [r4, #0]
10001348:	4c16      	ldr	r4, [pc, #88]	@ (100013a4 <runEmulation+0xd34>)
1000134a:	f44f 4000 	mov.w	r0, #32768	@ 0x8000
1000134e:	8022      	strh	r2, [r4, #0]
10001350:	f44f 4280 	mov.w	r2, #16384	@ 0x4000
10001354:	4696      	mov	lr, r2
10001356:	9207      	str	r2, [sp, #28]
10001358:	4632      	mov	r2, r6
1000135a:	f7ff ba65 	b.w	10000828 <runEmulation+0x1b8>
1000135e:	4b12      	ldr	r3, [pc, #72]	@ (100013a8 <runEmulation+0xd38>)
10001360:	8018      	strh	r0, [r3, #0]
10001362:	e47e      	b.n	10000c62 <runEmulation+0x5f2>
10001364:	2100      	movs	r1, #0
10001366:	4630      	mov	r0, r6
10001368:	9104      	str	r1, [sp, #16]
1000136a:	f7ff bb52 	b.w	10000a12 <runEmulation+0x3a2>
1000136e:	bf00      	nop
10001370:	20008a08 	.word	0x20008a08
10001374:	1000c000 	.word	0x1000c000
10001378:	50200000 	.word	0x50200000
1000137c:	200040a8 	.word	0x200040a8
10001380:	20008abc 	.word	0x20008abc
10001384:	20008b04 	.word	0x20008b04
10001388:	20008ad4 	.word	0x20008ad4
1000138c:	2001e984 	.word	0x2001e984
10001390:	20008ab4 	.word	0x20008ab4
10001394:	20004088 	.word	0x20004088
10001398:	200040c0 	.word	0x200040c0
1000139c:	20008ac4 	.word	0x20008ac4
100013a0:	20008b7c 	.word	0x20008b7c
100013a4:	20008b78 	.word	0x20008b78
100013a8:	2001f3b2 	.word	0x2001f3b2
100013ac:	0007a120 	.word	0x0007a120

100013b0 <main>:
100013b0:	b508      	push	{r3, lr}
100013b2:	200f      	movs	r0, #15
100013b4:	f005 fa94 	bl	100068e0 <vreg_set_voltage>
100013b8:	f7ff f8a4 	bl	10000504 <readConfiguration>
100013bc:	f7fe ff3a 	bl	10000234 <initGPIOs>
100013c0:	f7fe ff54 	bl	1000026c <initPotGPIOs>
100013c4:	2201      	movs	r2, #1
100013c6:	2105      	movs	r1, #5
100013c8:	4805      	ldr	r0, [pc, #20]	@ (100013e0 <main+0x30>)
100013ca:	f005 f97d 	bl	100066c8 <set_sys_clock_pll>
100013ce:	4805      	ldr	r0, [pc, #20]	@ (100013e4 <main+0x34>)
100013d0:	f008 fc6a 	bl	10009ca8 <multicore_launch_core1>
100013d4:	2201      	movs	r2, #1
100013d6:	4b04      	ldr	r3, [pc, #16]	@ (100013e8 <main+0x38>)
100013d8:	601a      	str	r2, [r3, #0]
100013da:	f7ff f811 	bl	10000400 <handleSerialSID>
100013de:	bf00      	nop
100013e0:	59682f00 	.word	0x59682f00
100013e4:	10000671 	.word	0x10000671
100013e8:	40068000 	.word	0x40068000

100013ec <read_bits>:
100013ec:	2300      	movs	r3, #0
100013ee:	b570      	push	{r4, r5, r6, lr}
100013f0:	461d      	mov	r5, r3
100013f2:	4c15      	ldr	r4, [pc, #84]	@ (10001448 <read_bits+0x5c>)
100013f4:	f001 0608 	and.w	r6, r1, #8
100013f8:	7822      	ldrb	r2, [r4, #0]
100013fa:	f001 0107 	and.w	r1, r1, #7
100013fe:	b1b1      	cbz	r1, 1000142e <read_bits+0x42>
10001400:	0053      	lsls	r3, r2, #1
10001402:	f013 03ff 	ands.w	r3, r3, #255	@ 0xff
10001406:	f101 31ff 	add.w	r1, r1, #4294967295	@ 0xffffffff
1000140a:	d002      	beq.n	10001412 <read_bits+0x26>
1000140c:	f3c2 12c7 	ubfx	r2, r2, #7, #8
10001410:	e008      	b.n	10001424 <read_bits+0x38>
10001412:	6803      	ldr	r3, [r0, #0]
10001414:	1e5a      	subs	r2, r3, #1
10001416:	6002      	str	r2, [r0, #0]
10001418:	f813 3c01 	ldrb.w	r3, [r3, #-1]
1000141c:	09da      	lsrs	r2, r3, #7
1000141e:	005b      	lsls	r3, r3, #1
10001420:	3301      	adds	r3, #1
10001422:	b2db      	uxtb	r3, r3
10001424:	ea42 0545 	orr.w	r5, r2, r5, lsl #1
10001428:	461a      	mov	r2, r3
1000142a:	2301      	movs	r3, #1
1000142c:	e7e7      	b.n	100013fe <read_bits+0x12>
1000142e:	b103      	cbz	r3, 10001432 <read_bits+0x46>
10001430:	7022      	strb	r2, [r4, #0]
10001432:	b136      	cbz	r6, 10001442 <read_bits+0x56>
10001434:	6803      	ldr	r3, [r0, #0]
10001436:	1e5a      	subs	r2, r3, #1
10001438:	6002      	str	r2, [r0, #0]
1000143a:	f813 3c01 	ldrb.w	r3, [r3, #-1]
1000143e:	ea43 2505 	orr.w	r5, r3, r5, lsl #8
10001442:	b2a8      	uxth	r0, r5
10001444:	bd70      	pop	{r4, r5, r6, pc}
10001446:	bf00      	nop
10001448:	2001f3c4 	.word	0x2001f3c4

1000144c <exo_decrunch>:
1000144c:	e92d 4ff7 	stmdb	sp!, {r0, r1, r2, r4, r5, r6, r7, r8, r9, sl, fp, lr}
10001450:	1e43      	subs	r3, r0, #1
10001452:	f810 2c01 	ldrb.w	r2, [r0, #-1]
10001456:	9301      	str	r3, [sp, #4]
10001458:	4b49      	ldr	r3, [pc, #292]	@ (10001580 <exo_decrunch+0x134>)
1000145a:	4f4a      	ldr	r7, [pc, #296]	@ (10001584 <exo_decrunch+0x138>)
1000145c:	701a      	strb	r2, [r3, #0]
1000145e:	4b4a      	ldr	r3, [pc, #296]	@ (10001588 <exo_decrunch+0x13c>)
10001460:	468a      	mov	sl, r1
10001462:	2500      	movs	r5, #0
10001464:	4698      	mov	r8, r3
10001466:	46b9      	mov	r9, r7
10001468:	f015 0f0f 	tst.w	r5, #15
1000146c:	bf08      	it	eq
1000146e:	2601      	moveq	r6, #1
10001470:	2103      	movs	r1, #3
10001472:	f823 6b02 	strh.w	r6, [r3], #2
10001476:	a801      	add	r0, sp, #4
10001478:	9300      	str	r3, [sp, #0]
1000147a:	f7ff ffb7 	bl	100013ec <read_bits>
1000147e:	2101      	movs	r1, #1
10001480:	4604      	mov	r4, r0
10001482:	a801      	add	r0, sp, #4
10001484:	f7ff ffb2 	bl	100013ec <read_bits>
10001488:	2201      	movs	r2, #1
1000148a:	ea44 04c0 	orr.w	r4, r4, r0, lsl #3
1000148e:	4415      	add	r5, r2
10001490:	f807 4b01 	strb.w	r4, [r7], #1
10001494:	2d34      	cmp	r5, #52	@ 0x34
10001496:	fa02 f404 	lsl.w	r4, r2, r4
1000149a:	9b00      	ldr	r3, [sp, #0]
1000149c:	4426      	add	r6, r4
1000149e:	d1e3      	bne.n	10001468 <exo_decrunch+0x1c>
100014a0:	4615      	mov	r5, r2
100014a2:	2601      	movs	r6, #1
100014a4:	4634      	mov	r4, r6
100014a6:	f10a 37ff 	add.w	r7, sl, #4294967295	@ 0xffffffff
100014aa:	46ba      	mov	sl, r7
100014ac:	b12e      	cbz	r6, 100014ba <exo_decrunch+0x6e>
100014ae:	9b01      	ldr	r3, [sp, #4]
100014b0:	1e5a      	subs	r2, r3, #1
100014b2:	9201      	str	r2, [sp, #4]
100014b4:	f813 3c01 	ldrb.w	r3, [r3, #-1]
100014b8:	e001      	b.n	100014be <exo_decrunch+0x72>
100014ba:	f817 300b 	ldrb.w	r3, [r7, fp]
100014be:	3c01      	subs	r4, #1
100014c0:	462a      	mov	r2, r5
100014c2:	2c00      	cmp	r4, #0
100014c4:	ea46 0545 	orr.w	r5, r6, r5, lsl #1
100014c8:	f807 3901 	strb.w	r3, [r7], #-1
100014cc:	b2ed      	uxtb	r5, r5
100014ce:	dd01      	ble.n	100014d4 <exo_decrunch+0x88>
100014d0:	4615      	mov	r5, r2
100014d2:	e7ea      	b.n	100014aa <exo_decrunch+0x5e>
100014d4:	2101      	movs	r1, #1
100014d6:	a801      	add	r0, sp, #4
100014d8:	f7ff ff88 	bl	100013ec <read_bits>
100014dc:	b2c6      	uxtb	r6, r0
100014de:	2e01      	cmp	r6, #1
100014e0:	d0df      	beq.n	100014a2 <exo_decrunch+0x56>
100014e2:	2400      	movs	r4, #0
100014e4:	2101      	movs	r1, #1
100014e6:	a801      	add	r0, sp, #4
100014e8:	f7ff ff80 	bl	100013ec <read_bits>
100014ec:	b908      	cbnz	r0, 100014f2 <exo_decrunch+0xa6>
100014ee:	3401      	adds	r4, #1
100014f0:	e7f8      	b.n	100014e4 <exo_decrunch+0x98>
100014f2:	2c10      	cmp	r4, #16
100014f4:	d040      	beq.n	10001578 <exo_decrunch+0x12c>
100014f6:	2c11      	cmp	r4, #17
100014f8:	d10b      	bne.n	10001512 <exo_decrunch+0xc6>
100014fa:	9b01      	ldr	r3, [sp, #4]
100014fc:	46ba      	mov	sl, r7
100014fe:	f813 2c01 	ldrb.w	r2, [r3, #-1]
10001502:	f813 4c02 	ldrb.w	r4, [r3, #-2]
10001506:	1e99      	subs	r1, r3, #2
10001508:	2601      	movs	r6, #1
1000150a:	9101      	str	r1, [sp, #4]
1000150c:	ea44 2402 	orr.w	r4, r4, r2, lsl #8
10001510:	e7cd      	b.n	100014ae <exo_decrunch+0x62>
10001512:	f819 1004 	ldrb.w	r1, [r9, r4]
10001516:	a801      	add	r0, sp, #4
10001518:	f838 a014 	ldrh.w	sl, [r8, r4, lsl #1]
1000151c:	f7ff ff66 	bl	100013ec <read_bits>
10001520:	f005 0103 	and.w	r1, r5, #3
10001524:	2901      	cmp	r1, #1
10001526:	eb00 040a 	add.w	r4, r0, sl
1000152a:	d00a      	beq.n	10001542 <exo_decrunch+0xf6>
1000152c:	2c01      	cmp	r4, #1
1000152e:	d00e      	beq.n	1000154e <exo_decrunch+0x102>
10001530:	2c02      	cmp	r4, #2
10001532:	d112      	bne.n	1000155a <exo_decrunch+0x10e>
10001534:	2104      	movs	r1, #4
10001536:	eb0d 0001 	add.w	r0, sp, r1
1000153a:	f7ff ff57 	bl	100013ec <read_bits>
1000153e:	3020      	adds	r0, #32
10001540:	e011      	b.n	10001566 <exo_decrunch+0x11a>
10001542:	a801      	add	r0, sp, #4
10001544:	f7ff ff52 	bl	100013ec <read_bits>
10001548:	2800      	cmp	r0, #0
1000154a:	d0ef      	beq.n	1000152c <exo_decrunch+0xe0>
1000154c:	e7ad      	b.n	100014aa <exo_decrunch+0x5e>
1000154e:	2102      	movs	r1, #2
10001550:	a801      	add	r0, sp, #4
10001552:	f7ff ff4b 	bl	100013ec <read_bits>
10001556:	3030      	adds	r0, #48	@ 0x30
10001558:	e005      	b.n	10001566 <exo_decrunch+0x11a>
1000155a:	2104      	movs	r1, #4
1000155c:	eb0d 0001 	add.w	r0, sp, r1
10001560:	f7ff ff44 	bl	100013ec <read_bits>
10001564:	3010      	adds	r0, #16
10001566:	f838 b010 	ldrh.w	fp, [r8, r0, lsl #1]
1000156a:	f819 1000 	ldrb.w	r1, [r9, r0]
1000156e:	a801      	add	r0, sp, #4
10001570:	f7ff ff3c 	bl	100013ec <read_bits>
10001574:	4483      	add	fp, r0
10001576:	e798      	b.n	100014aa <exo_decrunch+0x5e>
10001578:	4650      	mov	r0, sl
1000157a:	b003      	add	sp, #12
1000157c:	e8bd 8ff0 	ldmia.w	sp!, {r4, r5, r6, r7, r8, r9, sl, fp, pc}
10001580:	2001f3c4 	.word	0x2001f3c4
10001584:	200088cc 	.word	0x200088cc
10001588:	20008864 	.word	0x20008864

1000158c <setDefaultConfiguration>:
1000158c:	223c      	movs	r2, #60	@ 0x3c
1000158e:	2100      	movs	r1, #0
10001590:	b510      	push	{r4, lr}
10001592:	4811      	ldr	r0, [pc, #68]	@ (100015d8 <setDefaultConfiguration+0x4c>)
10001594:	f009 fc10 	bl	1000adb8 <memset>
10001598:	f640 4003 	movw	r0, #3075	@ 0xc03
1000159c:	f240 510e 	movw	r1, #1294	@ 0x50e
100015a0:	2207      	movs	r2, #7
100015a2:	2310      	movs	r3, #16
100015a4:	4c0c      	ldr	r4, [pc, #48]	@ (100015d8 <setDefaultConfiguration+0x4c>)
100015a6:	f8df c034 	ldr.w	ip, [pc, #52]	@ 100015dc <setDefaultConfiguration+0x50>
100015aa:	80a0      	strh	r0, [r4, #4]
100015ac:	f8a4 1007 	strh.w	r1, [r4, #7]
100015b0:	2034      	movs	r0, #52	@ 0x34
100015b2:	f64a 2137 	movw	r1, #43575	@ 0xaa37
100015b6:	f884 2036 	strb.w	r2, [r4, #54]	@ 0x36
100015ba:	f884 3038 	strb.w	r3, [r4, #56]	@ 0x38
100015be:	f640 2201 	movw	r2, #2561	@ 0xa01
100015c2:	23a0      	movs	r3, #160	@ 0xa0
100015c4:	f844 cc04 	str.w	ip, [r4, #-4]
100015c8:	f884 0025 	strb.w	r0, [r4, #37]	@ 0x25
100015cc:	f8a4 1027 	strh.w	r1, [r4, #39]	@ 0x27
100015d0:	8562      	strh	r2, [r4, #42]	@ 0x2a
100015d2:	f884 302c 	strb.w	r3, [r4, #44]	@ 0x2c
100015d6:	bd10      	pop	{r4, pc}
100015d8:	20008a0c 	.word	0x20008a0c
100015dc:	0e010c01 	.word	0x0e010c01

100015e0 <updateConfiguration>:
100015e0:	2200      	movs	r2, #0
100015e2:	e92d 47f0 	stmdb	sp!, {r4, r5, r6, r7, r8, r9, sl, lr}
100015e6:	4c4a      	ldr	r4, [pc, #296]	@ (10001710 <updateConfiguration+0x130>)
100015e8:	4b4a      	ldr	r3, [pc, #296]	@ (10001714 <updateConfiguration+0x134>)
100015ea:	7825      	ldrb	r5, [r4, #0]
100015ec:	b086      	sub	sp, #24
100015ee:	7a21      	ldrb	r1, [r4, #8]
100015f0:	f883 2042 	strb.w	r2, [r3, #66]	@ 0x42
100015f4:	f883 2020 	strb.w	r2, [r3, #32]
100015f8:	2d00      	cmp	r5, #0
100015fa:	f040 81b0 	bne.w	1000195e <updateConfiguration+0x37e>
100015fe:	42a9      	cmp	r1, r5
10001600:	bf0c      	ite	eq
10001602:	2003      	moveq	r0, #3
10001604:	2002      	movne	r0, #2
10001606:	2103      	movs	r1, #3
10001608:	4a43      	ldr	r2, [pc, #268]	@ (10001718 <updateConfiguration+0x138>)
1000160a:	4e44      	ldr	r6, [pc, #272]	@ (1000171c <updateConfiguration+0x13c>)
1000160c:	f883 0043 	strb.w	r0, [r3, #67]	@ 0x43
10001610:	f883 1021 	strb.w	r1, [r3, #33]	@ 0x21
10001614:	ab06      	add	r3, sp, #24
10001616:	ca07      	ldmia	r2, {r0, r1, r2}
10001618:	e903 0007 	stmdb	r3, {r0, r1, r2}
1000161c:	4629      	mov	r1, r5
1000161e:	6830      	ldr	r0, [r6, #0]
10001620:	f002 fcf8 	bl	10004014 <_ZN5SID1614set_chip_modelE10chip_model>
10001624:	7823      	ldrb	r3, [r4, #0]
10001626:	6830      	ldr	r0, [r6, #0]
10001628:	2b02      	cmp	r3, #2
1000162a:	bf05      	ittet	eq
1000162c:	f04f 31ff 	moveq.w	r1, #4294967295	@ 0xffffffff
10001630:	7863      	ldrbeq	r3, [r4, #1]
10001632:	2100      	movne	r1, #0
10001634:	4099      	lsleq	r1, r3
10001636:	f002 fd27 	bl	10004088 <_ZN5SID165inputEi>
1000163a:	4d39      	ldr	r5, [pc, #228]	@ (10001720 <updateConfiguration+0x140>)
1000163c:	7a21      	ldrb	r1, [r4, #8]
1000163e:	6828      	ldr	r0, [r5, #0]
10001640:	b101      	cbz	r1, 10001644 <updateConfiguration+0x64>
10001642:	2101      	movs	r1, #1
10001644:	f002 fce6 	bl	10004014 <_ZN5SID1614set_chip_modelE10chip_model>
10001648:	7a23      	ldrb	r3, [r4, #8]
1000164a:	6828      	ldr	r0, [r5, #0]
1000164c:	2b02      	cmp	r3, #2
1000164e:	bf05      	ittet	eq
10001650:	f04f 31ff 	moveq.w	r1, #4294967295	@ 0xffffffff
10001654:	7a63      	ldrbeq	r3, [r4, #9]
10001656:	2100      	movne	r1, #0
10001658:	4099      	lsleq	r1, r3
1000165a:	f002 fd15 	bl	10004088 <_ZN5SID165inputEi>
1000165e:	4f31      	ldr	r7, [pc, #196]	@ (10001724 <updateConfiguration+0x144>)
10001660:	f894 103b 	ldrb.w	r1, [r4, #59]	@ 0x3b
10001664:	f8df 80cc 	ldr.w	r8, [pc, #204]	@ 10001734 <updateConfiguration+0x154>
10001668:	fba7 3c01 	umull	r3, ip, r7, r1
1000166c:	f00c 00fe 	and.w	r0, ip, #254	@ 0xfe
10001670:	eb00 005c 	add.w	r0, r0, ip, lsr #1
10001674:	1a09      	subs	r1, r1, r0
10001676:	b2c9      	uxtb	r1, r1
10001678:	eb0d 0181 	add.w	r1, sp, r1, lsl #2
1000167c:	68c9      	ldr	r1, [r1, #12]
1000167e:	f8df a0b8 	ldr.w	sl, [pc, #184]	@ 10001738 <updateConfiguration+0x158>
10001682:	ee07 1a90 	vmov	s15, r1
10001686:	eef8 7a67 	vcvt.f32.u32	s15, s15
1000168a:	f8df 90b0 	ldr.w	r9, [pc, #176]	@ 1000173c <updateConfiguration+0x15c>
1000168e:	f8c8 1000 	str.w	r1, [r8]
10001692:	f8cd a004 	str.w	sl, [sp, #4]
10001696:	f8cd 9000 	str.w	r9, [sp]
1000169a:	ee17 1a90 	vmov	r1, s15
1000169e:	2201      	movs	r2, #1
100016a0:	4b21      	ldr	r3, [pc, #132]	@ (10001728 <updateConfiguration+0x148>)
100016a2:	6830      	ldr	r0, [r6, #0]
100016a4:	f002 fda4 	bl	100041f0 <_ZN5SID1623set_sampling_parametersEf15sampling_methodfff>
100016a8:	f8cd a004 	str.w	sl, [sp, #4]
100016ac:	f8cd 9000 	str.w	r9, [sp]
100016b0:	edd8 7a00 	vldr	s15, [r8]
100016b4:	eef8 7a67 	vcvt.f32.u32	s15, s15
100016b8:	2201      	movs	r2, #1
100016ba:	ee17 1a90 	vmov	r1, s15
100016be:	4b1a      	ldr	r3, [pc, #104]	@ (10001728 <updateConfiguration+0x148>)
100016c0:	6828      	ldr	r0, [r5, #0]
100016c2:	f002 fd95 	bl	100041f0 <_ZN5SID1623set_sampling_parametersEf15sampling_methodfff>
100016c6:	7aa2      	ldrb	r2, [r4, #10]
100016c8:	4918      	ldr	r1, [pc, #96]	@ (1000172c <updateConfiguration+0x14c>)
100016ca:	fba7 7302 	umull	r7, r3, r7, r2
100016ce:	089b      	lsrs	r3, r3, #2
100016d0:	eb03 0343 	add.w	r3, r3, r3, lsl #1
100016d4:	eba2 0343 	sub.w	r3, r2, r3, lsl #1
100016d8:	2a03      	cmp	r2, #3
100016da:	b2db      	uxtb	r3, r3
100016dc:	f851 3023 	ldr.w	r3, [r1, r3, lsl #2]
100016e0:	bf94      	ite	ls
100016e2:	2100      	movls	r1, #0
100016e4:	2101      	movhi	r1, #1
100016e6:	f8df 8058 	ldr.w	r8, [pc, #88]	@ 10001740 <updateConfiguration+0x160>
100016ea:	4811      	ldr	r0, [pc, #68]	@ (10001730 <updateConfiguration+0x150>)
100016ec:	f8c8 3000 	str.w	r3, [r8]
100016f0:	7001      	strb	r1, [r0, #0]
100016f2:	7a21      	ldrb	r1, [r4, #8]
100016f4:	b933      	cbnz	r3, 10001704 <updateConfiguration+0x124>
100016f6:	2903      	cmp	r1, #3
100016f8:	d024      	beq.n	10001744 <updateConfiguration+0x164>
100016fa:	7003      	strb	r3, [r0, #0]
100016fc:	f04f 4300 	mov.w	r3, #2147483648	@ 0x80000000
10001700:	f8c8 3000 	str.w	r3, [r8]
10001704:	2903      	cmp	r1, #3
10001706:	d91d      	bls.n	10001744 <updateConfiguration+0x164>
10001708:	f1c1 0006 	rsb	r0, r1, #6
1000170c:	e01b      	b.n	10001746 <updateConfiguration+0x166>
1000170e:	bf00      	nop
10001710:	20008a08 	.word	0x20008a08
10001714:	20008b04 	.word	0x20008b04
10001718:	1000f1f4 	.word	0x1000f1f4
1000171c:	2001e994 	.word	0x2001e994
10001720:	2001e998 	.word	0x2001e998
10001724:	aaaaaaab 	.word	0xaaaaaaab
10001728:	472c4400 	.word	0x472c4400
1000172c:	20000114 	.word	0x20000114
10001730:	2001f3c0 	.word	0x2001f3c0
10001734:	2000111c 	.word	0x2000111c
10001738:	3f7851ec 	.word	0x3f7851ec
1000173c:	bf800000 	.word	0xbf800000
10001740:	2000428c 	.word	0x2000428c
10001744:	2000      	movs	r0, #0
10001746:	4b9f      	ldr	r3, [pc, #636]	@ (100019c4 <updateConfiguration+0x3e4>)
10001748:	4f9f      	ldr	r7, [pc, #636]	@ (100019c8 <updateConfiguration+0x3e8>)
1000174a:	7018      	strb	r0, [r3, #0]
1000174c:	683b      	ldr	r3, [r7, #0]
1000174e:	429a      	cmp	r2, r3
10001750:	d004      	beq.n	1000175c <updateConfiguration+0x17c>
10001752:	6828      	ldr	r0, [r5, #0]
10001754:	f002 fc77 	bl	10004046 <_ZN5SID165resetEv>
10001758:	7aa3      	ldrb	r3, [r4, #10]
1000175a:	7a21      	ldrb	r1, [r4, #8]
1000175c:	2000      	movs	r0, #0
1000175e:	4a9b      	ldr	r2, [pc, #620]	@ (100019cc <updateConfiguration+0x3ec>)
10001760:	603b      	str	r3, [r7, #0]
10001762:	f894 303c 	ldrb.w	r3, [r4, #60]	@ 0x3c
10001766:	7010      	strb	r0, [r2, #0]
10001768:	4f99      	ldr	r7, [pc, #612]	@ (100019d0 <updateConfiguration+0x3f0>)
1000176a:	4a9a      	ldr	r2, [pc, #616]	@ (100019d4 <updateConfiguration+0x3f4>)
1000176c:	f003 0c40 	and.w	ip, r3, #64	@ 0x40
10001770:	2903      	cmp	r1, #3
10001772:	f003 030f 	and.w	r3, r3, #15
10001776:	7013      	strb	r3, [r2, #0]
10001778:	f887 c000 	strb.w	ip, [r7]
1000177c:	78e2      	ldrb	r2, [r4, #3]
1000177e:	f000 810a 	beq.w	10001996 <updateConfiguration+0x3b6>
10001782:	f894 c00c 	ldrb.w	ip, [r4, #12]
10001786:	7ae7      	ldrb	r7, [r4, #11]
10001788:	f1cc 030e 	rsb	r3, ip, #14
1000178c:	fb02 f103 	mul.w	r1, r2, r3
10001790:	fb1c f202 	smulbb	r2, ip, r2
10001794:	fb17 fc0c 	smulbb	ip, r7, ip
10001798:	fb03 f707 	mul.w	r7, r3, r7
1000179c:	4b8e      	ldr	r3, [pc, #568]	@ (100019d8 <updateConfiguration+0x3f8>)
1000179e:	6019      	str	r1, [r3, #0]
100017a0:	4b8e      	ldr	r3, [pc, #568]	@ (100019dc <updateConfiguration+0x3fc>)
100017a2:	601a      	str	r2, [r3, #0]
100017a4:	4b8e      	ldr	r3, [pc, #568]	@ (100019e0 <updateConfiguration+0x400>)
100017a6:	f8c3 c000 	str.w	ip, [r3]
100017aa:	4b8e      	ldr	r3, [pc, #568]	@ (100019e4 <updateConfiguration+0x404>)
100017ac:	601f      	str	r7, [r3, #0]
100017ae:	f894 003a 	ldrb.w	r0, [r4, #58]	@ 0x3a
100017b2:	2806      	cmp	r0, #6
100017b4:	f200 80e7 	bhi.w	10001986 <updateConfiguration+0x3a6>
100017b8:	f44f 7380 	mov.w	r3, #256	@ 0x100
100017bc:	f1c0 0007 	rsb	r0, r0, #7
100017c0:	0140      	lsls	r0, r0, #5
100017c2:	f5c0 7080 	rsb	r0, r0, #256	@ 0x100
100017c6:	fb03 f101 	mul.w	r1, r3, r1
100017ca:	fb0c f303 	mul.w	r3, ip, r3
100017ce:	fb02 fc00 	mul.w	ip, r2, r0
100017d2:	fb07 f200 	mul.w	r2, r7, r0
100017d6:	f894 703d 	ldrb.w	r7, [r4, #61]	@ 0x3d
100017da:	4883      	ldr	r0, [pc, #524]	@ (100019e8 <updateConfiguration+0x408>)
100017dc:	3f00      	subs	r7, #0
100017de:	bf18      	it	ne
100017e0:	2701      	movne	r7, #1
100017e2:	ea4f 2c0c 	mov.w	ip, ip, lsl #8
100017e6:	0209      	lsls	r1, r1, #8
100017e8:	ea4f 0c5c 	mov.w	ip, ip, lsr #1
100017ec:	fba0 ec0c 	umull	lr, ip, r0, ip
100017f0:	fb80 8e01 	smull	r8, lr, r0, r1
100017f4:	021b      	lsls	r3, r3, #8
100017f6:	0212      	lsls	r2, r2, #8
100017f8:	448e      	add	lr, r1
100017fa:	17c9      	asrs	r1, r1, #31
100017fc:	ebc1 11ee 	rsb	r1, r1, lr, asr #7
10001800:	fb80 8e03 	smull	r8, lr, r0, r3
10001804:	fb80 8002 	smull	r8, r0, r0, r2
10001808:	f8df 8210 	ldr.w	r8, [pc, #528]	@ 10001a1c <updateConfiguration+0x43c>
1000180c:	ea4f 1c9c 	mov.w	ip, ip, lsr #6
10001810:	f8c8 1000 	str.w	r1, [r8]
10001814:	4975      	ldr	r1, [pc, #468]	@ (100019ec <updateConfiguration+0x40c>)
10001816:	449e      	add	lr, r3
10001818:	4410      	add	r0, r2
1000181a:	17db      	asrs	r3, r3, #31
1000181c:	17d2      	asrs	r2, r2, #31
1000181e:	f8c1 c000 	str.w	ip, [r1]
10001822:	ebc3 13ee 	rsb	r3, r3, lr, asr #7
10001826:	4972      	ldr	r1, [pc, #456]	@ (100019f0 <updateConfiguration+0x410>)
10001828:	ebc2 1ee0 	rsb	lr, r2, r0, asr #7
1000182c:	f894 2030 	ldrb.w	r2, [r4, #48]	@ 0x30
10001830:	600b      	str	r3, [r1, #0]
10001832:	320a      	adds	r2, #10
10001834:	4b6f      	ldr	r3, [pc, #444]	@ (100019f4 <updateConfiguration+0x414>)
10001836:	6830      	ldr	r0, [r6, #0]
10001838:	eb02 0282 	add.w	r2, r2, r2, lsl #2
1000183c:	f8c3 e000 	str.w	lr, [r3]
10001840:	eb02 0282 	add.w	r2, r2, r2, lsl #2
10001844:	4b6c      	ldr	r3, [pc, #432]	@ (100019f8 <updateConfiguration+0x418>)
10001846:	f894 102f 	ldrb.w	r1, [r4, #47]	@ 0x2f
1000184a:	0092      	lsls	r2, r2, #2
1000184c:	3050      	adds	r0, #80	@ 0x50
1000184e:	701f      	strb	r7, [r3, #0]
10001850:	f001 fdb4 	bl	100033bc <_ZN14ExternalFilter20setCutoffFrequenciesEii>
10001854:	f894 2030 	ldrb.w	r2, [r4, #48]	@ 0x30
10001858:	6828      	ldr	r0, [r5, #0]
1000185a:	320a      	adds	r2, #10
1000185c:	eb02 0282 	add.w	r2, r2, r2, lsl #2
10001860:	eb02 0282 	add.w	r2, r2, r2, lsl #2
10001864:	0092      	lsls	r2, r2, #2
10001866:	f894 102f 	ldrb.w	r1, [r4, #47]	@ 0x2f
1000186a:	3050      	adds	r0, #80	@ 0x50
1000186c:	f001 fda6 	bl	100033bc <_ZN14ExternalFilter20setCutoffFrequenciesEii>
10001870:	f894 102e 	ldrb.w	r1, [r4, #46]	@ 0x2e
10001874:	6830      	ldr	r0, [r6, #0]
10001876:	f001 0101 	and.w	r1, r1, #1
1000187a:	f002 fcb5 	bl	100041e8 <_ZN5SID1622enable_external_filterEb>
1000187e:	f894 102e 	ldrb.w	r1, [r4, #46]	@ 0x2e
10001882:	6828      	ldr	r0, [r5, #0]
10001884:	f001 0101 	and.w	r1, r1, #1
10001888:	f002 fcae 	bl	100041e8 <_ZN5SID1622enable_external_filterEb>
1000188c:	f894 2029 	ldrb.w	r2, [r4, #41]	@ 0x29
10001890:	f894 1028 	ldrb.w	r1, [r4, #40]	@ 0x28
10001894:	320a      	adds	r2, #10
10001896:	eb02 0282 	add.w	r2, r2, r2, lsl #2
1000189a:	eb02 0282 	add.w	r2, r2, r2, lsl #2
1000189e:	6830      	ldr	r0, [r6, #0]
100018a0:	0092      	lsls	r2, r2, #2
100018a2:	0089      	lsls	r1, r1, #2
100018a4:	f002 f9ee 	bl	10003c84 <_ZN6Filter19set8580FilterCoeffsEii>
100018a8:	f894 2029 	ldrb.w	r2, [r4, #41]	@ 0x29
100018ac:	f894 1028 	ldrb.w	r1, [r4, #40]	@ 0x28
100018b0:	320a      	adds	r2, #10
100018b2:	eb02 0282 	add.w	r2, r2, r2, lsl #2
100018b6:	eb02 0282 	add.w	r2, r2, r2, lsl #2
100018ba:	6828      	ldr	r0, [r5, #0]
100018bc:	0092      	lsls	r2, r2, #2
100018be:	0089      	lsls	r1, r1, #2
100018c0:	f002 f9e0 	bl	10003c84 <_ZN6Filter19set8580FilterCoeffsEii>
100018c4:	2202      	movs	r2, #2
100018c6:	2106      	movs	r1, #6
100018c8:	484c      	ldr	r0, [pc, #304]	@ (100019fc <updateConfiguration+0x41c>)
100018ca:	f004 fefd 	bl	100066c8 <set_sys_clock_pll>
100018ce:	4b4c      	ldr	r3, [pc, #304]	@ (10001a00 <updateConfiguration+0x420>)
100018d0:	4618      	mov	r0, r3
100018d2:	f1a0 0001 	sub.w	r0, r0, #1
100018d6:	d1fc      	bne.n	100018d2 <updateConfiguration+0x2f2>
100018d8:	f894 302c 	ldrb.w	r3, [r4, #44]	@ 0x2c
100018dc:	f894 202a 	ldrb.w	r2, [r4, #42]	@ 0x2a
100018e0:	4f48      	ldr	r7, [pc, #288]	@ (10001a04 <updateConfiguration+0x424>)
100018e2:	330a      	adds	r3, #10
100018e4:	f894 102d 	ldrb.w	r1, [r4, #45]	@ 0x2d
100018e8:	eb07 3702 	add.w	r7, r7, r2, lsl #12
100018ec:	eb03 0383 	add.w	r3, r3, r3, lsl #2
100018f0:	f894 202b 	ldrb.w	r2, [r4, #43]	@ 0x2b
100018f4:	eb03 0383 	add.w	r3, r3, r3, lsl #2
100018f8:	6830      	ldr	r0, [r6, #0]
100018fa:	009b      	lsls	r3, r3, #2
100018fc:	9100      	str	r1, [sp, #0]
100018fe:	0092      	lsls	r2, r2, #2
10001900:	4639      	mov	r1, r7
10001902:	f002 fa11 	bl	10003d28 <_ZN6Filter19set6581FilterCoeffsEPKsiii>
10001906:	f894 302c 	ldrb.w	r3, [r4, #44]	@ 0x2c
1000190a:	f894 202b 	ldrb.w	r2, [r4, #43]	@ 0x2b
1000190e:	330a      	adds	r3, #10
10001910:	6828      	ldr	r0, [r5, #0]
10001912:	eb03 0383 	add.w	r3, r3, r3, lsl #2
10001916:	f894 502d 	ldrb.w	r5, [r4, #45]	@ 0x2d
1000191a:	eb03 0383 	add.w	r3, r3, r3, lsl #2
1000191e:	4639      	mov	r1, r7
10001920:	009b      	lsls	r3, r3, #2
10001922:	9500      	str	r5, [sp, #0]
10001924:	0092      	lsls	r2, r2, #2
10001926:	f002 f9ff 	bl	10003d28 <_ZN6Filter19set6581FilterCoeffsEPKsiii>
1000192a:	2201      	movs	r2, #1
1000192c:	2105      	movs	r1, #5
1000192e:	4833      	ldr	r0, [pc, #204]	@ (100019fc <updateConfiguration+0x41c>)
10001930:	f004 feca 	bl	100066c8 <set_sys_clock_pll>
10001934:	4d34      	ldr	r5, [pc, #208]	@ (10001a08 <updateConfiguration+0x428>)
10001936:	f894 2027 	ldrb.w	r2, [r4, #39]	@ 0x27
1000193a:	4b34      	ldr	r3, [pc, #208]	@ (10001a0c <updateConfiguration+0x42c>)
1000193c:	4e34      	ldr	r6, [pc, #208]	@ (10001a10 <updateConfiguration+0x430>)
1000193e:	701a      	strb	r2, [r3, #0]
10001940:	ce0f      	ldmia	r6!, {r0, r1, r2, r3}
10001942:	c50f      	stmia	r5!, {r0, r1, r2, r3}
10001944:	ce0f      	ldmia	r6!, {r0, r1, r2, r3}
10001946:	c50f      	stmia	r5!, {r0, r1, r2, r3}
10001948:	ce0f      	ldmia	r6!, {r0, r1, r2, r3}
1000194a:	c50f      	stmia	r5!, {r0, r1, r2, r3}
1000194c:	e896 000f 	ldmia.w	r6, {r0, r1, r2, r3}
10001950:	e885 000f 	stmia.w	r5, {r0, r1, r2, r3}
10001954:	b006      	add	sp, #24
10001956:	e8bd 47f0 	ldmia.w	sp!, {r4, r5, r6, r7, r8, r9, sl, lr}
1000195a:	f7fe bd13 	b.w	10000384 <resetEverything>
1000195e:	2900      	cmp	r1, #0
10001960:	bf0c      	ite	eq
10001962:	2003      	moveq	r0, #3
10001964:	2002      	movne	r0, #2
10001966:	2102      	movs	r1, #2
10001968:	4e2a      	ldr	r6, [pc, #168]	@ (10001a14 <updateConfiguration+0x434>)
1000196a:	4a2b      	ldr	r2, [pc, #172]	@ (10001a18 <updateConfiguration+0x438>)
1000196c:	f883 0043 	strb.w	r0, [r3, #67]	@ 0x43
10001970:	f883 1021 	strb.w	r1, [r3, #33]	@ 0x21
10001974:	ab06      	add	r3, sp, #24
10001976:	ca07      	ldmia	r2, {r0, r1, r2}
10001978:	e903 0007 	stmdb	r3, {r0, r1, r2}
1000197c:	2101      	movs	r1, #1
1000197e:	6830      	ldr	r0, [r6, #0]
10001980:	f002 fb48 	bl	10004014 <_ZN5SID1614set_chip_modelE10chip_model>
10001984:	e64e      	b.n	10001624 <updateConfiguration+0x44>
10001986:	2807      	cmp	r0, #7
10001988:	d018      	beq.n	100019bc <updateConfiguration+0x3dc>
1000198a:	0143      	lsls	r3, r0, #5
1000198c:	f5c3 73f0 	rsb	r3, r3, #480	@ 0x1e0
10001990:	f44f 7080 	mov.w	r0, #256	@ 0x100
10001994:	e717      	b.n	100017c6 <updateConfiguration+0x1e6>
10001996:	f04f 4380 	mov.w	r3, #1073741824	@ 0x40000000
1000199a:	ebc2 02c2 	rsb	r2, r2, r2, lsl #3
1000199e:	f8c8 3000 	str.w	r3, [r8]
100019a2:	4b0d      	ldr	r3, [pc, #52]	@ (100019d8 <updateConfiguration+0x3f8>)
100019a4:	0051      	lsls	r1, r2, #1
100019a6:	6019      	str	r1, [r3, #0]
100019a8:	4b0c      	ldr	r3, [pc, #48]	@ (100019dc <updateConfiguration+0x3fc>)
100019aa:	4607      	mov	r7, r0
100019ac:	6019      	str	r1, [r3, #0]
100019ae:	4b0d      	ldr	r3, [pc, #52]	@ (100019e4 <updateConfiguration+0x404>)
100019b0:	460a      	mov	r2, r1
100019b2:	6018      	str	r0, [r3, #0]
100019b4:	4b0a      	ldr	r3, [pc, #40]	@ (100019e0 <updateConfiguration+0x400>)
100019b6:	4684      	mov	ip, r0
100019b8:	6018      	str	r0, [r3, #0]
100019ba:	e6f8      	b.n	100017ae <updateConfiguration+0x1ce>
100019bc:	f44f 7080 	mov.w	r0, #256	@ 0x100
100019c0:	4603      	mov	r3, r0
100019c2:	e700      	b.n	100017c6 <updateConfiguration+0x1e6>
100019c4:	2001f3bb 	.word	0x2001f3bb
100019c8:	20001118 	.word	0x20001118
100019cc:	2001f3bd 	.word	0x2001f3bd
100019d0:	2001f3be 	.word	0x2001f3be
100019d4:	2001f3bc 	.word	0x2001f3bc
100019d8:	200042a8 	.word	0x200042a8
100019dc:	200042b8 	.word	0x200042b8
100019e0:	200042ac 	.word	0x200042ac
100019e4:	200042bc 	.word	0x200042bc
100019e8:	9c09c09d 	.word	0x9c09c09d
100019ec:	200042b0 	.word	0x200042b0
100019f0:	200042a4 	.word	0x200042a4
100019f4:	200042b4 	.word	0x200042b4
100019f8:	2001f3c1 	.word	0x2001f3c1
100019fc:	59682f00 	.word	0x59682f00
10001a00:	00014c08 	.word	0x00014c08
10001a04:	1001b000 	.word	0x1001b000
10001a08:	20008a48 	.word	0x20008a48
10001a0c:	2001f3ba 	.word	0x2001f3ba
10001a10:	20008a08 	.word	0x20008a08
10001a14:	2001e994 	.word	0x2001e994
10001a18:	1000f1f4 	.word	0x1000f1f4
10001a1c:	200042a0 	.word	0x200042a0

10001a20 <initReSID>:
10001a20:	b5f0      	push	{r4, r5, r6, r7, lr}
10001a22:	493d      	ldr	r1, [pc, #244]	@ (10001b18 <initReSID+0xf8>)
10001a24:	b085      	sub	sp, #20
10001a26:	483d      	ldr	r0, [pc, #244]	@ (10001b1c <initReSID+0xfc>)
10001a28:	f7ff fd10 	bl	1000144c <exo_decrunch>
10001a2c:	f44f 7030 	mov.w	r0, #704	@ 0x2c0
10001a30:	f006 fb72 	bl	10008118 <_Znwj>
10001a34:	4605      	mov	r5, r0
10001a36:	4c3a      	ldr	r4, [pc, #232]	@ (10001b20 <initReSID+0x100>)
10001a38:	f002 faa4 	bl	10003f84 <_ZN5SID16C1Ev>
10001a3c:	4f39      	ldr	r7, [pc, #228]	@ (10001b24 <initReSID+0x104>)
10001a3e:	2101      	movs	r1, #1
10001a40:	4628      	mov	r0, r5
10001a42:	6025      	str	r5, [r4, #0]
10001a44:	f002 fae6 	bl	10004014 <_ZN5SID1614set_chip_modelE10chip_model>
10001a48:	6820      	ldr	r0, [r4, #0]
10001a4a:	f002 fafc 	bl	10004046 <_ZN5SID165resetEv>
10001a4e:	edd7 7a00 	vldr	s15, [r7]
10001a52:	eef8 7a67 	vcvt.f32.u32	s15, s15
10001a56:	4e34      	ldr	r6, [pc, #208]	@ (10001b28 <initReSID+0x108>)
10001a58:	4d34      	ldr	r5, [pc, #208]	@ (10001b2c <initReSID+0x10c>)
10001a5a:	4b35      	ldr	r3, [pc, #212]	@ (10001b30 <initReSID+0x110>)
10001a5c:	ee17 1a90 	vmov	r1, s15
10001a60:	2201      	movs	r2, #1
10001a62:	6820      	ldr	r0, [r4, #0]
10001a64:	9500      	str	r5, [sp, #0]
10001a66:	9601      	str	r6, [sp, #4]
10001a68:	9303      	str	r3, [sp, #12]
10001a6a:	f002 fbc1 	bl	100041f0 <_ZN5SID1623set_sampling_parametersEf15sampling_methodfff>
10001a6e:	f44f 7030 	mov.w	r0, #704	@ 0x2c0
10001a72:	f006 fb51 	bl	10008118 <_Znwj>
10001a76:	9002      	str	r0, [sp, #8]
10001a78:	f002 fa84 	bl	10003f84 <_ZN5SID16C1Ev>
10001a7c:	9a02      	ldr	r2, [sp, #8]
10001a7e:	4c2d      	ldr	r4, [pc, #180]	@ (10001b34 <initReSID+0x114>)
10001a80:	4610      	mov	r0, r2
10001a82:	2101      	movs	r1, #1
10001a84:	6022      	str	r2, [r4, #0]
10001a86:	f002 fac5 	bl	10004014 <_ZN5SID1614set_chip_modelE10chip_model>
10001a8a:	6820      	ldr	r0, [r4, #0]
10001a8c:	f002 fadb 	bl	10004046 <_ZN5SID165resetEv>
10001a90:	edd7 7a00 	vldr	s15, [r7]
10001a94:	eef8 7a67 	vcvt.f32.u32	s15, s15
10001a98:	9500      	str	r5, [sp, #0]
10001a9a:	9601      	str	r6, [sp, #4]
10001a9c:	ee17 1a90 	vmov	r1, s15
10001aa0:	9b03      	ldr	r3, [sp, #12]
10001aa2:	2201      	movs	r2, #1
10001aa4:	6820      	ldr	r0, [r4, #0]
10001aa6:	f002 fba3 	bl	100041f0 <_ZN5SID1623set_sampling_parametersEf15sampling_methodfff>
10001aaa:	4a23      	ldr	r2, [pc, #140]	@ (10001b38 <initReSID+0x118>)
10001aac:	4b23      	ldr	r3, [pc, #140]	@ (10001b3c <initReSID+0x11c>)
10001aae:	6891      	ldr	r1, [r2, #8]
10001ab0:	e9d2 4000 	ldrd	r4, r0, [r2]
10001ab4:	43cd      	mvns	r5, r1
10001ab6:	68d1      	ldr	r1, [r2, #12]
10001ab8:	43e4      	mvns	r4, r4
10001aba:	43c0      	mvns	r0, r0
10001abc:	43c9      	mvns	r1, r1
10001abe:	e9c3 4000 	strd	r4, r0, [r3]
10001ac2:	60d9      	str	r1, [r3, #12]
10001ac4:	e9d2 0104 	ldrd	r0, r1, [r2, #16]
10001ac8:	43c4      	mvns	r4, r0
10001aca:	43c8      	mvns	r0, r1
10001acc:	6991      	ldr	r1, [r2, #24]
10001ace:	609d      	str	r5, [r3, #8]
10001ad0:	43cd      	mvns	r5, r1
10001ad2:	69d1      	ldr	r1, [r2, #28]
10001ad4:	e9c3 4004 	strd	r4, r0, [r3, #16]
10001ad8:	43c9      	mvns	r1, r1
10001ada:	61d9      	str	r1, [r3, #28]
10001adc:	e9d2 0108 	ldrd	r0, r1, [r2, #32]
10001ae0:	43c4      	mvns	r4, r0
10001ae2:	43c8      	mvns	r0, r1
10001ae4:	6a91      	ldr	r1, [r2, #40]	@ 0x28
10001ae6:	619d      	str	r5, [r3, #24]
10001ae8:	43cd      	mvns	r5, r1
10001aea:	6ad1      	ldr	r1, [r2, #44]	@ 0x2c
10001aec:	e9c3 4008 	strd	r4, r0, [r3, #32]
10001af0:	43c9      	mvns	r1, r1
10001af2:	62d9      	str	r1, [r3, #44]	@ 0x2c
10001af4:	e9d2 010c 	ldrd	r0, r1, [r2, #48]	@ 0x30
10001af8:	43c4      	mvns	r4, r0
10001afa:	43c8      	mvns	r0, r1
10001afc:	e9d2 120e 	ldrd	r1, r2, [r2, #56]	@ 0x38
10001b00:	43c9      	mvns	r1, r1
10001b02:	43d2      	mvns	r2, r2
10001b04:	e9c3 400c 	strd	r4, r0, [r3, #48]	@ 0x30
10001b08:	e9c3 120e 	strd	r1, r2, [r3, #56]	@ 0x38
10001b0c:	629d      	str	r5, [r3, #40]	@ 0x28
10001b0e:	b005      	add	sp, #20
10001b10:	e8bd 40f0 	ldmia.w	sp!, {r4, r5, r6, r7, lr}
10001b14:	f7ff bd64 	b.w	100015e0 <updateConfiguration>
10001b18:	2001e384 	.word	0x2001e384
10001b1c:	1000f1f3 	.word	0x1000f1f3
10001b20:	2001e994 	.word	0x2001e994
10001b24:	2000111c 	.word	0x2000111c
10001b28:	3f7851ec 	.word	0x3f7851ec
10001b2c:	bf800000 	.word	0xbf800000
10001b30:	472c4400 	.word	0x472c4400
10001b34:	2001e998 	.word	0x2001e998
10001b38:	20008a08 	.word	0x20008a08
10001b3c:	20008a48 	.word	0x20008a48

10001b40 <emulateCyclesReSID>:
10001b40:	4601      	mov	r1, r0
10001b42:	b500      	push	{lr}
10001b44:	4b06      	ldr	r3, [pc, #24]	@ (10001b60 <emulateCyclesReSID+0x20>)
10001b46:	b083      	sub	sp, #12
10001b48:	6818      	ldr	r0, [r3, #0]
10001b4a:	9101      	str	r1, [sp, #4]
10001b4c:	f002 fda0 	bl	10004690 <_ZN5SID165clockEi>
10001b50:	4b04      	ldr	r3, [pc, #16]	@ (10001b64 <emulateCyclesReSID+0x24>)
10001b52:	9901      	ldr	r1, [sp, #4]
10001b54:	6818      	ldr	r0, [r3, #0]
10001b56:	b003      	add	sp, #12
10001b58:	f85d eb04 	ldr.w	lr, [sp], #4
10001b5c:	f002 bd98 	b.w	10004690 <_ZN5SID165clockEi>
10001b60:	2001e994 	.word	0x2001e994
10001b64:	2001e998 	.word	0x2001e998

10001b68 <emulateCyclesReSIDSingle>:
10001b68:	4b02      	ldr	r3, [pc, #8]	@ (10001b74 <emulateCyclesReSIDSingle+0xc>)
10001b6a:	4601      	mov	r1, r0
10001b6c:	6818      	ldr	r0, [r3, #0]
10001b6e:	f002 bd8f 	b.w	10004690 <_ZN5SID165clockEi>
10001b72:	bf00      	nop
10001b74:	2001e994 	.word	0x2001e994

10001b78 <writeReSID>:
10001b78:	4603      	mov	r3, r0
10001b7a:	460a      	mov	r2, r1
10001b7c:	4902      	ldr	r1, [pc, #8]	@ (10001b88 <writeReSID+0x10>)
10001b7e:	6808      	ldr	r0, [r1, #0]
10001b80:	4619      	mov	r1, r3
10001b82:	f002 baad 	b.w	100040e0 <_ZN5SID165writeEjj>
10001b86:	bf00      	nop
10001b88:	2001e994 	.word	0x2001e994

10001b8c <writeReSID2>:
10001b8c:	4603      	mov	r3, r0
10001b8e:	460a      	mov	r2, r1
10001b90:	4902      	ldr	r1, [pc, #8]	@ (10001b9c <writeReSID2+0x10>)
10001b92:	6808      	ldr	r0, [r1, #0]
10001b94:	4619      	mov	r1, r3
10001b96:	f002 baa3 	b.w	100040e0 <_ZN5SID165writeEjj>
10001b9a:	bf00      	nop
10001b9c:	2001e998 	.word	0x2001e998

10001ba0 <outputDigi>:
10001ba0:	4603      	mov	r3, r0
10001ba2:	460a      	mov	r2, r1
10001ba4:	4902      	ldr	r1, [pc, #8]	@ (10001bb0 <outputDigi+0x10>)
10001ba6:	6808      	ldr	r0, [r1, #0]
10001ba8:	4619      	mov	r1, r3
10001baa:	f002 ba73 	b.w	10004094 <_ZN5SID1615forceDigiOutputEii>
10001bae:	bf00      	nop
10001bb0:	2001e994 	.word	0x2001e994

10001bb4 <outputReSID>:
10001bb4:	b530      	push	{r4, r5, lr}
10001bb6:	4b12      	ldr	r3, [pc, #72]	@ (10001c00 <outputReSID+0x4c>)
10001bb8:	b083      	sub	sp, #12
10001bba:	4605      	mov	r5, r0
10001bbc:	6818      	ldr	r0, [r3, #0]
10001bbe:	9101      	str	r1, [sp, #4]
10001bc0:	f002 fa6e 	bl	100040a0 <_ZN5SID166outputEv>
10001bc4:	4b0f      	ldr	r3, [pc, #60]	@ (10001c04 <outputReSID+0x50>)
10001bc6:	4604      	mov	r4, r0
10001bc8:	6818      	ldr	r0, [r3, #0]
10001bca:	f002 fa69 	bl	100040a0 <_ZN5SID166outputEv>
10001bce:	4b0e      	ldr	r3, [pc, #56]	@ (10001c08 <outputReSID+0x54>)
10001bd0:	4a0e      	ldr	r2, [pc, #56]	@ (10001c0c <outputReSID+0x58>)
10001bd2:	f8d3 c000 	ldr.w	ip, [r3]
10001bd6:	4b0e      	ldr	r3, [pc, #56]	@ (10001c10 <outputReSID+0x5c>)
10001bd8:	f8d2 e000 	ldr.w	lr, [r2]
10001bdc:	681b      	ldr	r3, [r3, #0]
10001bde:	4a0d      	ldr	r2, [pc, #52]	@ (10001c14 <outputReSID+0x60>)
10001be0:	fb00 f303 	mul.w	r3, r0, r3
10001be4:	fb0e f000 	mul.w	r0, lr, r0
10001be8:	6812      	ldr	r2, [r2, #0]
10001bea:	fb0c 3304 	mla	r3, ip, r4, r3
10001bee:	fb02 0004 	mla	r0, r2, r4, r0
10001bf2:	9901      	ldr	r1, [sp, #4]
10001bf4:	141b      	asrs	r3, r3, #16
10001bf6:	1400      	asrs	r0, r0, #16
10001bf8:	8028      	strh	r0, [r5, #0]
10001bfa:	800b      	strh	r3, [r1, #0]
10001bfc:	b003      	add	sp, #12
10001bfe:	bd30      	pop	{r4, r5, pc}
10001c00:	2001e994 	.word	0x2001e994
10001c04:	2001e998 	.word	0x2001e998
10001c08:	200042b0 	.word	0x200042b0
10001c0c:	200042a4 	.word	0x200042a4
10001c10:	200042b4 	.word	0x200042b4
10001c14:	200042a0 	.word	0x200042a0

10001c18 <outputReSIDFM>:
10001c18:	b530      	push	{r4, r5, lr}
10001c1a:	4b16      	ldr	r3, [pc, #88]	@ (10001c74 <outputReSIDFM+0x5c>)
10001c1c:	b083      	sub	sp, #12
10001c1e:	4605      	mov	r5, r0
10001c20:	6818      	ldr	r0, [r3, #0]
10001c22:	e9cd 2100 	strd	r2, r1, [sp]
10001c26:	f002 fa3b 	bl	100040a0 <_ZN5SID166outputEv>
10001c2a:	4b13      	ldr	r3, [pc, #76]	@ (10001c78 <outputReSIDFM+0x60>)
10001c2c:	4c13      	ldr	r4, [pc, #76]	@ (10001c7c <outputReSIDFM+0x64>)
10001c2e:	f8d3 e000 	ldr.w	lr, [r3]
10001c32:	4b13      	ldr	r3, [pc, #76]	@ (10001c80 <outputReSIDFM+0x68>)
10001c34:	f8d4 c000 	ldr.w	ip, [r4]
10001c38:	4c12      	ldr	r4, [pc, #72]	@ (10001c84 <outputReSIDFM+0x6c>)
10001c3a:	9a00      	ldr	r2, [sp, #0]
10001c3c:	681b      	ldr	r3, [r3, #0]
10001c3e:	6824      	ldr	r4, [r4, #0]
10001c40:	fb0e fe02 	mul.w	lr, lr, r2
10001c44:	fb00 f303 	mul.w	r3, r0, r3
10001c48:	fb0c fc02 	mul.w	ip, ip, r2
10001c4c:	fb04 f200 	mul.w	r2, r4, r0
10001c50:	eb03 034e 	add.w	r3, r3, lr, lsl #1
10001c54:	480c      	ldr	r0, [pc, #48]	@ (10001c88 <outputReSIDFM+0x70>)
10001c56:	141b      	asrs	r3, r3, #16
10001c58:	eb02 024c 	add.w	r2, r2, ip, lsl #1
10001c5c:	1412      	asrs	r2, r2, #16
10001c5e:	4283      	cmp	r3, r0
10001c60:	bfb8      	it	lt
10001c62:	4603      	movlt	r3, r0
10001c64:	4282      	cmp	r2, r0
10001c66:	bfb8      	it	lt
10001c68:	4602      	movlt	r2, r0
10001c6a:	9901      	ldr	r1, [sp, #4]
10001c6c:	802b      	strh	r3, [r5, #0]
10001c6e:	800a      	strh	r2, [r1, #0]
10001c70:	b003      	add	sp, #12
10001c72:	bd30      	pop	{r4, r5, pc}
10001c74:	2001e994 	.word	0x2001e994
10001c78:	200042a4 	.word	0x200042a4
10001c7c:	200042b4 	.word	0x200042b4
10001c80:	200042a0 	.word	0x200042a0
10001c84:	200042b0 	.word	0x200042b0
10001c88:	ffff8001 	.word	0xffff8001

10001c8c <readRegs>:
10001c8c:	b510      	push	{r4, lr}
10001c8e:	460c      	mov	r4, r1
10001c90:	4a05      	ldr	r2, [pc, #20]	@ (10001ca8 <readRegs+0x1c>)
10001c92:	4601      	mov	r1, r0
10001c94:	6810      	ldr	r0, [r2, #0]
10001c96:	f002 fa13 	bl	100040c0 <_ZN5SID1613readRegistersEPh>
10001c9a:	4b04      	ldr	r3, [pc, #16]	@ (10001cac <readRegs+0x20>)
10001c9c:	4621      	mov	r1, r4
10001c9e:	e8bd 4010 	ldmia.w	sp!, {r4, lr}
10001ca2:	6818      	ldr	r0, [r3, #0]
10001ca4:	f002 ba0c 	b.w	100040c0 <_ZN5SID1613readRegistersEPh>
10001ca8:	2001e994 	.word	0x2001e994
10001cac:	2001e998 	.word	0x2001e998

10001cb0 <OPLWriteReg>:
10001cb0:	e92d 47f0 	stmdb	sp!, {r4, r5, r6, r7, r8, r9, sl, lr}
10001cb4:	f001 03e0 	and.w	r3, r1, #224	@ 0xe0
10001cb8:	2b80      	cmp	r3, #128	@ 0x80
10001cba:	b082      	sub	sp, #8
10001cbc:	fa5f fc82 	uxtb.w	ip, r2
10001cc0:	f000 8204 	beq.w	100020cc <OPLWriteReg+0x41c>
10001cc4:	dc7d      	bgt.n	10001dc2 <OPLWriteReg+0x112>
10001cc6:	2b40      	cmp	r3, #64	@ 0x40
10001cc8:	f000 81d8 	beq.w	1000207c <OPLWriteReg+0x3cc>
10001ccc:	f300 8180 	bgt.w	10001fd0 <OPLWriteReg+0x320>
10001cd0:	2b00      	cmp	r3, #0
10001cd2:	f000 814a 	beq.w	10001f6a <OPLWriteReg+0x2ba>
10001cd6:	4bb8      	ldr	r3, [pc, #736]	@ (10001fb8 <OPLWriteReg+0x308>)
10001cd8:	f001 011f 	and.w	r1, r1, #31
10001cdc:	565b      	ldrsb	r3, [r3, r1]
10001cde:	2b00      	cmp	r3, #0
10001ce0:	db6c      	blt.n	10001dbc <OPLWriteReg+0x10c>
10001ce2:	f04f 0eb0 	mov.w	lr, #176	@ 0xb0
10001ce6:	4eb5      	ldr	r6, [pc, #724]	@ (10001fbc <OPLWriteReg+0x30c>)
10001ce8:	f002 050f 	and.w	r5, r2, #15
10001cec:	5d75      	ldrb	r5, [r6, r5]
10001cee:	105c      	asrs	r4, r3, #1
10001cf0:	9501      	str	r5, [sp, #4]
10001cf2:	f00c 0720 	and.w	r7, ip, #32
10001cf6:	f00c 0540 	and.w	r5, ip, #64	@ 0x40
10001cfa:	fb0e fc04 	mul.w	ip, lr, r4
10001cfe:	f003 0301 	and.w	r3, r3, #1
10001d02:	f3c2 1100 	ubfx	r1, r2, #4, #1
10001d06:	f342 16c0 	sbfx	r6, r2, #7, #1
10001d0a:	eb03 0283 	add.w	r2, r3, r3, lsl #2
10001d0e:	eb0c 1202 	add.w	r2, ip, r2, lsl #4
10001d12:	eb00 0e02 	add.w	lr, r0, r2
10001d16:	f081 0101 	eor.w	r1, r1, #1
10001d1a:	f88e 504c 	strb.w	r5, [lr, #76]	@ 0x4c
10001d1e:	0049      	lsls	r1, r1, #1
10001d20:	9d01      	ldr	r5, [sp, #4]
10001d22:	b2c9      	uxtb	r1, r1
10001d24:	f88e 100c 	strb.w	r1, [lr, #12]
10001d28:	4484      	add	ip, r0
10001d2a:	f88e 7029 	strb.w	r7, [lr, #41]	@ 0x29
10001d2e:	f8ce 6048 	str.w	r6, [lr, #72]	@ 0x48
10001d32:	f88e 500f 	strb.w	r5, [lr, #15]
10001d36:	46a0      	mov	r8, r4
10001d38:	f8dc 40a4 	ldr.w	r4, [ip, #164]	@ 0xa4
10001d3c:	fb05 f404 	mul.w	r4, r5, r4
10001d40:	f8ce 4014 	str.w	r4, [lr, #20]
10001d44:	f89c c0ac 	ldrb.w	ip, [ip, #172]	@ 0xac
10001d48:	fa4c f101 	asr.w	r1, ip, r1
10001d4c:	f89e c00e 	ldrb.w	ip, [lr, #14]
10001d50:	4561      	cmp	r1, ip
10001d52:	d033      	beq.n	10001dbc <OPLWriteReg+0x10c>
10001d54:	f88e 100e 	strb.w	r1, [lr, #14]
10001d58:	5882      	ldr	r2, [r0, r2]
10001d5a:	440a      	add	r2, r1
10001d5c:	2a4d      	cmp	r2, #77	@ 0x4d
10001d5e:	f240 824e 	bls.w	100021fe <OPLWriteReg+0x54e>
10001d62:	f04f 0c68 	mov.w	ip, #104	@ 0x68
10001d66:	f04f 0900 	mov.w	r9, #0
10001d6a:	4e95      	ldr	r6, [pc, #596]	@ (10001fc0 <OPLWriteReg+0x310>)
10001d6c:	4f95      	ldr	r7, [pc, #596]	@ (10001fc4 <OPLWriteReg+0x314>)
10001d6e:	22b0      	movs	r2, #176	@ 0xb0
10001d70:	f04f 0e00 	mov.w	lr, #0
10001d74:	fb02 f208 	mul.w	r2, r2, r8
10001d78:	f369 0e07 	bfi	lr, r9, #0, #8
10001d7c:	f36c 2e0f 	bfi	lr, ip, #8, #8
10001d80:	eb03 0c83 	add.w	ip, r3, r3, lsl #2
10001d84:	eb02 1c0c 	add.w	ip, r2, ip, lsl #4
10001d88:	425b      	negs	r3, r3
10001d8a:	4484      	add	ip, r0
10001d8c:	f003 0350 	and.w	r3, r3, #80	@ 0x50
10001d90:	4413      	add	r3, r2
10001d92:	f8dc 2004 	ldr.w	r2, [ip, #4]
10001d96:	4403      	add	r3, r0
10001d98:	440a      	add	r2, r1
10001d9a:	5cb0      	ldrb	r0, [r6, r2]
10001d9c:	5cba      	ldrb	r2, [r7, r2]
10001d9e:	f360 4e17 	bfi	lr, r0, #16, #8
10001da2:	f362 6e1f 	bfi	lr, r2, #24, #8
10001da6:	f8c3 e03c 	str.w	lr, [r3, #60]	@ 0x3c
10001daa:	f8dc 3008 	ldr.w	r3, [ip, #8]
10001dae:	440b      	add	r3, r1
10001db0:	5cf2      	ldrb	r2, [r6, r3]
10001db2:	5cfb      	ldrb	r3, [r7, r3]
10001db4:	f88c 2040 	strb.w	r2, [ip, #64]	@ 0x40
10001db8:	f88c 3041 	strb.w	r3, [ip, #65]	@ 0x41
10001dbc:	b002      	add	sp, #8
10001dbe:	e8bd 87f0 	ldmia.w	sp!, {r4, r5, r6, r7, r8, r9, sl, pc}
10001dc2:	2bc0      	cmp	r3, #192	@ 0xc0
10001dc4:	f000 81b5 	beq.w	10002132 <OPLWriteReg+0x482>
10001dc8:	2be0      	cmp	r3, #224	@ 0xe0
10001dca:	f000 80d9 	beq.w	10001f80 <OPLWriteReg+0x2d0>
10001dce:	2ba0      	cmp	r3, #160	@ 0xa0
10001dd0:	d1f4      	bne.n	10001dbc <OPLWriteReg+0x10c>
10001dd2:	29bd      	cmp	r1, #189	@ 0xbd
10001dd4:	f000 8226 	beq.w	10002224 <OPLWriteReg+0x574>
10001dd8:	f001 030f 	and.w	r3, r1, #15
10001ddc:	2b08      	cmp	r3, #8
10001dde:	dced      	bgt.n	10001dbc <OPLWriteReg+0x10c>
10001de0:	f04f 0eb0 	mov.w	lr, #176	@ 0xb0
10001de4:	fb0e 0e03 	mla	lr, lr, r3, r0
10001de8:	f8de 40a0 	ldr.w	r4, [lr, #160]	@ 0xa0
10001dec:	06c9      	lsls	r1, r1, #27
10001dee:	4625      	mov	r5, r4
10001df0:	f100 81d1 	bmi.w	10002196 <OPLWriteReg+0x4e6>
10001df4:	f404 51f8 	and.w	r1, r4, #7936	@ 0x1f00
10001df8:	ea41 010c 	orr.w	r1, r1, ip
10001dfc:	468e      	mov	lr, r1
10001dfe:	45ae      	cmp	lr, r5
10001e00:	d0dc      	beq.n	10001dbc <OPLWriteReg+0x10c>
10001e02:	4a71      	ldr	r2, [pc, #452]	@ (10001fc8 <OPLWriteReg+0x318>)
10001e04:	f3c1 0c09 	ubfx	ip, r1, #0, #10
10001e08:	fb02 fc0c 	mul.w	ip, r2, ip
10001e0c:	4c6f      	ldr	r4, [pc, #444]	@ (10001fcc <OPLWriteReg+0x31c>)
10001e0e:	118a      	asrs	r2, r1, #6
10001e10:	ea4f 2c9c 	mov.w	ip, ip, lsr #10
10001e14:	1289      	asrs	r1, r1, #10
10001e16:	ea4f 1c8c 	mov.w	ip, ip, lsl #6
10001e1a:	f1c1 0107 	rsb	r1, r1, #7
10001e1e:	5ca2      	ldrb	r2, [r4, r2]
10001e20:	fa2c f401 	lsr.w	r4, ip, r1
10001e24:	21b0      	movs	r1, #176	@ 0xb0
10001e26:	fb01 f503 	mul.w	r5, r1, r3
10001e2a:	ea4f 2c5e 	mov.w	ip, lr, lsr #9
10001e2e:	f3ce 2100 	ubfx	r1, lr, #8, #1
10001e32:	f00c 060e 	and.w	r6, ip, #14
10001e36:	430e      	orrs	r6, r1
10001e38:	1941      	adds	r1, r0, r5
10001e3a:	e9c1 4229 	strd	r4, r2, [r1, #164]	@ 0xa4
10001e3e:	f8c1 e0a0 	str.w	lr, [r1, #160]	@ 0xa0
10001e42:	f890 e674 	ldrb.w	lr, [r0, #1652]	@ 0x674
10001e46:	46a0      	mov	r8, r4
10001e48:	f01e 0f40 	tst.w	lr, #64	@ 0x40
10001e4c:	bf18      	it	ne
10001e4e:	46b4      	movne	ip, r6
10001e50:	f891 e00f 	ldrb.w	lr, [r1, #15]
10001e54:	f881 c0ac 	strb.w	ip, [r1, #172]	@ 0xac
10001e58:	fb04 fe0e 	mul.w	lr, r4, lr
10001e5c:	f891 405d 	ldrb.w	r4, [r1, #93]	@ 0x5d
10001e60:	f8c1 e014 	str.w	lr, [r1, #20]
10001e64:	f891 e00d 	ldrb.w	lr, [r1, #13]
10001e68:	fa22 fe0e 	lsr.w	lr, r2, lr
10001e6c:	40e2      	lsrs	r2, r4
10001e6e:	6acc      	ldr	r4, [r1, #44]	@ 0x2c
10001e70:	44a6      	add	lr, r4
10001e72:	6fcc      	ldr	r4, [r1, #124]	@ 0x7c
10001e74:	f8c1 e030 	str.w	lr, [r1, #48]	@ 0x30
10001e78:	4422      	add	r2, r4
10001e7a:	f8c1 2080 	str.w	r2, [r1, #128]	@ 0x80
10001e7e:	7b0a      	ldrb	r2, [r1, #12]
10001e80:	f891 e00e 	ldrb.w	lr, [r1, #14]
10001e84:	fa4c f202 	asr.w	r2, ip, r2
10001e88:	4572      	cmp	r2, lr
10001e8a:	d02c      	beq.n	10001ee6 <OPLWriteReg+0x236>
10001e8c:	738a      	strb	r2, [r1, #14]
10001e8e:	f850 e005 	ldr.w	lr, [r0, r5]
10001e92:	4496      	add	lr, r2
10001e94:	f1be 0f4d 	cmp.w	lr, #77	@ 0x4d
10001e98:	f200 826f 	bhi.w	1000237a <OPLWriteReg+0x6ca>
10001e9c:	4c48      	ldr	r4, [pc, #288]	@ (10001fc0 <OPLWriteReg+0x310>)
10001e9e:	4d49      	ldr	r5, [pc, #292]	@ (10001fc4 <OPLWriteReg+0x314>)
10001ea0:	4626      	mov	r6, r4
10001ea2:	f814 400e 	ldrb.w	r4, [r4, lr]
10001ea6:	462f      	mov	r7, r5
10001ea8:	46a2      	mov	sl, r4
10001eaa:	f815 400e 	ldrb.w	r4, [r5, lr]
10001eae:	46a1      	mov	r9, r4
10001eb0:	6849      	ldr	r1, [r1, #4]
10001eb2:	f04f 0eb0 	mov.w	lr, #176	@ 0xb0
10001eb6:	1854      	adds	r4, r2, r1
10001eb8:	2100      	movs	r1, #0
10001eba:	4635      	mov	r5, r6
10001ebc:	f36a 0107 	bfi	r1, sl, #0, #8
10001ec0:	5d36      	ldrb	r6, [r6, r4]
10001ec2:	f369 210f 	bfi	r1, r9, #8, #8
10001ec6:	5d3c      	ldrb	r4, [r7, r4]
10001ec8:	f366 4117 	bfi	r1, r6, #16, #8
10001ecc:	f364 611f 	bfi	r1, r4, #24, #8
10001ed0:	fb0e 0403 	mla	r4, lr, r3, r0
10001ed4:	63e1      	str	r1, [r4, #60]	@ 0x3c
10001ed6:	68a1      	ldr	r1, [r4, #8]
10001ed8:	440a      	add	r2, r1
10001eda:	5ca9      	ldrb	r1, [r5, r2]
10001edc:	5cba      	ldrb	r2, [r7, r2]
10001ede:	f884 1040 	strb.w	r1, [r4, #64]	@ 0x40
10001ee2:	f884 2041 	strb.w	r2, [r4, #65]	@ 0x41
10001ee6:	21b0      	movs	r1, #176	@ 0xb0
10001ee8:	fb01 0103 	mla	r1, r1, r3, r0
10001eec:	f891 205f 	ldrb.w	r2, [r1, #95]	@ 0x5f
10001ef0:	fb08 f202 	mul.w	r2, r8, r2
10001ef4:	664a      	str	r2, [r1, #100]	@ 0x64
10001ef6:	f891 205c 	ldrb.w	r2, [r1, #92]	@ 0x5c
10001efa:	fa4c f202 	asr.w	r2, ip, r2
10001efe:	f891 c05e 	ldrb.w	ip, [r1, #94]	@ 0x5e
10001f02:	4562      	cmp	r2, ip
10001f04:	f43f af5a 	beq.w	10001dbc <OPLWriteReg+0x10c>
10001f08:	f8d1 c050 	ldr.w	ip, [r1, #80]	@ 0x50
10001f0c:	f881 205e 	strb.w	r2, [r1, #94]	@ 0x5e
10001f10:	eb02 010c 	add.w	r1, r2, ip
10001f14:	294d      	cmp	r1, #77	@ 0x4d
10001f16:	f200 8229 	bhi.w	1000236c <OPLWriteReg+0x6bc>
10001f1a:	4c29      	ldr	r4, [pc, #164]	@ (10001fc0 <OPLWriteReg+0x310>)
10001f1c:	4d29      	ldr	r5, [pc, #164]	@ (10001fc4 <OPLWriteReg+0x314>)
10001f1e:	4626      	mov	r6, r4
10001f20:	462f      	mov	r7, r5
10001f22:	f814 e001 	ldrb.w	lr, [r4, r1]
10001f26:	f815 c001 	ldrb.w	ip, [r5, r1]
10001f2a:	21b0      	movs	r1, #176	@ 0xb0
10001f2c:	fb01 f303 	mul.w	r3, r1, r3
10001f30:	2100      	movs	r1, #0
10001f32:	f36e 0107 	bfi	r1, lr, #0, #8
10001f36:	f36c 210f 	bfi	r1, ip, #8, #8
10001f3a:	eb00 0c03 	add.w	ip, r0, r3
10001f3e:	f8dc 0054 	ldr.w	r0, [ip, #84]	@ 0x54
10001f42:	f8dc 3058 	ldr.w	r3, [ip, #88]	@ 0x58
10001f46:	4410      	add	r0, r2
10001f48:	f816 e000 	ldrb.w	lr, [r6, r0]
10001f4c:	5c38      	ldrb	r0, [r7, r0]
10001f4e:	f36e 4117 	bfi	r1, lr, #16, #8
10001f52:	f360 611f 	bfi	r1, r0, #24, #8
10001f56:	441a      	add	r2, r3
10001f58:	5cbb      	ldrb	r3, [r7, r2]
10001f5a:	f8cc 108c 	str.w	r1, [ip, #140]	@ 0x8c
10001f5e:	5cb1      	ldrb	r1, [r6, r2]
10001f60:	f88c 3091 	strb.w	r3, [ip, #145]	@ 0x91
10001f64:	f88c 1090 	strb.w	r1, [ip, #144]	@ 0x90
10001f68:	e728      	b.n	10001dbc <OPLWriteReg+0x10c>
10001f6a:	f001 011f 	and.w	r1, r1, #31
10001f6e:	2901      	cmp	r1, #1
10001f70:	f000 814e 	beq.w	10002210 <OPLWriteReg+0x560>
10001f74:	2908      	cmp	r1, #8
10001f76:	f47f af21 	bne.w	10001dbc <OPLWriteReg+0x10c>
10001f7a:	f880 2674 	strb.w	r2, [r0, #1652]	@ 0x674
10001f7e:	e71d      	b.n	10001dbc <OPLWriteReg+0x10c>
10001f80:	f890 3660 	ldrb.w	r3, [r0, #1632]	@ 0x660
10001f84:	2b00      	cmp	r3, #0
10001f86:	f43f af19 	beq.w	10001dbc <OPLWriteReg+0x10c>
10001f8a:	4b0b      	ldr	r3, [pc, #44]	@ (10001fb8 <OPLWriteReg+0x308>)
10001f8c:	f001 011f 	and.w	r1, r1, #31
10001f90:	565b      	ldrsb	r3, [r3, r1]
10001f92:	2b00      	cmp	r3, #0
10001f94:	f6ff af12 	blt.w	10001dbc <OPLWriteReg+0x10c>
10001f98:	21b0      	movs	r1, #176	@ 0xb0
10001f9a:	105a      	asrs	r2, r3, #1
10001f9c:	fb01 f202 	mul.w	r2, r1, r2
10001fa0:	f003 0301 	and.w	r3, r3, #1
10001fa4:	eb03 0383 	add.w	r3, r3, r3, lsl #2
10001fa8:	eb02 1303 	add.w	r3, r2, r3, lsl #4
10001fac:	f00c 0c03 	and.w	ip, ip, #3
10001fb0:	4418      	add	r0, r3
10001fb2:	f8a0 c04e 	strh.w	ip, [r0, #78]	@ 0x4e
10001fb6:	e701      	b.n	10001dbc <OPLWriteReg+0x10c>
10001fb8:	2000047c 	.word	0x2000047c
10001fbc:	200002a4 	.word	0x200002a4
10001fc0:	200002b4 	.word	0x200002b4
10001fc4:	20000314 	.word	0x20000314
10001fc8:	0001209a 	.word	0x0001209a
10001fcc:	200003fc 	.word	0x200003fc
10001fd0:	2b60      	cmp	r3, #96	@ 0x60
10001fd2:	f47f aef3 	bne.w	10001dbc <OPLWriteReg+0x10c>
10001fd6:	4bc8      	ldr	r3, [pc, #800]	@ (100022f8 <OPLWriteReg+0x648>)
10001fd8:	f001 011f 	and.w	r1, r1, #31
10001fdc:	5659      	ldrsb	r1, [r3, r1]
10001fde:	2900      	cmp	r1, #0
10001fe0:	f6ff aeec 	blt.w	10001dbc <OPLWriteReg+0x10c>
10001fe4:	f04f 0eb0 	mov.w	lr, #176	@ 0xb0
10001fe8:	ea4f 132c 	mov.w	r3, ip, asr #4
10001fec:	009d      	lsls	r5, r3, #2
10001fee:	3510      	adds	r5, #16
10001ff0:	2b00      	cmp	r3, #0
10001ff2:	bf18      	it	ne
10001ff4:	462b      	movne	r3, r5
10001ff6:	104c      	asrs	r4, r1, #1
10001ff8:	fb0e fe04 	mul.w	lr, lr, r4
10001ffc:	f001 0101 	and.w	r1, r1, #1
10002000:	eb01 0581 	add.w	r5, r1, r1, lsl #2
10002004:	eb0e 1e05 	add.w	lr, lr, r5, lsl #4
10002008:	f840 300e 	str.w	r3, [r0, lr]
1000200c:	4486      	add	lr, r0
1000200e:	46a0      	mov	r8, r4
10002010:	f89e 400e 	ldrb.w	r4, [lr, #14]
10002014:	eb04 0e03 	add.w	lr, r4, r3
10002018:	f1be 0f4d 	cmp.w	lr, #77	@ 0x4d
1000201c:	4625      	mov	r5, r4
1000201e:	f240 80ad 	bls.w	1000217c <OPLWriteReg+0x4cc>
10002022:	f04f 0a68 	mov.w	sl, #104	@ 0x68
10002026:	f04f 0900 	mov.w	r9, #0
1000202a:	4eb4      	ldr	r6, [pc, #720]	@ (100022fc <OPLWriteReg+0x64c>)
1000202c:	4fb4      	ldr	r7, [pc, #720]	@ (10002300 <OPLWriteReg+0x650>)
1000202e:	23b0      	movs	r3, #176	@ 0xb0
10002030:	fb08 f303 	mul.w	r3, r8, r3
10002034:	eb01 0e81 	add.w	lr, r1, r1, lsl #2
10002038:	eb03 130e 	add.w	r3, r3, lr, lsl #4
1000203c:	4403      	add	r3, r0
1000203e:	f012 020f 	ands.w	r2, r2, #15
10002042:	f883 a03d 	strb.w	sl, [r3, #61]	@ 0x3d
10002046:	f883 903c 	strb.w	r9, [r3, #60]	@ 0x3c
1000204a:	d005      	beq.n	10002058 <OPLWriteReg+0x3a8>
1000204c:	ea4f 028c 	mov.w	r2, ip, lsl #2
10002050:	f002 023c 	and.w	r2, r2, #60	@ 0x3c
10002054:	3210      	adds	r2, #16
10002056:	4415      	add	r5, r2
10002058:	23b0      	movs	r3, #176	@ 0xb0
1000205a:	fb03 f308 	mul.w	r3, r3, r8
1000205e:	eb01 0181 	add.w	r1, r1, r1, lsl #2
10002062:	f816 e005 	ldrb.w	lr, [r6, r5]
10002066:	f817 c005 	ldrb.w	ip, [r7, r5]
1000206a:	eb03 1301 	add.w	r3, r3, r1, lsl #4
1000206e:	4403      	add	r3, r0
10002070:	605a      	str	r2, [r3, #4]
10002072:	f883 e03e 	strb.w	lr, [r3, #62]	@ 0x3e
10002076:	f883 c03f 	strb.w	ip, [r3, #63]	@ 0x3f
1000207a:	e69f      	b.n	10001dbc <OPLWriteReg+0x10c>
1000207c:	4b9e      	ldr	r3, [pc, #632]	@ (100022f8 <OPLWriteReg+0x648>)
1000207e:	f001 011f 	and.w	r1, r1, #31
10002082:	565b      	ldrsb	r3, [r3, r1]
10002084:	2b00      	cmp	r3, #0
10002086:	f6ff ae99 	blt.w	10001dbc <OPLWriteReg+0x10c>
1000208a:	ea5f 1eac 	movs.w	lr, ip, asr #6
1000208e:	ea4f 0263 	mov.w	r2, r3, asr #1
10002092:	f003 0301 	and.w	r3, r3, #1
10002096:	d16b      	bne.n	10002170 <OPLWriteReg+0x4c0>
10002098:	241f      	movs	r4, #31
1000209a:	f04f 0e1f 	mov.w	lr, #31
1000209e:	ea4f 0c8c 	mov.w	ip, ip, lsl #2
100020a2:	fa5f f18c 	uxtb.w	r1, ip
100020a6:	f04f 0cb0 	mov.w	ip, #176	@ 0xb0
100020aa:	fb0c f202 	mul.w	r2, ip, r2
100020ae:	eb03 0383 	add.w	r3, r3, r3, lsl #2
100020b2:	eb02 1303 	add.w	r3, r2, r3, lsl #4
100020b6:	4403      	add	r3, r0
100020b8:	f883 e00d 	strb.w	lr, [r3, #13]
100020bc:	4402      	add	r2, r0
100020be:	62d9      	str	r1, [r3, #44]	@ 0x2c
100020c0:	f8d2 20a8 	ldr.w	r2, [r2, #168]	@ 0xa8
100020c4:	40e2      	lsrs	r2, r4
100020c6:	440a      	add	r2, r1
100020c8:	631a      	str	r2, [r3, #48]	@ 0x30
100020ca:	e677      	b.n	10001dbc <OPLWriteReg+0x10c>
100020cc:	4b8a      	ldr	r3, [pc, #552]	@ (100022f8 <OPLWriteReg+0x648>)
100020ce:	f001 011f 	and.w	r1, r1, #31
100020d2:	5659      	ldrsb	r1, [r3, r1]
100020d4:	2900      	cmp	r1, #0
100020d6:	f6ff ae71 	blt.w	10001dbc <OPLWriteReg+0x10c>
100020da:	f04f 0eb0 	mov.w	lr, #176	@ 0xb0
100020de:	104b      	asrs	r3, r1, #1
100020e0:	fb0e f303 	mul.w	r3, lr, r3
100020e4:	f001 0101 	and.w	r1, r1, #1
100020e8:	eb01 0181 	add.w	r1, r1, r1, lsl #2
100020ec:	eb03 1301 	add.w	r3, r3, r1, lsl #4
100020f0:	4403      	add	r3, r0
100020f2:	ea4f 102c 	mov.w	r0, ip, asr #4
100020f6:	ea4f 0c8c 	mov.w	ip, ip, lsl #2
100020fa:	f00c 0c3c 	and.w	ip, ip, #60	@ 0x3c
100020fe:	f012 020f 	ands.w	r2, r2, #15
10002102:	f10c 0c10 	add.w	ip, ip, #16
10002106:	bf18      	it	ne
10002108:	4662      	movne	r2, ip
1000210a:	f8df e200 	ldr.w	lr, [pc, #512]	@ 1000230c <OPLWriteReg+0x65c>
1000210e:	7b99      	ldrb	r1, [r3, #14]
10002110:	f81e 0000 	ldrb.w	r0, [lr, r0]
10002114:	f8df c1e8 	ldr.w	ip, [pc, #488]	@ 10002300 <OPLWriteReg+0x650>
10002118:	0040      	lsls	r0, r0, #1
1000211a:	6398      	str	r0, [r3, #56]	@ 0x38
1000211c:	4877      	ldr	r0, [pc, #476]	@ (100022fc <OPLWriteReg+0x64c>)
1000211e:	4411      	add	r1, r2
10002120:	5c40      	ldrb	r0, [r0, r1]
10002122:	f81c 1001 	ldrb.w	r1, [ip, r1]
10002126:	609a      	str	r2, [r3, #8]
10002128:	f883 0040 	strb.w	r0, [r3, #64]	@ 0x40
1000212c:	f883 1041 	strb.w	r1, [r3, #65]	@ 0x41
10002130:	e644      	b.n	10001dbc <OPLWriteReg+0x10c>
10002132:	f001 010f 	and.w	r1, r1, #15
10002136:	2908      	cmp	r1, #8
10002138:	f73f ae40 	bgt.w	10001dbc <OPLWriteReg+0x10c>
1000213c:	f012 030e 	ands.w	r3, r2, #14
10002140:	bf08      	it	eq
10002142:	469c      	moveq	ip, r3
10002144:	f04f 03b0 	mov.w	r3, #176	@ 0xb0
10002148:	fb03 0301 	mla	r3, r3, r1, r0
1000214c:	bf1c      	itt	ne
1000214e:	f3cc 0c42 	ubfxne	ip, ip, #1, #3
10002152:	f10c 0c07 	addne.w	ip, ip, #7
10002156:	f002 0201 	and.w	r2, r2, #1
1000215a:	f883 c018 	strb.w	ip, [r3, #24]
1000215e:	f883 2028 	strb.w	r2, [r3, #40]	@ 0x28
10002162:	b9b2      	cbnz	r2, 10002192 <OPLWriteReg+0x4e2>
10002164:	4a67      	ldr	r2, [pc, #412]	@ (10002304 <OPLWriteReg+0x654>)
10002166:	23b0      	movs	r3, #176	@ 0xb0
10002168:	fb03 0101 	mla	r1, r3, r1, r0
1000216c:	61ca      	str	r2, [r1, #28]
1000216e:	e625      	b.n	10001dbc <OPLWriteReg+0x10c>
10002170:	f1ce 0e03 	rsb	lr, lr, #3
10002174:	fa5f fe8e 	uxtb.w	lr, lr
10002178:	4674      	mov	r4, lr
1000217a:	e790      	b.n	1000209e <OPLWriteReg+0x3ee>
1000217c:	4b5f      	ldr	r3, [pc, #380]	@ (100022fc <OPLWriteReg+0x64c>)
1000217e:	4c60      	ldr	r4, [pc, #384]	@ (10002300 <OPLWriteReg+0x650>)
10002180:	461e      	mov	r6, r3
10002182:	f813 300e 	ldrb.w	r3, [r3, lr]
10002186:	4627      	mov	r7, r4
10002188:	4699      	mov	r9, r3
1000218a:	f814 300e 	ldrb.w	r3, [r4, lr]
1000218e:	469a      	mov	sl, r3
10002190:	e74d      	b.n	1000202e <OPLWriteReg+0x37e>
10002192:	4a5d      	ldr	r2, [pc, #372]	@ (10002308 <OPLWriteReg+0x658>)
10002194:	e7e7      	b.n	10002166 <OPLWriteReg+0x4b6>
10002196:	ea4f 2c0c 	mov.w	ip, ip, lsl #8
1000219a:	f40c 51f8 	and.w	r1, ip, #7936	@ 0x1f00
1000219e:	f8de c044 	ldr.w	ip, [lr, #68]	@ 0x44
100021a2:	fa5f fe84 	uxtb.w	lr, r4
100021a6:	ea41 0e0e 	orr.w	lr, r1, lr
100021aa:	0692      	lsls	r2, r2, #26
100021ac:	4671      	mov	r1, lr
100021ae:	f140 80af 	bpl.w	10002310 <OPLWriteReg+0x660>
100021b2:	f1bc 0f00 	cmp.w	ip, #0
100021b6:	d108      	bne.n	100021ca <OPLWriteReg+0x51a>
100021b8:	22b0      	movs	r2, #176	@ 0xb0
100021ba:	f04f 0404 	mov.w	r4, #4
100021be:	fb02 0203 	mla	r2, r2, r3, r0
100021c2:	f8c2 c010 	str.w	ip, [r2, #16]
100021c6:	f882 402a 	strb.w	r4, [r2, #42]	@ 0x2a
100021ca:	f04c 0201 	orr.w	r2, ip, #1
100021ce:	f04f 0cb0 	mov.w	ip, #176	@ 0xb0
100021d2:	fb0c 0c03 	mla	ip, ip, r3, r0
100021d6:	f8cc 2044 	str.w	r2, [ip, #68]	@ 0x44
100021da:	f8dc 2094 	ldr.w	r2, [ip, #148]	@ 0x94
100021de:	b92a      	cbnz	r2, 100021ec <OPLWriteReg+0x53c>
100021e0:	f04f 0404 	mov.w	r4, #4
100021e4:	f8cc 2060 	str.w	r2, [ip, #96]	@ 0x60
100021e8:	f88c 407a 	strb.w	r4, [ip, #122]	@ 0x7a
100021ec:	f04f 0cb0 	mov.w	ip, #176	@ 0xb0
100021f0:	fb0c 0c03 	mla	ip, ip, r3, r0
100021f4:	f042 0201 	orr.w	r2, r2, #1
100021f8:	f8cc 2094 	str.w	r2, [ip, #148]	@ 0x94
100021fc:	e5ff      	b.n	10001dfe <OPLWriteReg+0x14e>
100021fe:	4c3f      	ldr	r4, [pc, #252]	@ (100022fc <OPLWriteReg+0x64c>)
10002200:	4d3f      	ldr	r5, [pc, #252]	@ (10002300 <OPLWriteReg+0x650>)
10002202:	4626      	mov	r6, r4
10002204:	5ca4      	ldrb	r4, [r4, r2]
10002206:	462f      	mov	r7, r5
10002208:	46a1      	mov	r9, r4
1000220a:	f815 c002 	ldrb.w	ip, [r5, r2]
1000220e:	e5ae      	b.n	10001d6e <OPLWriteReg+0xbe>
10002210:	f890 3670 	ldrb.w	r3, [r0, #1648]	@ 0x670
10002214:	07dc      	lsls	r4, r3, #31
10002216:	f57f add1 	bpl.w	10001dbc <OPLWriteReg+0x10c>
1000221a:	f002 0220 	and.w	r2, r2, #32
1000221e:	f880 2660 	strb.w	r2, [r0, #1632]	@ 0x660
10002222:	e5cb      	b.n	10001dbc <OPLWriteReg+0x10c>
10002224:	ea4f 03ec 	mov.w	r3, ip, asr #3
10002228:	f003 0308 	and.w	r3, r3, #8
1000222c:	f02c 017f 	bic.w	r1, ip, #127	@ 0x7f
10002230:	f880 3642 	strb.w	r3, [r0, #1602]	@ 0x642
10002234:	f01c 0f20 	tst.w	ip, #32
10002238:	f00c 033f 	and.w	r3, ip, #63	@ 0x3f
1000223c:	f880 3640 	strb.w	r3, [r0, #1600]	@ 0x640
10002240:	f880 1641 	strb.w	r1, [r0, #1601]	@ 0x641
10002244:	f8d0 3464 	ldr.w	r3, [r0, #1124]	@ 0x464
10002248:	f000 809e 	beq.w	10002388 <OPLWriteReg+0x6d8>
1000224c:	06d1      	lsls	r1, r2, #27
1000224e:	f140 8133 	bpl.w	100024b8 <OPLWriteReg+0x808>
10002252:	b923      	cbnz	r3, 1000225e <OPLWriteReg+0x5ae>
10002254:	2104      	movs	r1, #4
10002256:	f8c0 3430 	str.w	r3, [r0, #1072]	@ 0x430
1000225a:	f880 144a 	strb.w	r1, [r0, #1098]	@ 0x44a
1000225e:	f8d0 14b4 	ldr.w	r1, [r0, #1204]	@ 0x4b4
10002262:	f043 0302 	orr.w	r3, r3, #2
10002266:	f8c0 3464 	str.w	r3, [r0, #1124]	@ 0x464
1000226a:	b921      	cbnz	r1, 10002276 <OPLWriteReg+0x5c6>
1000226c:	2304      	movs	r3, #4
1000226e:	f8c0 1480 	str.w	r1, [r0, #1152]	@ 0x480
10002272:	f880 349a 	strb.w	r3, [r0, #1178]	@ 0x49a
10002276:	f041 0102 	orr.w	r1, r1, #2
1000227a:	f8c0 14b4 	str.w	r1, [r0, #1204]	@ 0x4b4
1000227e:	07d7      	lsls	r7, r2, #31
10002280:	f8d0 3514 	ldr.w	r3, [r0, #1300]	@ 0x514
10002284:	f140 8106 	bpl.w	10002494 <OPLWriteReg+0x7e4>
10002288:	b923      	cbnz	r3, 10002294 <OPLWriteReg+0x5e4>
1000228a:	2104      	movs	r1, #4
1000228c:	f8c0 34e0 	str.w	r3, [r0, #1248]	@ 0x4e0
10002290:	f880 14fa 	strb.w	r1, [r0, #1274]	@ 0x4fa
10002294:	f043 0302 	orr.w	r3, r3, #2
10002298:	f8c0 3514 	str.w	r3, [r0, #1300]	@ 0x514
1000229c:	0716      	lsls	r6, r2, #28
1000229e:	f8d0 3564 	ldr.w	r3, [r0, #1380]	@ 0x564
100022a2:	f140 80e5 	bpl.w	10002470 <OPLWriteReg+0x7c0>
100022a6:	b923      	cbnz	r3, 100022b2 <OPLWriteReg+0x602>
100022a8:	2104      	movs	r1, #4
100022aa:	f8c0 3530 	str.w	r3, [r0, #1328]	@ 0x530
100022ae:	f880 154a 	strb.w	r1, [r0, #1354]	@ 0x54a
100022b2:	f043 0302 	orr.w	r3, r3, #2
100022b6:	f8c0 3564 	str.w	r3, [r0, #1380]	@ 0x564
100022ba:	0755      	lsls	r5, r2, #29
100022bc:	f8d0 35c4 	ldr.w	r3, [r0, #1476]	@ 0x5c4
100022c0:	f140 80c4 	bpl.w	1000244c <OPLWriteReg+0x79c>
100022c4:	b923      	cbnz	r3, 100022d0 <OPLWriteReg+0x620>
100022c6:	2104      	movs	r1, #4
100022c8:	f8c0 3590 	str.w	r3, [r0, #1424]	@ 0x590
100022cc:	f880 15aa 	strb.w	r1, [r0, #1450]	@ 0x5aa
100022d0:	f043 0302 	orr.w	r3, r3, #2
100022d4:	f8c0 35c4 	str.w	r3, [r0, #1476]	@ 0x5c4
100022d8:	0794      	lsls	r4, r2, #30
100022da:	f8d0 3614 	ldr.w	r3, [r0, #1556]	@ 0x614
100022de:	f140 80b1 	bpl.w	10002444 <OPLWriteReg+0x794>
100022e2:	b923      	cbnz	r3, 100022ee <OPLWriteReg+0x63e>
100022e4:	2204      	movs	r2, #4
100022e6:	f8c0 35e0 	str.w	r3, [r0, #1504]	@ 0x5e0
100022ea:	f880 25fa 	strb.w	r2, [r0, #1530]	@ 0x5fa
100022ee:	f043 0302 	orr.w	r3, r3, #2
100022f2:	f8c0 3614 	str.w	r3, [r0, #1556]	@ 0x614
100022f6:	e561      	b.n	10001dbc <OPLWriteReg+0x10c>
100022f8:	2000047c 	.word	0x2000047c
100022fc:	200002b4 	.word	0x200002b4
10002300:	20000314 	.word	0x20000314
10002304:	20008b4c 	.word	0x20008b4c
10002308:	20008b48 	.word	0x20008b48
1000230c:	200003ec 	.word	0x200003ec
10002310:	f1bc 0f00 	cmp.w	ip, #0
10002314:	d00f      	beq.n	10002336 <OPLWriteReg+0x686>
10002316:	f02c 0201 	bic.w	r2, ip, #1
1000231a:	f04f 0cb0 	mov.w	ip, #176	@ 0xb0
1000231e:	fb0c 0c03 	mla	ip, ip, r3, r0
10002322:	f8cc 2044 	str.w	r2, [ip, #68]	@ 0x44
10002326:	b932      	cbnz	r2, 10002336 <OPLWriteReg+0x686>
10002328:	f89c 202a 	ldrb.w	r2, [ip, #42]	@ 0x2a
1000232c:	2a01      	cmp	r2, #1
1000232e:	bf84      	itt	hi
10002330:	2201      	movhi	r2, #1
10002332:	f88c 202a 	strbhi.w	r2, [ip, #42]	@ 0x2a
10002336:	22b0      	movs	r2, #176	@ 0xb0
10002338:	fb02 0203 	mla	r2, r2, r3, r0
1000233c:	f8d2 c094 	ldr.w	ip, [r2, #148]	@ 0x94
10002340:	f1bc 0f00 	cmp.w	ip, #0
10002344:	f43f ad5b 	beq.w	10001dfe <OPLWriteReg+0x14e>
10002348:	f02c 0c01 	bic.w	ip, ip, #1
1000234c:	f8c2 c094 	str.w	ip, [r2, #148]	@ 0x94
10002350:	f1bc 0f00 	cmp.w	ip, #0
10002354:	f47f ad53 	bne.w	10001dfe <OPLWriteReg+0x14e>
10002358:	f892 c07a 	ldrb.w	ip, [r2, #122]	@ 0x7a
1000235c:	f1bc 0f01 	cmp.w	ip, #1
10002360:	bf84      	itt	hi
10002362:	f04f 0c01 	movhi.w	ip, #1
10002366:	f882 c07a 	strbhi.w	ip, [r2, #122]	@ 0x7a
1000236a:	e548      	b.n	10001dfe <OPLWriteReg+0x14e>
1000236c:	f04f 0c68 	mov.w	ip, #104	@ 0x68
10002370:	f04f 0e00 	mov.w	lr, #0
10002374:	4e61      	ldr	r6, [pc, #388]	@ (100024fc <OPLWriteReg+0x84c>)
10002376:	4f62      	ldr	r7, [pc, #392]	@ (10002500 <OPLWriteReg+0x850>)
10002378:	e5d7      	b.n	10001f2a <OPLWriteReg+0x27a>
1000237a:	f04f 0968 	mov.w	r9, #104	@ 0x68
1000237e:	f04f 0a00 	mov.w	sl, #0
10002382:	4e5e      	ldr	r6, [pc, #376]	@ (100024fc <OPLWriteReg+0x84c>)
10002384:	4f5e      	ldr	r7, [pc, #376]	@ (10002500 <OPLWriteReg+0x850>)
10002386:	e593      	b.n	10001eb0 <OPLWriteReg+0x200>
10002388:	b15b      	cbz	r3, 100023a2 <OPLWriteReg+0x6f2>
1000238a:	f023 0302 	bic.w	r3, r3, #2
1000238e:	f8c0 3464 	str.w	r3, [r0, #1124]	@ 0x464
10002392:	b933      	cbnz	r3, 100023a2 <OPLWriteReg+0x6f2>
10002394:	f890 344a 	ldrb.w	r3, [r0, #1098]	@ 0x44a
10002398:	2b01      	cmp	r3, #1
1000239a:	bf84      	itt	hi
1000239c:	2301      	movhi	r3, #1
1000239e:	f880 344a 	strbhi.w	r3, [r0, #1098]	@ 0x44a
100023a2:	f8d0 34b4 	ldr.w	r3, [r0, #1204]	@ 0x4b4
100023a6:	b15b      	cbz	r3, 100023c0 <OPLWriteReg+0x710>
100023a8:	f023 0302 	bic.w	r3, r3, #2
100023ac:	f8c0 34b4 	str.w	r3, [r0, #1204]	@ 0x4b4
100023b0:	b933      	cbnz	r3, 100023c0 <OPLWriteReg+0x710>
100023b2:	f890 349a 	ldrb.w	r3, [r0, #1178]	@ 0x49a
100023b6:	2b01      	cmp	r3, #1
100023b8:	bf84      	itt	hi
100023ba:	2301      	movhi	r3, #1
100023bc:	f880 349a 	strbhi.w	r3, [r0, #1178]	@ 0x49a
100023c0:	f8d0 3514 	ldr.w	r3, [r0, #1300]	@ 0x514
100023c4:	b15b      	cbz	r3, 100023de <OPLWriteReg+0x72e>
100023c6:	f023 0302 	bic.w	r3, r3, #2
100023ca:	f8c0 3514 	str.w	r3, [r0, #1300]	@ 0x514
100023ce:	b933      	cbnz	r3, 100023de <OPLWriteReg+0x72e>
100023d0:	f890 34fa 	ldrb.w	r3, [r0, #1274]	@ 0x4fa
100023d4:	2b01      	cmp	r3, #1
100023d6:	bf84      	itt	hi
100023d8:	2301      	movhi	r3, #1
100023da:	f880 34fa 	strbhi.w	r3, [r0, #1274]	@ 0x4fa
100023de:	f8d0 3564 	ldr.w	r3, [r0, #1380]	@ 0x564
100023e2:	b15b      	cbz	r3, 100023fc <OPLWriteReg+0x74c>
100023e4:	f023 0302 	bic.w	r3, r3, #2
100023e8:	f8c0 3564 	str.w	r3, [r0, #1380]	@ 0x564
100023ec:	b933      	cbnz	r3, 100023fc <OPLWriteReg+0x74c>
100023ee:	f890 354a 	ldrb.w	r3, [r0, #1354]	@ 0x54a
100023f2:	2b01      	cmp	r3, #1
100023f4:	bf84      	itt	hi
100023f6:	2301      	movhi	r3, #1
100023f8:	f880 354a 	strbhi.w	r3, [r0, #1354]	@ 0x54a
100023fc:	f8d0 35c4 	ldr.w	r3, [r0, #1476]	@ 0x5c4
10002400:	b15b      	cbz	r3, 1000241a <OPLWriteReg+0x76a>
10002402:	f023 0302 	bic.w	r3, r3, #2
10002406:	f8c0 35c4 	str.w	r3, [r0, #1476]	@ 0x5c4
1000240a:	b933      	cbnz	r3, 1000241a <OPLWriteReg+0x76a>
1000240c:	f890 35aa 	ldrb.w	r3, [r0, #1450]	@ 0x5aa
10002410:	2b01      	cmp	r3, #1
10002412:	bf84      	itt	hi
10002414:	2301      	movhi	r3, #1
10002416:	f880 35aa 	strbhi.w	r3, [r0, #1450]	@ 0x5aa
1000241a:	f8d0 3614 	ldr.w	r3, [r0, #1556]	@ 0x614
1000241e:	2b00      	cmp	r3, #0
10002420:	f43f accc 	beq.w	10001dbc <OPLWriteReg+0x10c>
10002424:	f023 0302 	bic.w	r3, r3, #2
10002428:	f8c0 3614 	str.w	r3, [r0, #1556]	@ 0x614
1000242c:	2b00      	cmp	r3, #0
1000242e:	f47f acc5 	bne.w	10001dbc <OPLWriteReg+0x10c>
10002432:	f890 35fa 	ldrb.w	r3, [r0, #1530]	@ 0x5fa
10002436:	2b01      	cmp	r3, #1
10002438:	f67f acc0 	bls.w	10001dbc <OPLWriteReg+0x10c>
1000243c:	2301      	movs	r3, #1
1000243e:	f880 35fa 	strb.w	r3, [r0, #1530]	@ 0x5fa
10002442:	e4bb      	b.n	10001dbc <OPLWriteReg+0x10c>
10002444:	2b00      	cmp	r3, #0
10002446:	f43f acb9 	beq.w	10001dbc <OPLWriteReg+0x10c>
1000244a:	e7eb      	b.n	10002424 <OPLWriteReg+0x774>
1000244c:	2b00      	cmp	r3, #0
1000244e:	f43f af43 	beq.w	100022d8 <OPLWriteReg+0x628>
10002452:	f023 0302 	bic.w	r3, r3, #2
10002456:	f8c0 35c4 	str.w	r3, [r0, #1476]	@ 0x5c4
1000245a:	2b00      	cmp	r3, #0
1000245c:	f47f af3c 	bne.w	100022d8 <OPLWriteReg+0x628>
10002460:	f890 35aa 	ldrb.w	r3, [r0, #1450]	@ 0x5aa
10002464:	2b01      	cmp	r3, #1
10002466:	bf84      	itt	hi
10002468:	2301      	movhi	r3, #1
1000246a:	f880 35aa 	strbhi.w	r3, [r0, #1450]	@ 0x5aa
1000246e:	e733      	b.n	100022d8 <OPLWriteReg+0x628>
10002470:	2b00      	cmp	r3, #0
10002472:	f43f af22 	beq.w	100022ba <OPLWriteReg+0x60a>
10002476:	f023 0302 	bic.w	r3, r3, #2
1000247a:	f8c0 3564 	str.w	r3, [r0, #1380]	@ 0x564
1000247e:	2b00      	cmp	r3, #0
10002480:	f47f af1b 	bne.w	100022ba <OPLWriteReg+0x60a>
10002484:	f890 354a 	ldrb.w	r3, [r0, #1354]	@ 0x54a
10002488:	2b01      	cmp	r3, #1
1000248a:	bf84      	itt	hi
1000248c:	2301      	movhi	r3, #1
1000248e:	f880 354a 	strbhi.w	r3, [r0, #1354]	@ 0x54a
10002492:	e712      	b.n	100022ba <OPLWriteReg+0x60a>
10002494:	2b00      	cmp	r3, #0
10002496:	f43f af01 	beq.w	1000229c <OPLWriteReg+0x5ec>
1000249a:	f023 0302 	bic.w	r3, r3, #2
1000249e:	f8c0 3514 	str.w	r3, [r0, #1300]	@ 0x514
100024a2:	2b00      	cmp	r3, #0
100024a4:	f47f aefa 	bne.w	1000229c <OPLWriteReg+0x5ec>
100024a8:	f890 34fa 	ldrb.w	r3, [r0, #1274]	@ 0x4fa
100024ac:	2b01      	cmp	r3, #1
100024ae:	bf84      	itt	hi
100024b0:	2301      	movhi	r3, #1
100024b2:	f880 34fa 	strbhi.w	r3, [r0, #1274]	@ 0x4fa
100024b6:	e6f1      	b.n	1000229c <OPLWriteReg+0x5ec>
100024b8:	b15b      	cbz	r3, 100024d2 <OPLWriteReg+0x822>
100024ba:	f023 0302 	bic.w	r3, r3, #2
100024be:	f8c0 3464 	str.w	r3, [r0, #1124]	@ 0x464
100024c2:	b933      	cbnz	r3, 100024d2 <OPLWriteReg+0x822>
100024c4:	f890 344a 	ldrb.w	r3, [r0, #1098]	@ 0x44a
100024c8:	2b01      	cmp	r3, #1
100024ca:	bf84      	itt	hi
100024cc:	2301      	movhi	r3, #1
100024ce:	f880 344a 	strbhi.w	r3, [r0, #1098]	@ 0x44a
100024d2:	f8d0 34b4 	ldr.w	r3, [r0, #1204]	@ 0x4b4
100024d6:	2b00      	cmp	r3, #0
100024d8:	f43f aed1 	beq.w	1000227e <OPLWriteReg+0x5ce>
100024dc:	f023 0302 	bic.w	r3, r3, #2
100024e0:	f8c0 34b4 	str.w	r3, [r0, #1204]	@ 0x4b4
100024e4:	2b00      	cmp	r3, #0
100024e6:	f47f aeca 	bne.w	1000227e <OPLWriteReg+0x5ce>
100024ea:	f890 349a 	ldrb.w	r3, [r0, #1178]	@ 0x49a
100024ee:	2b01      	cmp	r3, #1
100024f0:	bf84      	itt	hi
100024f2:	2301      	movhi	r3, #1
100024f4:	f880 349a 	strbhi.w	r3, [r0, #1178]	@ 0x49a
100024f8:	e6c1      	b.n	1000227e <OPLWriteReg+0x5ce>
100024fa:	bf00      	nop
100024fc:	200002b4 	.word	0x200002b4
10002500:	20000314 	.word	0x20000314

10002504 <OPLResetChip>:
10002504:	b538      	push	{r3, r4, r5, lr}
10002506:	4605      	mov	r5, r0
10002508:	2300      	movs	r3, #0
1000250a:	2001      	movs	r0, #1
1000250c:	f895 2672 	ldrb.w	r2, [r5, #1650]	@ 0x672
10002510:	f8c5 3630 	str.w	r3, [r5, #1584]	@ 0x630
10002514:	f022 017f 	bic.w	r1, r2, #127	@ 0x7f
10002518:	0612      	lsls	r2, r2, #24
1000251a:	f8c5 3634 	str.w	r3, [r5, #1588]	@ 0x634
1000251e:	f8c5 0654 	str.w	r0, [r5, #1620]	@ 0x654
10002522:	f885 3674 	strb.w	r3, [r5, #1652]	@ 0x674
10002526:	f885 1672 	strb.w	r1, [r5, #1650]	@ 0x672
1000252a:	d505      	bpl.n	10002538 <OPLResetChip+0x34>
1000252c:	f995 2673 	ldrsb.w	r2, [r5, #1651]	@ 0x673
10002530:	429a      	cmp	r2, r3
10002532:	bfa8      	it	ge
10002534:	f885 3672 	strbge.w	r3, [r5, #1650]	@ 0x672
10002538:	f895 3670 	ldrb.w	r3, [r5, #1648]	@ 0x670
1000253c:	24ff      	movs	r4, #255	@ 0xff
1000253e:	07db      	lsls	r3, r3, #31
10002540:	bf44      	itt	mi
10002542:	2300      	movmi	r3, #0
10002544:	f885 3660 	strbmi.w	r3, [r5, #1632]	@ 0x660
10002548:	4621      	mov	r1, r4
1000254a:	2200      	movs	r2, #0
1000254c:	4628      	mov	r0, r5
1000254e:	3c01      	subs	r4, #1
10002550:	f7ff fbae 	bl	10001cb0 <OPLWriteReg>
10002554:	2c1f      	cmp	r4, #31
10002556:	d1f7      	bne.n	10002548 <OPLResetChip+0x44>
10002558:	2300      	movs	r3, #0
1000255a:	f240 11ff 	movw	r1, #511	@ 0x1ff
1000255e:	4a47      	ldr	r2, [pc, #284]	@ (1000267c <OPLResetChip+0x178>)
10002560:	f8a5 304e 	strh.w	r3, [r5, #78]	@ 0x4e
10002564:	61ea      	str	r2, [r5, #28]
10002566:	66ea      	str	r2, [r5, #108]	@ 0x6c
10002568:	f8c5 20cc 	str.w	r2, [r5, #204]	@ 0xcc
1000256c:	f8c5 211c 	str.w	r2, [r5, #284]	@ 0x11c
10002570:	f8c5 217c 	str.w	r2, [r5, #380]	@ 0x17c
10002574:	f8c5 21cc 	str.w	r2, [r5, #460]	@ 0x1cc
10002578:	f8c5 222c 	str.w	r2, [r5, #556]	@ 0x22c
1000257c:	f8c5 227c 	str.w	r2, [r5, #636]	@ 0x27c
10002580:	f885 302a 	strb.w	r3, [r5, #42]	@ 0x2a
10002584:	6369      	str	r1, [r5, #52]	@ 0x34
10002586:	f8a5 309e 	strh.w	r3, [r5, #158]	@ 0x9e
1000258a:	f885 307a 	strb.w	r3, [r5, #122]	@ 0x7a
1000258e:	f8c5 1084 	str.w	r1, [r5, #132]	@ 0x84
10002592:	f8a5 30fe 	strh.w	r3, [r5, #254]	@ 0xfe
10002596:	f885 30da 	strb.w	r3, [r5, #218]	@ 0xda
1000259a:	f8c5 10e4 	str.w	r1, [r5, #228]	@ 0xe4
1000259e:	f8a5 314e 	strh.w	r3, [r5, #334]	@ 0x14e
100025a2:	f885 312a 	strb.w	r3, [r5, #298]	@ 0x12a
100025a6:	f8c5 1134 	str.w	r1, [r5, #308]	@ 0x134
100025aa:	f8a5 31ae 	strh.w	r3, [r5, #430]	@ 0x1ae
100025ae:	f885 318a 	strb.w	r3, [r5, #394]	@ 0x18a
100025b2:	f8c5 1194 	str.w	r1, [r5, #404]	@ 0x194
100025b6:	f8a5 31fe 	strh.w	r3, [r5, #510]	@ 0x1fe
100025ba:	f885 31da 	strb.w	r3, [r5, #474]	@ 0x1da
100025be:	f8c5 11e4 	str.w	r1, [r5, #484]	@ 0x1e4
100025c2:	f8a5 325e 	strh.w	r3, [r5, #606]	@ 0x25e
100025c6:	f885 323a 	strb.w	r3, [r5, #570]	@ 0x23a
100025ca:	f8c5 1244 	str.w	r1, [r5, #580]	@ 0x244
100025ce:	f8a5 32ae 	strh.w	r3, [r5, #686]	@ 0x2ae
100025d2:	f885 328a 	strb.w	r3, [r5, #650]	@ 0x28a
100025d6:	f8c5 1294 	str.w	r1, [r5, #660]	@ 0x294
100025da:	f8a5 330e 	strh.w	r3, [r5, #782]	@ 0x30e
100025de:	f885 32ea 	strb.w	r3, [r5, #746]	@ 0x2ea
100025e2:	f8c5 12f4 	str.w	r1, [r5, #756]	@ 0x2f4
100025e6:	f8c5 22dc 	str.w	r2, [r5, #732]	@ 0x2dc
100025ea:	f8a5 335e 	strh.w	r3, [r5, #862]	@ 0x35e
100025ee:	f885 333a 	strb.w	r3, [r5, #826]	@ 0x33a
100025f2:	f8c5 1344 	str.w	r1, [r5, #836]	@ 0x344
100025f6:	f8c5 232c 	str.w	r2, [r5, #812]	@ 0x32c
100025fa:	f8a5 33be 	strh.w	r3, [r5, #958]	@ 0x3be
100025fe:	f885 339a 	strb.w	r3, [r5, #922]	@ 0x39a
10002602:	f8c5 13a4 	str.w	r1, [r5, #932]	@ 0x3a4
10002606:	f8c5 238c 	str.w	r2, [r5, #908]	@ 0x38c
1000260a:	f8a5 340e 	strh.w	r3, [r5, #1038]	@ 0x40e
1000260e:	f885 33ea 	strb.w	r3, [r5, #1002]	@ 0x3ea
10002612:	f8c5 13f4 	str.w	r1, [r5, #1012]	@ 0x3f4
10002616:	f8c5 23dc 	str.w	r2, [r5, #988]	@ 0x3dc
1000261a:	f8a5 346e 	strh.w	r3, [r5, #1134]	@ 0x46e
1000261e:	f885 344a 	strb.w	r3, [r5, #1098]	@ 0x44a
10002622:	f8c5 1454 	str.w	r1, [r5, #1108]	@ 0x454
10002626:	f8c5 243c 	str.w	r2, [r5, #1084]	@ 0x43c
1000262a:	f8a5 34be 	strh.w	r3, [r5, #1214]	@ 0x4be
1000262e:	f885 349a 	strb.w	r3, [r5, #1178]	@ 0x49a
10002632:	f8c5 14a4 	str.w	r1, [r5, #1188]	@ 0x4a4
10002636:	f8c5 248c 	str.w	r2, [r5, #1164]	@ 0x48c
1000263a:	f8a5 351e 	strh.w	r3, [r5, #1310]	@ 0x51e
1000263e:	f885 34fa 	strb.w	r3, [r5, #1274]	@ 0x4fa
10002642:	f8c5 1504 	str.w	r1, [r5, #1284]	@ 0x504
10002646:	f8c5 24ec 	str.w	r2, [r5, #1260]	@ 0x4ec
1000264a:	f8a5 356e 	strh.w	r3, [r5, #1390]	@ 0x56e
1000264e:	f885 354a 	strb.w	r3, [r5, #1354]	@ 0x54a
10002652:	f8c5 1554 	str.w	r1, [r5, #1364]	@ 0x554
10002656:	f8c5 253c 	str.w	r2, [r5, #1340]	@ 0x53c
1000265a:	f8a5 35ce 	strh.w	r3, [r5, #1486]	@ 0x5ce
1000265e:	f885 35aa 	strb.w	r3, [r5, #1450]	@ 0x5aa
10002662:	f885 35fa 	strb.w	r3, [r5, #1530]	@ 0x5fa
10002666:	f8c5 15b4 	str.w	r1, [r5, #1460]	@ 0x5b4
1000266a:	f8c5 259c 	str.w	r2, [r5, #1436]	@ 0x59c
1000266e:	f8a5 361e 	strh.w	r3, [r5, #1566]	@ 0x61e
10002672:	f8c5 1604 	str.w	r1, [r5, #1540]	@ 0x604
10002676:	f8c5 25ec 	str.w	r2, [r5, #1516]	@ 0x5ec
1000267a:	bd38      	pop	{r3, r4, r5, pc}
1000267c:	20008b48 	.word	0x20008b48

10002680 <OPL_CALC_CH>:
10002680:	2300      	movs	r3, #0
10002682:	494f      	ldr	r1, [pc, #316]	@ (100027c0 <OPL_CALC_CH+0x140>)
10002684:	4a4f      	ldr	r2, [pc, #316]	@ (100027c4 <OPL_CALC_CH+0x144>)
10002686:	b5f0      	push	{r4, r5, r6, r7, lr}
10002688:	6a45      	ldr	r5, [r0, #36]	@ 0x24
1000268a:	4c4f      	ldr	r4, [pc, #316]	@ (100027c8 <OPL_CALC_CH+0x148>)
1000268c:	69c6      	ldr	r6, [r0, #28]
1000268e:	6812      	ldr	r2, [r2, #0]
10002690:	600b      	str	r3, [r1, #0]
10002692:	e9d0 710c 	ldrd	r7, r1, [r0, #48]	@ 0x30
10002696:	eb07 0c01 	add.w	ip, r7, r1
1000269a:	6c81      	ldr	r1, [r0, #72]	@ 0x48
1000269c:	6a07      	ldr	r7, [r0, #32]
1000269e:	6023      	str	r3, [r4, #0]
100026a0:	6205      	str	r5, [r0, #32]
100026a2:	ea02 0e01 	and.w	lr, r2, r1
100026a6:	6831      	ldr	r1, [r6, #0]
100026a8:	44f4      	add	ip, lr
100026aa:	f1bc 0fbf 	cmp.w	ip, #191	@ 0xbf
100026ae:	eb01 0e05 	add.w	lr, r1, r5
100026b2:	f8c6 e000 	str.w	lr, [r6]
100026b6:	6243      	str	r3, [r0, #36]	@ 0x24
100026b8:	d827      	bhi.n	1000270a <OPL_CALC_CH+0x8a>
100026ba:	7e03      	ldrb	r3, [r0, #24]
100026bc:	2b00      	cmp	r3, #0
100026be:	d059      	beq.n	10002774 <OPL_CALC_CH+0xf4>
100026c0:	442f      	add	r7, r5
100026c2:	fa07 f503 	lsl.w	r5, r7, r3
100026c6:	6903      	ldr	r3, [r0, #16]
100026c8:	f36f 030f 	bfc	r3, #0, #16
100026cc:	442b      	add	r3, r5
100026ce:	f8b0 504e 	ldrh.w	r5, [r0, #78]	@ 0x4e
100026d2:	141b      	asrs	r3, r3, #16
100026d4:	2d02      	cmp	r5, #2
100026d6:	d06c      	beq.n	100027b2 <OPL_CALC_CH+0x132>
100026d8:	2d03      	cmp	r5, #3
100026da:	d063      	beq.n	100027a4 <OPL_CALC_CH+0x124>
100026dc:	2d01      	cmp	r5, #1
100026de:	f3c3 0609 	ubfx	r6, r3, #0, #10
100026e2:	d049      	beq.n	10002778 <OPL_CALC_CH+0xf8>
100026e4:	4b39      	ldr	r3, [pc, #228]	@ (100027cc <OPL_CALC_CH+0x14c>)
100026e6:	f833 3016 	ldrh.w	r3, [r3, r6, lsl #1]
100026ea:	eb03 130c 	add.w	r3, r3, ip, lsl #4
100026ee:	f5b3 6f40 	cmp.w	r3, #3072	@ 0xc00
100026f2:	d243      	bcs.n	1000277c <OPL_CALC_CH+0xfc>
100026f4:	4d36      	ldr	r5, [pc, #216]	@ (100027d0 <OPL_CALC_CH+0x150>)
100026f6:	f3c3 0647 	ubfx	r6, r3, #1, #8
100026fa:	f935 5016 	ldrsh.w	r5, [r5, r6, lsl #1]
100026fe:	0a5e      	lsrs	r6, r3, #9
10002700:	4135      	asrs	r5, r6
10002702:	07de      	lsls	r6, r3, #31
10002704:	d500      	bpl.n	10002708 <OPL_CALC_CH+0x88>
10002706:	426d      	negs	r5, r5
10002708:	6245      	str	r5, [r0, #36]	@ 0x24
1000270a:	e9d0 3520 	ldrd	r3, r5, [r0, #128]	@ 0x80
1000270e:	442b      	add	r3, r5
10002710:	f8d0 5098 	ldr.w	r5, [r0, #152]	@ 0x98
10002714:	402a      	ands	r2, r5
10002716:	4413      	add	r3, r2
10002718:	2bbf      	cmp	r3, #191	@ 0xbf
1000271a:	d82a      	bhi.n	10002772 <OPL_CALC_CH+0xf2>
1000271c:	6e02      	ldr	r2, [r0, #96]	@ 0x60
1000271e:	6825      	ldr	r5, [r4, #0]
10002720:	f8b0 409e 	ldrh.w	r4, [r0, #158]	@ 0x9e
10002724:	f36f 020f 	bfc	r2, #0, #16
10002728:	eb02 4205 	add.w	r2, r2, r5, lsl #16
1000272c:	2c02      	cmp	r4, #2
1000272e:	ea4f 4222 	mov.w	r2, r2, asr #16
10002732:	d02a      	beq.n	1000278a <OPL_CALC_CH+0x10a>
10002734:	2c03      	cmp	r4, #3
10002736:	d02e      	beq.n	10002796 <OPL_CALC_CH+0x116>
10002738:	2c01      	cmp	r4, #1
1000273a:	f3c2 0009 	ubfx	r0, r2, #0, #10
1000273e:	d020      	beq.n	10002782 <OPL_CALC_CH+0x102>
10002740:	4a22      	ldr	r2, [pc, #136]	@ (100027cc <OPL_CALC_CH+0x14c>)
10002742:	f832 2010 	ldrh.w	r2, [r2, r0, lsl #1]
10002746:	eb02 1303 	add.w	r3, r2, r3, lsl #4
1000274a:	f5b3 6f40 	cmp.w	r3, #3072	@ 0xc00
1000274e:	d21a      	bcs.n	10002786 <OPL_CALC_CH+0x106>
10002750:	4a1f      	ldr	r2, [pc, #124]	@ (100027d0 <OPL_CALC_CH+0x150>)
10002752:	f3c3 0047 	ubfx	r0, r3, #1, #8
10002756:	f932 2010 	ldrsh.w	r2, [r2, r0, lsl #1]
1000275a:	1258      	asrs	r0, r3, #9
1000275c:	07db      	lsls	r3, r3, #31
1000275e:	fa42 f200 	asr.w	r2, r2, r0
10002762:	d500      	bpl.n	10002766 <OPL_CALC_CH+0xe6>
10002764:	4252      	negs	r2, r2
10002766:	481b      	ldr	r0, [pc, #108]	@ (100027d4 <OPL_CALC_CH+0x154>)
10002768:	4b15      	ldr	r3, [pc, #84]	@ (100027c0 <OPL_CALC_CH+0x140>)
1000276a:	601a      	str	r2, [r3, #0]
1000276c:	6803      	ldr	r3, [r0, #0]
1000276e:	4413      	add	r3, r2
10002770:	6003      	str	r3, [r0, #0]
10002772:	bdf0      	pop	{r4, r5, r6, r7, pc}
10002774:	461d      	mov	r5, r3
10002776:	e7a6      	b.n	100026c6 <OPL_CALC_CH+0x46>
10002778:	059b      	lsls	r3, r3, #22
1000277a:	d5b3      	bpl.n	100026e4 <OPL_CALC_CH+0x64>
1000277c:	2500      	movs	r5, #0
1000277e:	6245      	str	r5, [r0, #36]	@ 0x24
10002780:	e7c3      	b.n	1000270a <OPL_CALC_CH+0x8a>
10002782:	0594      	lsls	r4, r2, #22
10002784:	d5dc      	bpl.n	10002740 <OPL_CALC_CH+0xc0>
10002786:	2200      	movs	r2, #0
10002788:	e7ed      	b.n	10002766 <OPL_CALC_CH+0xe6>
1000278a:	4810      	ldr	r0, [pc, #64]	@ (100027cc <OPL_CALC_CH+0x14c>)
1000278c:	f3c2 0208 	ubfx	r2, r2, #0, #9
10002790:	f830 2012 	ldrh.w	r2, [r0, r2, lsl #1]
10002794:	e7d7      	b.n	10002746 <OPL_CALC_CH+0xc6>
10002796:	05d1      	lsls	r1, r2, #23
10002798:	d4f5      	bmi.n	10002786 <OPL_CALC_CH+0x106>
1000279a:	480c      	ldr	r0, [pc, #48]	@ (100027cc <OPL_CALC_CH+0x14c>)
1000279c:	b2d2      	uxtb	r2, r2
1000279e:	f830 2012 	ldrh.w	r2, [r0, r2, lsl #1]
100027a2:	e7d0      	b.n	10002746 <OPL_CALC_CH+0xc6>
100027a4:	05df      	lsls	r7, r3, #23
100027a6:	d4e9      	bmi.n	1000277c <OPL_CALC_CH+0xfc>
100027a8:	4d08      	ldr	r5, [pc, #32]	@ (100027cc <OPL_CALC_CH+0x14c>)
100027aa:	b2db      	uxtb	r3, r3
100027ac:	f835 3013 	ldrh.w	r3, [r5, r3, lsl #1]
100027b0:	e79b      	b.n	100026ea <OPL_CALC_CH+0x6a>
100027b2:	4d06      	ldr	r5, [pc, #24]	@ (100027cc <OPL_CALC_CH+0x14c>)
100027b4:	f3c3 0308 	ubfx	r3, r3, #0, #9
100027b8:	f835 3013 	ldrh.w	r3, [r5, r3, lsl #1]
100027bc:	e795      	b.n	100026ea <OPL_CALC_CH+0x6a>
100027be:	bf00      	nop
100027c0:	20008adc 	.word	0x20008adc
100027c4:	20004284 	.word	0x20004284
100027c8:	20008b4c 	.word	0x20008b4c
100027cc:	2001e9a4 	.word	0x2001e9a4
100027d0:	2001f1a8 	.word	0x2001f1a8
100027d4:	20008b48 	.word	0x20008b48

100027d8 <OPL_CALC_RH>:
100027d8:	b5f0      	push	{r4, r5, r6, r7, lr}
100027da:	2500      	movs	r5, #0
100027dc:	f8d0 2450 	ldr.w	r2, [r0, #1104]	@ 0x450
100027e0:	f8d0 6454 	ldr.w	r6, [r0, #1108]	@ 0x454
100027e4:	4bbd      	ldr	r3, [pc, #756]	@ (10002adc <OPL_CALC_RH+0x304>)
100027e6:	eb02 0e06 	add.w	lr, r2, r6
100027ea:	681b      	ldr	r3, [r3, #0]
100027ec:	f8d0 2468 	ldr.w	r2, [r0, #1128]	@ 0x468
100027f0:	468c      	mov	ip, r1
100027f2:	401a      	ands	r2, r3
100027f4:	4cba      	ldr	r4, [pc, #744]	@ (10002ae0 <OPL_CALC_RH+0x308>)
100027f6:	49bb      	ldr	r1, [pc, #748]	@ (10002ae4 <OPL_CALC_RH+0x30c>)
100027f8:	4496      	add	lr, r2
100027fa:	f890 6448 	ldrb.w	r6, [r0, #1096]	@ 0x448
100027fe:	f8d0 2444 	ldr.w	r2, [r0, #1092]	@ 0x444
10002802:	f8d0 7440 	ldr.w	r7, [r0, #1088]	@ 0x440
10002806:	6025      	str	r5, [r4, #0]
10002808:	600d      	str	r5, [r1, #0]
1000280a:	f8c0 2440 	str.w	r2, [r0, #1088]	@ 0x440
1000280e:	2e00      	cmp	r6, #0
10002810:	f040 815b 	bne.w	10002aca <OPL_CALC_RH+0x2f2>
10002814:	4616      	mov	r6, r2
10002816:	6022      	str	r2, [r4, #0]
10002818:	2400      	movs	r4, #0
1000281a:	f1be 0fbf 	cmp.w	lr, #191	@ 0xbf
1000281e:	f8c0 4444 	str.w	r4, [r0, #1092]	@ 0x444
10002822:	d82e      	bhi.n	10002882 <OPL_CALC_RH+0xaa>
10002824:	f890 4438 	ldrb.w	r4, [r0, #1080]	@ 0x438
10002828:	2c00      	cmp	r4, #0
1000282a:	f040 8191 	bne.w	10002b50 <OPL_CALC_RH+0x378>
1000282e:	f8d0 2430 	ldr.w	r2, [r0, #1072]	@ 0x430
10002832:	f36f 020f 	bfc	r2, #0, #16
10002836:	4422      	add	r2, r4
10002838:	f8b0 446e 	ldrh.w	r4, [r0, #1134]	@ 0x46e
1000283c:	1412      	asrs	r2, r2, #16
1000283e:	2c02      	cmp	r4, #2
10002840:	f000 81c6 	beq.w	10002bd0 <OPL_CALC_RH+0x3f8>
10002844:	2c03      	cmp	r4, #3
10002846:	f000 81e7 	beq.w	10002c18 <OPL_CALC_RH+0x440>
1000284a:	2c01      	cmp	r4, #1
1000284c:	f3c2 0509 	ubfx	r5, r2, #0, #10
10002850:	f000 81a4 	beq.w	10002b9c <OPL_CALC_RH+0x3c4>
10002854:	4aa4      	ldr	r2, [pc, #656]	@ (10002ae8 <OPL_CALC_RH+0x310>)
10002856:	f832 2015 	ldrh.w	r2, [r2, r5, lsl #1]
1000285a:	eb02 120e 	add.w	r2, r2, lr, lsl #4
1000285e:	f5b2 6f40 	cmp.w	r2, #3072	@ 0xc00
10002862:	f080 819e 	bcs.w	10002ba2 <OPL_CALC_RH+0x3ca>
10002866:	4ca1      	ldr	r4, [pc, #644]	@ (10002aec <OPL_CALC_RH+0x314>)
10002868:	f3c2 0547 	ubfx	r5, r2, #1, #8
1000286c:	f934 4015 	ldrsh.w	r4, [r4, r5, lsl #1]
10002870:	07d7      	lsls	r7, r2, #31
10002872:	ea4f 2552 	mov.w	r5, r2, lsr #9
10002876:	fa44 f405 	asr.w	r4, r4, r5
1000287a:	d500      	bpl.n	1000287e <OPL_CALC_RH+0xa6>
1000287c:	4264      	negs	r4, r4
1000287e:	f8c0 4444 	str.w	r4, [r0, #1092]	@ 0x444
10002882:	f8d0 24a0 	ldr.w	r2, [r0, #1184]	@ 0x4a0
10002886:	f8d0 44a4 	ldr.w	r4, [r0, #1188]	@ 0x4a4
1000288a:	eb02 0e04 	add.w	lr, r2, r4
1000288e:	f8d0 24b8 	ldr.w	r2, [r0, #1208]	@ 0x4b8
10002892:	401a      	ands	r2, r3
10002894:	4496      	add	lr, r2
10002896:	f1be 0fbf 	cmp.w	lr, #191	@ 0xbf
1000289a:	d82e      	bhi.n	100028fa <OPL_CALC_RH+0x122>
1000289c:	f8d0 2480 	ldr.w	r2, [r0, #1152]	@ 0x480
100028a0:	f8b0 04be 	ldrh.w	r0, [r0, #1214]	@ 0x4be
100028a4:	f36f 020f 	bfc	r2, #0, #16
100028a8:	eb02 4206 	add.w	r2, r2, r6, lsl #16
100028ac:	2802      	cmp	r0, #2
100028ae:	ea4f 4222 	mov.w	r2, r2, asr #16
100028b2:	f000 8193 	beq.w	10002bdc <OPL_CALC_RH+0x404>
100028b6:	2803      	cmp	r0, #3
100028b8:	f000 81b5 	beq.w	10002c26 <OPL_CALC_RH+0x44e>
100028bc:	2801      	cmp	r0, #1
100028be:	f3c2 0409 	ubfx	r4, r2, #0, #10
100028c2:	f000 8177 	beq.w	10002bb4 <OPL_CALC_RH+0x3dc>
100028c6:	4a88      	ldr	r2, [pc, #544]	@ (10002ae8 <OPL_CALC_RH+0x310>)
100028c8:	f832 0014 	ldrh.w	r0, [r2, r4, lsl #1]
100028cc:	eb00 100e 	add.w	r0, r0, lr, lsl #4
100028d0:	f5b0 6f40 	cmp.w	r0, #3072	@ 0xc00
100028d4:	f080 8171 	bcs.w	10002bba <OPL_CALC_RH+0x3e2>
100028d8:	4a84      	ldr	r2, [pc, #528]	@ (10002aec <OPL_CALC_RH+0x314>)
100028da:	f3c0 0547 	ubfx	r5, r0, #1, #8
100028de:	f932 2015 	ldrsh.w	r2, [r2, r5, lsl #1]
100028e2:	1244      	asrs	r4, r0, #9
100028e4:	4122      	asrs	r2, r4
100028e6:	07c0      	lsls	r0, r0, #31
100028e8:	bf48      	it	mi
100028ea:	ebc2 72c2 	rsbmi	r2, r2, r2, lsl #31
100028ee:	0052      	lsls	r2, r2, #1
100028f0:	487f      	ldr	r0, [pc, #508]	@ (10002af0 <OPL_CALC_RH+0x318>)
100028f2:	600a      	str	r2, [r1, #0]
100028f4:	6801      	ldr	r1, [r0, #0]
100028f6:	4411      	add	r1, r2
100028f8:	6001      	str	r1, [r0, #0]
100028fa:	4a7e      	ldr	r2, [pc, #504]	@ (10002af4 <OPL_CALC_RH+0x31c>)
100028fc:	6810      	ldr	r0, [r2, #0]
100028fe:	e9d0 210c 	ldrd	r2, r1, [r0, #48]	@ 0x30
10002902:	440a      	add	r2, r1
10002904:	6c81      	ldr	r1, [r0, #72]	@ 0x48
10002906:	4019      	ands	r1, r3
10002908:	440a      	add	r2, r1
1000290a:	497b      	ldr	r1, [pc, #492]	@ (10002af8 <OPL_CALC_RH+0x320>)
1000290c:	2abf      	cmp	r2, #191	@ 0xbf
1000290e:	f8d1 e000 	ldr.w	lr, [r1]
10002912:	d835      	bhi.n	10002980 <OPL_CALC_RH+0x1a8>
10002914:	6904      	ldr	r4, [r0, #16]
10002916:	0ca1      	lsrs	r1, r4, #18
10002918:	ea81 51d4 	eor.w	r1, r1, r4, lsr #23
1000291c:	ea41 41d4 	orr.w	r1, r1, r4, lsr #19
10002920:	07cf      	lsls	r7, r1, #31
10002922:	f140 80ef 	bpl.w	10002b04 <OPL_CALC_RH+0x32c>
10002926:	f1bc 0f00 	cmp.w	ip, #0
1000292a:	f040 814d 	bne.w	10002bc8 <OPL_CALC_RH+0x3f0>
1000292e:	2534      	movs	r5, #52	@ 0x34
10002930:	f44f 740d 	mov.w	r4, #564	@ 0x234
10002934:	f8b0 104e 	ldrh.w	r1, [r0, #78]	@ 0x4e
10002938:	2902      	cmp	r1, #2
1000293a:	f000 80fe 	beq.w	10002b3a <OPL_CALC_RH+0x362>
1000293e:	2903      	cmp	r1, #3
10002940:	f000 80fb 	beq.w	10002b3a <OPL_CALC_RH+0x362>
10002944:	2901      	cmp	r1, #1
10002946:	f000 8101 	beq.w	10002b4c <OPL_CALC_RH+0x374>
1000294a:	4967      	ldr	r1, [pc, #412]	@ (10002ae8 <OPL_CALC_RH+0x310>)
1000294c:	f831 1014 	ldrh.w	r1, [r1, r4, lsl #1]
10002950:	eb01 1202 	add.w	r2, r1, r2, lsl #4
10002954:	f5b2 6f40 	cmp.w	r2, #3072	@ 0xc00
10002958:	f080 80f8 	bcs.w	10002b4c <OPL_CALC_RH+0x374>
1000295c:	4963      	ldr	r1, [pc, #396]	@ (10002aec <OPL_CALC_RH+0x314>)
1000295e:	f3c2 0447 	ubfx	r4, r2, #1, #8
10002962:	f931 1014 	ldrsh.w	r1, [r1, r4, lsl #1]
10002966:	1254      	asrs	r4, r2, #9
10002968:	07d6      	lsls	r6, r2, #31
1000296a:	fa41 f104 	asr.w	r1, r1, r4
1000296e:	bf4a      	itet	mi
10002970:	ebc1 72c1 	rsbmi	r2, r1, r1, lsl #31
10002974:	004a      	lslpl	r2, r1, #1
10002976:	0052      	lslmi	r2, r2, #1
10002978:	4c5d      	ldr	r4, [pc, #372]	@ (10002af0 <OPL_CALC_RH+0x318>)
1000297a:	6821      	ldr	r1, [r4, #0]
1000297c:	4411      	add	r1, r2
1000297e:	6021      	str	r1, [r4, #0]
10002980:	4a5e      	ldr	r2, [pc, #376]	@ (10002afc <OPL_CALC_RH+0x324>)
10002982:	6814      	ldr	r4, [r2, #0]
10002984:	e9d4 210c 	ldrd	r2, r1, [r4, #48]	@ 0x30
10002988:	4411      	add	r1, r2
1000298a:	6ca2      	ldr	r2, [r4, #72]	@ 0x48
1000298c:	401a      	ands	r2, r3
1000298e:	4411      	add	r1, r2
10002990:	29bf      	cmp	r1, #191	@ 0xbf
10002992:	d831      	bhi.n	100029f8 <OPL_CALC_RH+0x220>
10002994:	7cc2      	ldrb	r2, [r0, #19]
10002996:	f012 0201 	ands.w	r2, r2, #1
1000299a:	f040 8098 	bne.w	10002ace <OPL_CALC_RH+0x2f6>
1000299e:	f44f 7680 	mov.w	r6, #256	@ 0x100
100029a2:	4615      	mov	r5, r2
100029a4:	4637      	mov	r7, r6
100029a6:	f8b4 404e 	ldrh.w	r4, [r4, #78]	@ 0x4e
100029aa:	f1bc 0f00 	cmp.w	ip, #0
100029ae:	bf04      	itt	eq
100029b0:	463d      	moveq	r5, r7
100029b2:	4632      	moveq	r2, r6
100029b4:	2c02      	cmp	r4, #2
100029b6:	f000 8129 	beq.w	10002c0c <OPL_CALC_RH+0x434>
100029ba:	2c03      	cmp	r4, #3
100029bc:	f000 8121 	beq.w	10002c02 <OPL_CALC_RH+0x42a>
100029c0:	2c01      	cmp	r4, #1
100029c2:	f000 80fc 	beq.w	10002bbe <OPL_CALC_RH+0x3e6>
100029c6:	4c48      	ldr	r4, [pc, #288]	@ (10002ae8 <OPL_CALC_RH+0x310>)
100029c8:	f834 2012 	ldrh.w	r2, [r4, r2, lsl #1]
100029cc:	eb02 1101 	add.w	r1, r2, r1, lsl #4
100029d0:	f5b1 6f40 	cmp.w	r1, #3072	@ 0xc00
100029d4:	f080 80f6 	bcs.w	10002bc4 <OPL_CALC_RH+0x3ec>
100029d8:	4a44      	ldr	r2, [pc, #272]	@ (10002aec <OPL_CALC_RH+0x314>)
100029da:	f3c1 0547 	ubfx	r5, r1, #1, #8
100029de:	f932 2015 	ldrsh.w	r2, [r2, r5, lsl #1]
100029e2:	124c      	asrs	r4, r1, #9
100029e4:	4122      	asrs	r2, r4
100029e6:	07c9      	lsls	r1, r1, #31
100029e8:	bf48      	it	mi
100029ea:	ebc2 72c2 	rsbmi	r2, r2, r2, lsl #31
100029ee:	0052      	lsls	r2, r2, #1
100029f0:	4c3f      	ldr	r4, [pc, #252]	@ (10002af0 <OPL_CALC_RH+0x318>)
100029f2:	6821      	ldr	r1, [r4, #0]
100029f4:	4411      	add	r1, r2
100029f6:	6021      	str	r1, [r4, #0]
100029f8:	4a41      	ldr	r2, [pc, #260]	@ (10002b00 <OPL_CALC_RH+0x328>)
100029fa:	6811      	ldr	r1, [r2, #0]
100029fc:	e9d1 240c 	ldrd	r2, r4, [r1, #48]	@ 0x30
10002a00:	4422      	add	r2, r4
10002a02:	6c8c      	ldr	r4, [r1, #72]	@ 0x48
10002a04:	ea03 0c04 	and.w	ip, r3, r4
10002a08:	4462      	add	r2, ip
10002a0a:	2abf      	cmp	r2, #191	@ 0xbf
10002a0c:	d827      	bhi.n	10002a5e <OPL_CALC_RH+0x286>
10002a0e:	f8b1 404e 	ldrh.w	r4, [r1, #78]	@ 0x4e
10002a12:	f9b1 1012 	ldrsh.w	r1, [r1, #18]
10002a16:	2c02      	cmp	r4, #2
10002a18:	f000 80e6 	beq.w	10002be8 <OPL_CALC_RH+0x410>
10002a1c:	2c03      	cmp	r4, #3
10002a1e:	f000 80e9 	beq.w	10002bf4 <OPL_CALC_RH+0x41c>
10002a22:	2c01      	cmp	r4, #1
10002a24:	f3c1 0509 	ubfx	r5, r1, #0, #10
10002a28:	f000 80bf 	beq.w	10002baa <OPL_CALC_RH+0x3d2>
10002a2c:	492e      	ldr	r1, [pc, #184]	@ (10002ae8 <OPL_CALC_RH+0x310>)
10002a2e:	f831 1015 	ldrh.w	r1, [r1, r5, lsl #1]
10002a32:	eb01 1102 	add.w	r1, r1, r2, lsl #4
10002a36:	f5b1 6f40 	cmp.w	r1, #3072	@ 0xc00
10002a3a:	f080 80b9 	bcs.w	10002bb0 <OPL_CALC_RH+0x3d8>
10002a3e:	4a2b      	ldr	r2, [pc, #172]	@ (10002aec <OPL_CALC_RH+0x314>)
10002a40:	f3c1 0547 	ubfx	r5, r1, #1, #8
10002a44:	f932 2015 	ldrsh.w	r2, [r2, r5, lsl #1]
10002a48:	124c      	asrs	r4, r1, #9
10002a4a:	4122      	asrs	r2, r4
10002a4c:	07cd      	lsls	r5, r1, #31
10002a4e:	bf48      	it	mi
10002a50:	ebc2 72c2 	rsbmi	r2, r2, r2, lsl #31
10002a54:	0052      	lsls	r2, r2, #1
10002a56:	4c26      	ldr	r4, [pc, #152]	@ (10002af0 <OPL_CALC_RH+0x318>)
10002a58:	6821      	ldr	r1, [r4, #0]
10002a5a:	4411      	add	r1, r2
10002a5c:	6021      	str	r1, [r4, #0]
10002a5e:	e9de 210c 	ldrd	r2, r1, [lr, #48]	@ 0x30
10002a62:	4411      	add	r1, r2
10002a64:	f8de 2048 	ldr.w	r2, [lr, #72]	@ 0x48
10002a68:	401a      	ands	r2, r3
10002a6a:	440a      	add	r2, r1
10002a6c:	2abf      	cmp	r2, #191	@ 0xbf
10002a6e:	d82b      	bhi.n	10002ac8 <OPL_CALC_RH+0x2f0>
10002a70:	6901      	ldr	r1, [r0, #16]
10002a72:	f8de 0010 	ldr.w	r0, [lr, #16]
10002a76:	0c8b      	lsrs	r3, r1, #18
10002a78:	ea83 53d1 	eor.w	r3, r3, r1, lsr #23
10002a7c:	ea43 43d1 	orr.w	r3, r3, r1, lsr #19
10002a80:	07dc      	lsls	r4, r3, #31
10002a82:	ea4f 43d0 	mov.w	r3, r0, lsr #19
10002a86:	ea83 5350 	eor.w	r3, r3, r0, lsr #21
10002a8a:	bf4c      	ite	mi
10002a8c:	f44f 7440 	movmi.w	r4, #768	@ 0x300
10002a90:	f44f 7480 	movpl.w	r4, #256	@ 0x100
10002a94:	f013 0301 	ands.w	r3, r3, #1
10002a98:	f8be 104e 	ldrh.w	r1, [lr, #78]	@ 0x4e
10002a9c:	d05c      	beq.n	10002b58 <OPL_CALC_RH+0x380>
10002a9e:	2902      	cmp	r1, #2
10002aa0:	d063      	beq.n	10002b6a <OPL_CALC_RH+0x392>
10002aa2:	f021 0102 	bic.w	r1, r1, #2
10002aa6:	2901      	cmp	r1, #1
10002aa8:	d009      	beq.n	10002abe <OPL_CALC_RH+0x2e6>
10002aaa:	f44f 7440 	mov.w	r4, #768	@ 0x300
10002aae:	4b0e      	ldr	r3, [pc, #56]	@ (10002ae8 <OPL_CALC_RH+0x310>)
10002ab0:	f833 3014 	ldrh.w	r3, [r3, r4, lsl #1]
10002ab4:	eb03 1202 	add.w	r2, r3, r2, lsl #4
10002ab8:	f5b2 6f40 	cmp.w	r2, #3072	@ 0xc00
10002abc:	d35d      	bcc.n	10002b7a <OPL_CALC_RH+0x3a2>
10002abe:	2300      	movs	r3, #0
10002ac0:	490b      	ldr	r1, [pc, #44]	@ (10002af0 <OPL_CALC_RH+0x318>)
10002ac2:	680a      	ldr	r2, [r1, #0]
10002ac4:	441a      	add	r2, r3
10002ac6:	600a      	str	r2, [r1, #0]
10002ac8:	bdf0      	pop	{r4, r5, r6, r7, pc}
10002aca:	462e      	mov	r6, r5
10002acc:	e6a4      	b.n	10002818 <OPL_CALC_RH+0x40>
10002ace:	f44f 7600 	mov.w	r6, #512	@ 0x200
10002ad2:	f44f 7240 	mov.w	r2, #768	@ 0x300
10002ad6:	4637      	mov	r7, r6
10002ad8:	4615      	mov	r5, r2
10002ada:	e764      	b.n	100029a6 <OPL_CALC_RH+0x1ce>
10002adc:	20004284 	.word	0x20004284
10002ae0:	20008b4c 	.word	0x20008b4c
10002ae4:	20008adc 	.word	0x20008adc
10002ae8:	2001e9a4 	.word	0x2001e9a4
10002aec:	2001f1a8 	.word	0x2001f1a8
10002af0:	20008b48 	.word	0x20008b48
10002af4:	20004290 	.word	0x20004290
10002af8:	2000429c 	.word	0x2000429c
10002afc:	20004294 	.word	0x20004294
10002b00:	20004298 	.word	0x20004298
10002b04:	f8de 4010 	ldr.w	r4, [lr, #16]
10002b08:	0ce1      	lsrs	r1, r4, #19
10002b0a:	ea81 5154 	eor.w	r1, r1, r4, lsr #21
10002b0e:	07c9      	lsls	r1, r1, #31
10002b10:	f53f af09 	bmi.w	10002926 <OPL_CALC_RH+0x14e>
10002b14:	f8b0 104e 	ldrh.w	r1, [r0, #78]	@ 0x4e
10002b18:	f1bc 0f00 	cmp.w	ip, #0
10002b1c:	bf14      	ite	ne
10002b1e:	2434      	movne	r4, #52	@ 0x34
10002b20:	24d0      	moveq	r4, #208	@ 0xd0
10002b22:	2901      	cmp	r1, #1
10002b24:	f43f af11 	beq.w	1000294a <OPL_CALC_RH+0x172>
10002b28:	2900      	cmp	r1, #0
10002b2a:	f43f af0e 	beq.w	1000294a <OPL_CALC_RH+0x172>
10002b2e:	2902      	cmp	r1, #2
10002b30:	d002      	beq.n	10002b38 <OPL_CALC_RH+0x360>
10002b32:	2903      	cmp	r1, #3
10002b34:	f47f af09 	bne.w	1000294a <OPL_CALC_RH+0x172>
10002b38:	4625      	mov	r5, r4
10002b3a:	493e      	ldr	r1, [pc, #248]	@ (10002c34 <OPL_CALC_RH+0x45c>)
10002b3c:	f831 1015 	ldrh.w	r1, [r1, r5, lsl #1]
10002b40:	eb01 1202 	add.w	r2, r1, r2, lsl #4
10002b44:	f5b2 6f40 	cmp.w	r2, #3072	@ 0xc00
10002b48:	f4ff af08 	bcc.w	1000295c <OPL_CALC_RH+0x184>
10002b4c:	2200      	movs	r2, #0
10002b4e:	e713      	b.n	10002978 <OPL_CALC_RH+0x1a0>
10002b50:	18ba      	adds	r2, r7, r2
10002b52:	fa02 f404 	lsl.w	r4, r2, r4
10002b56:	e66a      	b.n	1000282e <OPL_CALC_RH+0x56>
10002b58:	2902      	cmp	r1, #2
10002b5a:	d006      	beq.n	10002b6a <OPL_CALC_RH+0x392>
10002b5c:	2903      	cmp	r1, #3
10002b5e:	d018      	beq.n	10002b92 <OPL_CALC_RH+0x3ba>
10002b60:	2901      	cmp	r1, #1
10002b62:	d1a4      	bne.n	10002aae <OPL_CALC_RH+0x2d6>
10002b64:	f5b4 7f80 	cmp.w	r4, #256	@ 0x100
10002b68:	d113      	bne.n	10002b92 <OPL_CALC_RH+0x3ba>
10002b6a:	4b32      	ldr	r3, [pc, #200]	@ (10002c34 <OPL_CALC_RH+0x45c>)
10002b6c:	f8b3 3200 	ldrh.w	r3, [r3, #512]	@ 0x200
10002b70:	eb03 1202 	add.w	r2, r3, r2, lsl #4
10002b74:	f5b2 6f40 	cmp.w	r2, #3072	@ 0xc00
10002b78:	d2a1      	bcs.n	10002abe <OPL_CALC_RH+0x2e6>
10002b7a:	4b2f      	ldr	r3, [pc, #188]	@ (10002c38 <OPL_CALC_RH+0x460>)
10002b7c:	f3c2 0147 	ubfx	r1, r2, #1, #8
10002b80:	f933 3011 	ldrsh.w	r3, [r3, r1, lsl #1]
10002b84:	1251      	asrs	r1, r2, #9
10002b86:	410b      	asrs	r3, r1
10002b88:	07d0      	lsls	r0, r2, #31
10002b8a:	bf48      	it	mi
10002b8c:	ebc3 73c3 	rsbmi	r3, r3, r3, lsl #31
10002b90:	005b      	lsls	r3, r3, #1
10002b92:	492a      	ldr	r1, [pc, #168]	@ (10002c3c <OPL_CALC_RH+0x464>)
10002b94:	680a      	ldr	r2, [r1, #0]
10002b96:	441a      	add	r2, r3
10002b98:	600a      	str	r2, [r1, #0]
10002b9a:	bdf0      	pop	{r4, r5, r6, r7, pc}
10002b9c:	0597      	lsls	r7, r2, #22
10002b9e:	f57f ae59 	bpl.w	10002854 <OPL_CALC_RH+0x7c>
10002ba2:	2400      	movs	r4, #0
10002ba4:	f8c0 4444 	str.w	r4, [r0, #1092]	@ 0x444
10002ba8:	e66b      	b.n	10002882 <OPL_CALC_RH+0xaa>
10002baa:	058f      	lsls	r7, r1, #22
10002bac:	f57f af3e 	bpl.w	10002a2c <OPL_CALC_RH+0x254>
10002bb0:	2200      	movs	r2, #0
10002bb2:	e750      	b.n	10002a56 <OPL_CALC_RH+0x27e>
10002bb4:	0595      	lsls	r5, r2, #22
10002bb6:	f57f ae86 	bpl.w	100028c6 <OPL_CALC_RH+0xee>
10002bba:	2200      	movs	r2, #0
10002bbc:	e698      	b.n	100028f0 <OPL_CALC_RH+0x118>
10002bbe:	05ad      	lsls	r5, r5, #22
10002bc0:	f57f af01 	bpl.w	100029c6 <OPL_CALC_RH+0x1ee>
10002bc4:	2200      	movs	r2, #0
10002bc6:	e713      	b.n	100029f0 <OPL_CALC_RH+0x218>
10002bc8:	25d0      	movs	r5, #208	@ 0xd0
10002bca:	f44f 7434 	mov.w	r4, #720	@ 0x2d0
10002bce:	e6b1      	b.n	10002934 <OPL_CALC_RH+0x15c>
10002bd0:	4c18      	ldr	r4, [pc, #96]	@ (10002c34 <OPL_CALC_RH+0x45c>)
10002bd2:	f3c2 0208 	ubfx	r2, r2, #0, #9
10002bd6:	f834 2012 	ldrh.w	r2, [r4, r2, lsl #1]
10002bda:	e63e      	b.n	1000285a <OPL_CALC_RH+0x82>
10002bdc:	4815      	ldr	r0, [pc, #84]	@ (10002c34 <OPL_CALC_RH+0x45c>)
10002bde:	f3c2 0208 	ubfx	r2, r2, #0, #9
10002be2:	f830 0012 	ldrh.w	r0, [r0, r2, lsl #1]
10002be6:	e671      	b.n	100028cc <OPL_CALC_RH+0xf4>
10002be8:	4c12      	ldr	r4, [pc, #72]	@ (10002c34 <OPL_CALC_RH+0x45c>)
10002bea:	f3c1 0108 	ubfx	r1, r1, #0, #9
10002bee:	f834 1011 	ldrh.w	r1, [r4, r1, lsl #1]
10002bf2:	e71e      	b.n	10002a32 <OPL_CALC_RH+0x25a>
10002bf4:	05ce      	lsls	r6, r1, #23
10002bf6:	d4db      	bmi.n	10002bb0 <OPL_CALC_RH+0x3d8>
10002bf8:	4c0e      	ldr	r4, [pc, #56]	@ (10002c34 <OPL_CALC_RH+0x45c>)
10002bfa:	b2c9      	uxtb	r1, r1
10002bfc:	f834 1011 	ldrh.w	r1, [r4, r1, lsl #1]
10002c00:	e717      	b.n	10002a32 <OPL_CALC_RH+0x25a>
10002c02:	05ec      	lsls	r4, r5, #23
10002c04:	d4de      	bmi.n	10002bc4 <OPL_CALC_RH+0x3ec>
10002c06:	4a0b      	ldr	r2, [pc, #44]	@ (10002c34 <OPL_CALC_RH+0x45c>)
10002c08:	8812      	ldrh	r2, [r2, #0]
10002c0a:	e6df      	b.n	100029cc <OPL_CALC_RH+0x1f4>
10002c0c:	4a09      	ldr	r2, [pc, #36]	@ (10002c34 <OPL_CALC_RH+0x45c>)
10002c0e:	f3c5 0508 	ubfx	r5, r5, #0, #9
10002c12:	f832 2015 	ldrh.w	r2, [r2, r5, lsl #1]
10002c16:	e6d9      	b.n	100029cc <OPL_CALC_RH+0x1f4>
10002c18:	05d4      	lsls	r4, r2, #23
10002c1a:	d4c2      	bmi.n	10002ba2 <OPL_CALC_RH+0x3ca>
10002c1c:	4c05      	ldr	r4, [pc, #20]	@ (10002c34 <OPL_CALC_RH+0x45c>)
10002c1e:	b2d2      	uxtb	r2, r2
10002c20:	f834 2012 	ldrh.w	r2, [r4, r2, lsl #1]
10002c24:	e619      	b.n	1000285a <OPL_CALC_RH+0x82>
10002c26:	05d4      	lsls	r4, r2, #23
10002c28:	d4c7      	bmi.n	10002bba <OPL_CALC_RH+0x3e2>
10002c2a:	4802      	ldr	r0, [pc, #8]	@ (10002c34 <OPL_CALC_RH+0x45c>)
10002c2c:	b2d2      	uxtb	r2, r2
10002c2e:	f830 0012 	ldrh.w	r0, [r0, r2, lsl #1]
10002c32:	e64b      	b.n	100028cc <OPL_CALC_RH+0xf4>
10002c34:	2001e9a4 	.word	0x2001e9a4
10002c38:	2001f1a8 	.word	0x2001f1a8
10002c3c:	20008b48 	.word	0x20008b48

10002c40 <ym3812_init>:
10002c40:	e92d 4ff0 	stmdb	sp!, {r4, r5, r6, r7, r8, r9, sl, fp, lr}
10002c44:	ed2d 8b06 	vpush	{d8-d10}
10002c48:	2500      	movs	r5, #0
10002c4a:	ed9f 9a73 	vldr	s18, [pc, #460]	@ 10002e18 <ym3812_init+0x1d8>
10002c4e:	eef4 8a00 	vmov.f32	s17, #64	@ 0x3e000000  0.125
10002c52:	ed9f 8a72 	vldr	s16, [pc, #456]	@ 10002e1c <ym3812_init+0x1dc>
10002c56:	460c      	mov	r4, r1
10002c58:	b083      	sub	sp, #12
10002c5a:	4e71      	ldr	r6, [pc, #452]	@ (10002e20 <ym3812_init+0x1e0>)
10002c5c:	9000      	str	r0, [sp, #0]
10002c5e:	3501      	adds	r5, #1
10002c60:	ee07 5a90 	vmov	s15, r5
10002c64:	eef8 7ae7 	vcvt.f32.s32	s15, s15
10002c68:	ee67 7a89 	vmul.f32	s15, s15, s18
10002c6c:	ee67 7aa8 	vmul.f32	s15, s15, s17
10002c70:	f04f 4080 	mov.w	r0, #1073741824	@ 0x40000000
10002c74:	ee17 1a90 	vmov	r1, s15
10002c78:	f004 fe70 	bl	1000795c <__wrap_powf>
10002c7c:	ee07 0a10 	vmov	s14, r0
10002c80:	eec8 7a07 	vdiv.f32	s15, s16, s14
10002c84:	fefb 7a67 	vrintm.f32	s15, s15
10002c88:	eefd 7ae7 	vcvt.s32.f32	s15, s15
10002c8c:	ee17 2a90 	vmov	r2, s15
10002c90:	1153      	asrs	r3, r2, #5
10002c92:	06d2      	lsls	r2, r2, #27
10002c94:	bf48      	it	mi
10002c96:	3301      	addmi	r3, #1
10002c98:	005b      	lsls	r3, r3, #1
10002c9a:	f5b5 7f80 	cmp.w	r5, #256	@ 0x100
10002c9e:	f826 3f02 	strh.w	r3, [r6, #2]!
10002ca2:	d1dc      	bne.n	10002c5e <ym3812_init+0x1e>
10002ca4:	4d5f      	ldr	r5, [pc, #380]	@ (10002e24 <ym3812_init+0x1e4>)
10002ca6:	9401      	str	r4, [sp, #4]
10002ca8:	ed9f 8a5f 	vldr	s16, [pc, #380]	@ 10002e28 <ym3812_init+0x1e8>
10002cac:	f20f 1960 	addw	r9, pc, #352	@ 0x160
10002cb0:	e9d9 8900 	ldrd	r8, r9, [r9]
10002cb4:	eebf aa00 	vmov.f32	s20, #240	@ 0xbf800000 -1.0
10002cb8:	eef2 9a00 	vmov.f32	s19, #32	@ 0x41000000  8.0
10002cbc:	ed9f 9a5b 	vldr	s18, [pc, #364]	@ 10002e2c <ym3812_init+0x1ec>
10002cc0:	eddf 8a5b 	vldr	s17, [pc, #364]	@ 10002e30 <ym3812_init+0x1f0>
10002cc4:	2600      	movs	r6, #0
10002cc6:	4f5b      	ldr	r7, [pc, #364]	@ (10002e34 <ym3812_init+0x1f4>)
10002cc8:	f205 7afe 	addw	sl, r5, #2046	@ 0x7fe
10002ccc:	1eac      	subs	r4, r5, #2
10002cce:	e03d      	b.n	10002d4c <ym3812_init+0x10c>
10002cd0:	eef7 7a00 	vmov.f32	s15, #112	@ 0x3f800000  1.0
10002cd4:	eec7 7a88 	vdiv.f32	s15, s15, s16
10002cd8:	ee17 0a90 	vmov	r0, s15
10002cdc:	f004 ff48 	bl	10007b70 <__wrap_logf>
10002ce0:	ee07 0a10 	vmov	s14, r0
10002ce4:	ee27 7a29 	vmul.f32	s14, s14, s19
10002ce8:	eec7 7a09 	vdiv.f32	s15, s14, s18
10002cec:	ee67 7aa8 	vmul.f32	s15, s15, s17
10002cf0:	ee77 7aa7 	vadd.f32	s15, s15, s15
10002cf4:	eeb5 8ac0 	vcmpe.f32	s16, #0.0
10002cf8:	eefd 7ae7 	vcvt.s32.f32	s15, s15
10002cfc:	eef1 fa10 	vmrs	APSR_nzcv, fpscr
10002d00:	ee17 2a90 	vmov	r2, s15
10002d04:	bfac      	ite	ge
10002d06:	2301      	movge	r3, #1
10002d08:	2300      	movlt	r3, #0
10002d0a:	f002 0c01 	and.w	ip, r2, #1
10002d0e:	f104 0b02 	add.w	fp, r4, #2
10002d12:	eb0c 0262 	add.w	r2, ip, r2, asr #1
10002d16:	f083 0301 	eor.w	r3, r3, #1
10002d1a:	1d60      	adds	r0, r4, #5
10002d1c:	eb03 0342 	add.w	r3, r3, r2, lsl #1
10002d20:	45da      	cmp	sl, fp
10002d22:	eba0 0005 	sub.w	r0, r0, r5
10002d26:	8063      	strh	r3, [r4, #2]
10002d28:	d018      	beq.n	10002d5c <ym3812_init+0x11c>
10002d2a:	f004 f8c3 	bl	10006eb4 <__wrap___aeabi_i2d>
10002d2e:	4642      	mov	r2, r8
10002d30:	464b      	mov	r3, r9
10002d32:	f004 f83d 	bl	10006db0 <__wrap___aeabi_dmul>
10002d36:	4632      	mov	r2, r6
10002d38:	463b      	mov	r3, r7
10002d3a:	f004 f839 	bl	10006db0 <__wrap___aeabi_dmul>
10002d3e:	f004 f8ab 	bl	10006e98 <__wrap___aeabi_d2f>
10002d42:	f005 f87d 	bl	10007e40 <__wrap_sinf>
10002d46:	465c      	mov	r4, fp
10002d48:	ee08 0a10 	vmov	s16, r0
10002d4c:	eeb5 8ac0 	vcmpe.f32	s16, #0.0
10002d50:	eef1 fa10 	vmrs	APSR_nzcv, fpscr
10002d54:	dcbc      	bgt.n	10002cd0 <ym3812_init+0x90>
10002d56:	eeca 7a08 	vdiv.f32	s15, s20, s16
10002d5a:	e7bd      	b.n	10002cd8 <ym3812_init+0x98>
10002d5c:	f240 6284 	movw	r2, #1668	@ 0x684
10002d60:	2100      	movs	r1, #0
10002d62:	4835      	ldr	r0, [pc, #212]	@ (10002e38 <ym3812_init+0x1f8>)
10002d64:	9c01      	ldr	r4, [sp, #4]
10002d66:	f008 f827 	bl	1000adb8 <memset>
10002d6a:	2201      	movs	r2, #1
10002d6c:	9900      	ldr	r1, [sp, #0]
10002d6e:	4603      	mov	r3, r0
10002d70:	f8c0 1678 	str.w	r1, [r0, #1656]	@ 0x678
10002d74:	f880 2670 	strb.w	r2, [r0, #1648]	@ 0x670
10002d78:	f8c0 467c 	str.w	r4, [r0, #1660]	@ 0x67c
10002d7c:	2c00      	cmp	r4, #0
10002d7e:	d03f      	beq.n	10002e00 <ym3812_init+0x1c0>
10002d80:	ee07 1a90 	vmov	s15, r1
10002d84:	eddf 4a2d 	vldr	s9, [pc, #180]	@ 10002e3c <ym3812_init+0x1fc>
10002d88:	eef8 6a67 	vcvt.f32.u32	s13, s15
10002d8c:	ee07 4a90 	vmov	s15, r4
10002d90:	ee86 5aa4 	vdiv.f32	s10, s13, s9
10002d94:	eef8 5a67 	vcvt.f32.u32	s11, s15
10002d98:	ed9f 6a29 	vldr	s12, [pc, #164]	@ 10002e40 <ym3812_init+0x200>
10002d9c:	eec5 6a25 	vdiv.f32	s13, s10, s11
10002da0:	ed9f 7a28 	vldr	s14, [pc, #160]	@ 10002e44 <ym3812_init+0x204>
10002da4:	eddf 7a1d 	vldr	s15, [pc, #116]	@ 10002e1c <ym3812_init+0x1dc>
10002da8:	ee26 6a86 	vmul.f32	s12, s13, s12
10002dac:	ee26 7a87 	vmul.f32	s14, s13, s14
10002db0:	ee66 7aa7 	vmul.f32	s15, s13, s15
10002db4:	eebc 6ac6 	vcvt.u32.f32	s12, s12
10002db8:	eebc 7ac7 	vcvt.u32.f32	s14, s14
10002dbc:	eefc 7ae7 	vcvt.u32.f32	s15, s15
10002dc0:	ee16 4a10 	vmov	r4, s12
10002dc4:	ee17 1a10 	vmov	r1, s14
10002dc8:	ee17 2a90 	vmov	r2, s15
10002dcc:	f8c3 4648 	str.w	r4, [r3, #1608]	@ 0x648
10002dd0:	f44f 3480 	mov.w	r4, #65536	@ 0x10000
10002dd4:	4d1c      	ldr	r5, [pc, #112]	@ (10002e48 <ym3812_init+0x208>)
10002dd6:	f8c3 1650 	str.w	r1, [r3, #1616]	@ 0x650
10002dda:	f5a5 60d0 	sub.w	r0, r5, #1664	@ 0x680
10002dde:	edc5 6a00 	vstr	s13, [r5]
10002de2:	f8c3 265c 	str.w	r2, [r3, #1628]	@ 0x65c
10002de6:	f8c3 2638 	str.w	r2, [r3, #1592]	@ 0x638
10002dea:	f8c3 463c 	str.w	r4, [r3, #1596]	@ 0x63c
10002dee:	f7ff fb89 	bl	10002504 <OPLResetChip>
10002df2:	f5a5 60d0 	sub.w	r0, r5, #1664	@ 0x680
10002df6:	b003      	add	sp, #12
10002df8:	ecbd 8b06 	vpop	{d8-d10}
10002dfc:	e8bd 8ff0 	ldmia.w	sp!, {r4, r5, r6, r7, r8, r9, sl, fp, pc}
10002e00:	4622      	mov	r2, r4
10002e02:	4621      	mov	r1, r4
10002e04:	eddf 6a11 	vldr	s13, [pc, #68]	@ 10002e4c <ym3812_init+0x20c>
10002e08:	e7e0      	b.n	10002dcc <ym3812_init+0x18c>
10002e0a:	bf00      	nop
10002e0c:	f3af 8000 	nop.w
10002e10:	54442d18 	.word	0x54442d18
10002e14:	400921fb 	.word	0x400921fb
10002e18:	3d000000 	.word	0x3d000000
10002e1c:	47800000 	.word	0x47800000
10002e20:	2001f1a6 	.word	0x2001f1a6
10002e24:	2001e9a4 	.word	0x2001e9a4
10002e28:	3b490fc6 	.word	0x3b490fc6
10002e2c:	3f317218 	.word	0x3f317218
10002e30:	42000000 	.word	0x42000000
10002e34:	3f500000 	.word	0x3f500000
10002e38:	20001a00 	.word	0x20001a00
10002e3c:	42900000 	.word	0x42900000
10002e40:	48800000 	.word	0x48800000
10002e44:	46800000 	.word	0x46800000
10002e48:	20002080 	.word	0x20002080
10002e4c:	00000000 	.word	0x00000000

10002e50 <ym3812_write>:
10002e50:	07c9      	lsls	r1, r1, #31
10002e52:	d405      	bmi.n	10002e60 <ym3812_write+0x10>
10002e54:	f880 2671 	strb.w	r2, [r0, #1649]	@ 0x671
10002e58:	f890 0672 	ldrb.w	r0, [r0, #1650]	@ 0x672
10002e5c:	09c0      	lsrs	r0, r0, #7
10002e5e:	4770      	bx	lr
10002e60:	b500      	push	{lr}
10002e62:	b083      	sub	sp, #12
10002e64:	f890 1671 	ldrb.w	r1, [r0, #1649]	@ 0x671
10002e68:	9001      	str	r0, [sp, #4]
10002e6a:	f7fe ff21 	bl	10001cb0 <OPLWriteReg>
10002e6e:	9b01      	ldr	r3, [sp, #4]
10002e70:	f893 0672 	ldrb.w	r0, [r3, #1650]	@ 0x672
10002e74:	09c0      	lsrs	r0, r0, #7
10002e76:	b003      	add	sp, #12
10002e78:	bd00      	pop	{pc}
10002e7a:	bf00      	nop

10002e7c <ym3812_update_one>:
10002e7c:	e92d 4ff0 	stmdb	sp!, {r4, r5, r6, r7, r8, r9, sl, fp, lr}
10002e80:	4bb7      	ldr	r3, [pc, #732]	@ (10003160 <ym3812_update_one+0x2e4>)
10002e82:	f890 4640 	ldrb.w	r4, [r0, #1600]	@ 0x640
10002e86:	681d      	ldr	r5, [r3, #0]
10002e88:	b08b      	sub	sp, #44	@ 0x2c
10002e8a:	4285      	cmp	r5, r0
10002e8c:	d011      	beq.n	10002eb2 <ym3812_update_one+0x36>
10002e8e:	4fb5      	ldr	r7, [pc, #724]	@ (10003164 <ym3812_update_one+0x2e8>)
10002e90:	4eb5      	ldr	r6, [pc, #724]	@ (10003168 <ym3812_update_one+0x2ec>)
10002e92:	f500 6c9a 	add.w	ip, r0, #1232	@ 0x4d0
10002e96:	4db5      	ldr	r5, [pc, #724]	@ (1000316c <ym3812_update_one+0x2f0>)
10002e98:	f8c7 c000 	str.w	ip, [r7]
10002e9c:	f500 67a4 	add.w	r7, r0, #1312	@ 0x520
10002ea0:	6018      	str	r0, [r3, #0]
10002ea2:	6037      	str	r7, [r6, #0]
10002ea4:	4bb2      	ldr	r3, [pc, #712]	@ (10003170 <ym3812_update_one+0x2f4>)
10002ea6:	f500 66b0 	add.w	r6, r0, #1408	@ 0x580
10002eaa:	602e      	str	r6, [r5, #0]
10002eac:	f500 65ba 	add.w	r5, r0, #1488	@ 0x5d0
10002eb0:	601d      	str	r5, [r3, #0]
10002eb2:	2a00      	cmp	r2, #0
10002eb4:	f340 81d9 	ble.w	1000326a <ym3812_update_one+0x3ee>
10002eb8:	4683      	mov	fp, r0
10002eba:	f04f 0900 	mov.w	r9, #0
10002ebe:	f004 0320 	and.w	r3, r4, #32
10002ec2:	9303      	str	r3, [sp, #12]
10002ec4:	f100 03b0 	add.w	r3, r0, #176	@ 0xb0
10002ec8:	9308      	str	r3, [sp, #32]
10002eca:	f500 73b0 	add.w	r3, r0, #352	@ 0x160
10002ece:	9307      	str	r3, [sp, #28]
10002ed0:	f500 7304 	add.w	r3, r0, #528	@ 0x210
10002ed4:	9306      	str	r3, [sp, #24]
10002ed6:	f500 7330 	add.w	r3, r0, #704	@ 0x2c0
10002eda:	9305      	str	r3, [sp, #20]
10002edc:	f500 735c 	add.w	r3, r0, #880	@ 0x370
10002ee0:	9304      	str	r3, [sp, #16]
10002ee2:	9209      	str	r2, [sp, #36]	@ 0x24
10002ee4:	f1a1 0804 	sub.w	r8, r1, #4
10002ee8:	2300      	movs	r3, #0
10002eea:	4aa2      	ldr	r2, [pc, #648]	@ (10003174 <ym3812_update_one+0x2f8>)
10002eec:	f89b 1641 	ldrb.w	r1, [fp, #1601]	@ 0x641
10002ef0:	6013      	str	r3, [r2, #0]
10002ef2:	f8db 3644 	ldr.w	r3, [fp, #1604]	@ 0x644
10002ef6:	f8db 2648 	ldr.w	r2, [fp, #1608]	@ 0x648
10002efa:	4c9f      	ldr	r4, [pc, #636]	@ (10003178 <ym3812_update_one+0x2fc>)
10002efc:	4413      	add	r3, r2
10002efe:	f1b3 4f52 	cmp.w	r3, #3523215360	@ 0xd2000000
10002f02:	bf28      	it	cs
10002f04:	f103 5338 	addcs.w	r3, r3, #771751936	@ 0x2e000000
10002f08:	4a9c      	ldr	r2, [pc, #624]	@ (1000317c <ym3812_update_one+0x300>)
10002f0a:	f8cb 3644 	str.w	r3, [fp, #1604]	@ 0x644
10002f0e:	0e1b      	lsrs	r3, r3, #24
10002f10:	5cd3      	ldrb	r3, [r2, r3]
10002f12:	4658      	mov	r0, fp
10002f14:	089a      	lsrs	r2, r3, #2
10002f16:	2900      	cmp	r1, #0
10002f18:	bf08      	it	eq
10002f1a:	4613      	moveq	r3, r2
10002f1c:	4a98      	ldr	r2, [pc, #608]	@ (10003180 <ym3812_update_one+0x304>)
10002f1e:	4d99      	ldr	r5, [pc, #612]	@ (10003184 <ym3812_update_one+0x308>)
10002f20:	6013      	str	r3, [r2, #0]
10002f22:	f8db 364c 	ldr.w	r3, [fp, #1612]	@ 0x64c
10002f26:	f8db 2650 	ldr.w	r2, [fp, #1616]	@ 0x650
10002f2a:	4413      	add	r3, r2
10002f2c:	f89b 2642 	ldrb.w	r2, [fp, #1602]	@ 0x642
10002f30:	f8cb 364c 	str.w	r3, [fp, #1612]	@ 0x64c
10002f34:	f3c3 6302 	ubfx	r3, r3, #24, #3
10002f38:	ea43 0a02 	orr.w	sl, r3, r2
10002f3c:	4b92      	ldr	r3, [pc, #584]	@ (10003188 <ym3812_update_one+0x30c>)
10002f3e:	f8c3 a000 	str.w	sl, [r3]
10002f42:	f7ff fb9d 	bl	10002680 <OPL_CALC_CH>
10002f46:	6823      	ldr	r3, [r4, #0]
10002f48:	9808      	ldr	r0, [sp, #32]
10002f4a:	602b      	str	r3, [r5, #0]
10002f4c:	f7ff fb98 	bl	10002680 <OPL_CALC_CH>
10002f50:	6823      	ldr	r3, [r4, #0]
10002f52:	9807      	ldr	r0, [sp, #28]
10002f54:	606b      	str	r3, [r5, #4]
10002f56:	f7ff fb93 	bl	10002680 <OPL_CALC_CH>
10002f5a:	6823      	ldr	r3, [r4, #0]
10002f5c:	9806      	ldr	r0, [sp, #24]
10002f5e:	60ab      	str	r3, [r5, #8]
10002f60:	f7ff fb8e 	bl	10002680 <OPL_CALC_CH>
10002f64:	6823      	ldr	r3, [r4, #0]
10002f66:	9805      	ldr	r0, [sp, #20]
10002f68:	60eb      	str	r3, [r5, #12]
10002f6a:	f7ff fb89 	bl	10002680 <OPL_CALC_CH>
10002f6e:	6823      	ldr	r3, [r4, #0]
10002f70:	9804      	ldr	r0, [sp, #16]
10002f72:	612b      	str	r3, [r5, #16]
10002f74:	f7ff fb84 	bl	10002680 <OPL_CALC_CH>
10002f78:	6823      	ldr	r3, [r4, #0]
10002f7a:	616b      	str	r3, [r5, #20]
10002f7c:	9b03      	ldr	r3, [sp, #12]
10002f7e:	2b00      	cmp	r3, #0
10002f80:	f040 8176 	bne.w	10003270 <ym3812_update_one+0x3f4>
10002f84:	f50b 6084 	add.w	r0, fp, #1056	@ 0x420
10002f88:	f7ff fb7a 	bl	10002680 <OPL_CALC_CH>
10002f8c:	6823      	ldr	r3, [r4, #0]
10002f8e:	f50b 609a 	add.w	r0, fp, #1232	@ 0x4d0
10002f92:	61ab      	str	r3, [r5, #24]
10002f94:	f7ff fb74 	bl	10002680 <OPL_CALC_CH>
10002f98:	6823      	ldr	r3, [r4, #0]
10002f9a:	f50b 60b0 	add.w	r0, fp, #1408	@ 0x580
10002f9e:	61eb      	str	r3, [r5, #28]
10002fa0:	f7ff fb6e 	bl	10002680 <OPL_CALC_CH>
10002fa4:	6823      	ldr	r3, [r4, #0]
10002fa6:	622b      	str	r3, [r5, #32]
10002fa8:	4b72      	ldr	r3, [pc, #456]	@ (10003174 <ym3812_update_one+0x2f8>)
10002faa:	681b      	ldr	r3, [r3, #0]
10002fac:	f848 3f04 	str.w	r3, [r8, #4]!
10002fb0:	f8db 4634 	ldr.w	r4, [fp, #1588]	@ 0x634
10002fb4:	f8db 3638 	ldr.w	r3, [fp, #1592]	@ 0x638
10002fb8:	f8db 563c 	ldr.w	r5, [fp, #1596]	@ 0x63c
10002fbc:	441c      	add	r4, r3
10002fbe:	42ac      	cmp	r4, r5
10002fc0:	f8cb 4634 	str.w	r4, [fp, #1588]	@ 0x634
10002fc4:	d35b      	bcc.n	1000307e <ym3812_update_one+0x202>
10002fc6:	e9cd 9a01 	strd	r9, sl, [sp, #4]
10002fca:	21b0      	movs	r1, #176	@ 0xb0
10002fcc:	2001      	movs	r0, #1
10002fce:	f04f 0c02 	mov.w	ip, #2
10002fd2:	46c2      	mov	sl, r8
10002fd4:	f8db 2630 	ldr.w	r2, [fp, #1584]	@ 0x630
10002fd8:	2600      	movs	r6, #0
10002fda:	1b64      	subs	r4, r4, r5
10002fdc:	3201      	adds	r2, #1
10002fde:	9600      	str	r6, [sp, #0]
10002fe0:	9f00      	ldr	r7, [sp, #0]
10002fe2:	107b      	asrs	r3, r7, #1
10002fe4:	fb01 f603 	mul.w	r6, r1, r3
10002fe8:	f007 0e01 	and.w	lr, r7, #1
10002fec:	eb0e 088e 	add.w	r8, lr, lr, lsl #2
10002ff0:	eb06 1608 	add.w	r6, r6, r8, lsl #4
10002ff4:	445e      	add	r6, fp
10002ff6:	f896 602a 	ldrb.w	r6, [r6, #42]	@ 0x2a
10002ffa:	3e01      	subs	r6, #1
10002ffc:	2e03      	cmp	r6, #3
10002ffe:	d82e      	bhi.n	1000305e <ym3812_update_one+0x1e2>
10003000:	e8df f016 	tbh	[pc, r6, lsl #1]
10003004:	008500ca 	.word	0x008500ca
10003008:	000400f1 	.word	0x000400f1
1000300c:	fb01 f303 	mul.w	r3, r1, r3
10003010:	eb0e 0e8e 	add.w	lr, lr, lr, lsl #2
10003014:	eb03 130e 	add.w	r3, r3, lr, lsl #4
10003018:	445b      	add	r3, fp
1000301a:	f893 e03c 	ldrb.w	lr, [r3, #60]	@ 0x3c
1000301e:	fa00 f60e 	lsl.w	r6, r0, lr
10003022:	3e01      	subs	r6, #1
10003024:	4016      	ands	r6, r2
10003026:	d11a      	bne.n	1000305e <ym3812_update_one+0x1e2>
10003028:	4f58      	ldr	r7, [pc, #352]	@ (1000318c <ym3812_update_one+0x310>)
1000302a:	fa22 fe0e 	lsr.w	lr, r2, lr
1000302e:	f8d3 8034 	ldr.w	r8, [r3, #52]	@ 0x34
10003032:	f893 903d 	ldrb.w	r9, [r3, #61]	@ 0x3d
10003036:	f00e 0e07 	and.w	lr, lr, #7
1000303a:	44be      	add	lr, r7
1000303c:	f81e e009 	ldrb.w	lr, [lr, r9]
10003040:	ea6f 0908 	mvn.w	r9, r8
10003044:	fb09 fe0e 	mul.w	lr, r9, lr
10003048:	eb08 08ee 	add.w	r8, r8, lr, asr #3
1000304c:	f1b8 0f00 	cmp.w	r8, #0
10003050:	bfdb      	ittet	le
10003052:	635e      	strle	r6, [r3, #52]	@ 0x34
10003054:	2603      	movle	r6, #3
10003056:	f8c3 8034 	strgt.w	r8, [r3, #52]	@ 0x34
1000305a:	f883 602a 	strble.w	r6, [r3, #42]	@ 0x2a
1000305e:	9b00      	ldr	r3, [sp, #0]
10003060:	3301      	adds	r3, #1
10003062:	2b12      	cmp	r3, #18
10003064:	9300      	str	r3, [sp, #0]
10003066:	d1bb      	bne.n	10002fe0 <ym3812_update_one+0x164>
10003068:	42ac      	cmp	r4, r5
1000306a:	d2b5      	bcs.n	10002fd8 <ym3812_update_one+0x15c>
1000306c:	46d0      	mov	r8, sl
1000306e:	f8dd 9004 	ldr.w	r9, [sp, #4]
10003072:	f8dd a008 	ldr.w	sl, [sp, #8]
10003076:	f8cb 2630 	str.w	r2, [fp, #1584]	@ 0x630
1000307a:	f8cb 4634 	str.w	r4, [fp, #1588]	@ 0x634
1000307e:	2400      	movs	r4, #0
10003080:	26b0      	movs	r6, #176	@ 0xb0
10003082:	e029      	b.n	100030d8 <ym3812_update_one+0x25c>
10003084:	f8d7 e0a0 	ldr.w	lr, [r7, #160]	@ 0xa0
10003088:	4f41      	ldr	r7, [pc, #260]	@ (10003190 <ym3812_update_one+0x314>)
1000308a:	f3ce 1cc2 	ubfx	ip, lr, #7, #3
1000308e:	eb07 1c0c 	add.w	ip, r7, ip, lsl #4
10003092:	f91c c00a 	ldrsb.w	ip, [ip, sl]
10003096:	eb0e 070c 	add.w	r7, lr, ip
1000309a:	f3c7 0e09 	ubfx	lr, r7, #0, #10
1000309e:	f3c7 2782 	ubfx	r7, r7, #10, #3
100030a2:	f1c7 0707 	rsb	r7, r7, #7
100030a6:	f1bc 0f00 	cmp.w	ip, #0
100030aa:	d028      	beq.n	100030fe <ym3812_update_one+0x282>
100030ac:	4d39      	ldr	r5, [pc, #228]	@ (10003194 <ym3812_update_one+0x318>)
100030ae:	fb05 fe0e 	mul.w	lr, r5, lr
100030b2:	7bcd      	ldrb	r5, [r1, #15]
100030b4:	ea4f 219e 	mov.w	r1, lr, lsr #10
100030b8:	0189      	lsls	r1, r1, #6
100030ba:	40f9      	lsrs	r1, r7
100030bc:	fb05 0101 	mla	r1, r5, r1, r0
100030c0:	fb06 f303 	mul.w	r3, r6, r3
100030c4:	eb02 0282 	add.w	r2, r2, r2, lsl #2
100030c8:	3401      	adds	r4, #1
100030ca:	eb03 1302 	add.w	r3, r3, r2, lsl #4
100030ce:	445b      	add	r3, fp
100030d0:	2c12      	cmp	r4, #18
100030d2:	6119      	str	r1, [r3, #16]
100030d4:	f000 80ac 	beq.w	10003230 <ym3812_update_one+0x3b4>
100030d8:	1063      	asrs	r3, r4, #1
100030da:	fb06 f103 	mul.w	r1, r6, r3
100030de:	f004 0201 	and.w	r2, r4, #1
100030e2:	eb02 0082 	add.w	r0, r2, r2, lsl #2
100030e6:	eb0b 0701 	add.w	r7, fp, r1
100030ea:	eb01 1100 	add.w	r1, r1, r0, lsl #4
100030ee:	4459      	add	r1, fp
100030f0:	f891 c04c 	ldrb.w	ip, [r1, #76]	@ 0x4c
100030f4:	4605      	mov	r5, r0
100030f6:	6908      	ldr	r0, [r1, #16]
100030f8:	f1bc 0f00 	cmp.w	ip, #0
100030fc:	d1c2      	bne.n	10003084 <ym3812_update_one+0x208>
100030fe:	fb06 f103 	mul.w	r1, r6, r3
10003102:	eb01 1105 	add.w	r1, r1, r5, lsl #4
10003106:	4459      	add	r1, fp
10003108:	6949      	ldr	r1, [r1, #20]
1000310a:	4401      	add	r1, r0
1000310c:	e7d8      	b.n	100030c0 <ym3812_update_one+0x244>
1000310e:	fb01 f603 	mul.w	r6, r1, r3
10003112:	eb0e 0e8e 	add.w	lr, lr, lr, lsl #2
10003116:	eb06 160e 	add.w	r6, r6, lr, lsl #4
1000311a:	445e      	add	r6, fp
1000311c:	f896 3029 	ldrb.w	r3, [r6, #41]	@ 0x29
10003120:	2b00      	cmp	r3, #0
10003122:	d19c      	bne.n	1000305e <ym3812_update_one+0x1e2>
10003124:	f896 3040 	ldrb.w	r3, [r6, #64]	@ 0x40
10003128:	fa00 fe03 	lsl.w	lr, r0, r3
1000312c:	f10e 3eff 	add.w	lr, lr, #4294967295	@ 0xffffffff
10003130:	ea1e 0f02 	tst.w	lr, r2
10003134:	d193      	bne.n	1000305e <ym3812_update_one+0x1e2>
10003136:	4f15      	ldr	r7, [pc, #84]	@ (1000318c <ym3812_update_one+0x310>)
10003138:	fa22 f303 	lsr.w	r3, r2, r3
1000313c:	f896 e041 	ldrb.w	lr, [r6, #65]	@ 0x41
10003140:	f003 0307 	and.w	r3, r3, #7
10003144:	443b      	add	r3, r7
10003146:	f813 e00e 	ldrb.w	lr, [r3, lr]
1000314a:	6b73      	ldr	r3, [r6, #52]	@ 0x34
1000314c:	449e      	add	lr, r3
1000314e:	f240 13ff 	movw	r3, #511	@ 0x1ff
10003152:	f5be 7fff 	cmp.w	lr, #510	@ 0x1fe
10003156:	bfd8      	it	le
10003158:	4673      	movle	r3, lr
1000315a:	6373      	str	r3, [r6, #52]	@ 0x34
1000315c:	e77f      	b.n	1000305e <ym3812_update_one+0x1e2>
1000315e:	bf00      	nop
10003160:	20008ab0 	.word	0x20008ab0
10003164:	20004290 	.word	0x20004290
10003168:	20004294 	.word	0x20004294
1000316c:	20004298 	.word	0x20004298
10003170:	2000429c 	.word	0x2000429c
10003174:	20008b48 	.word	0x20008b48
10003178:	20008adc 	.word	0x20008adc
1000317c:	200001d0 	.word	0x200001d0
10003180:	20004284 	.word	0x20004284
10003184:	20004260 	.word	0x20004260
10003188:	20004288 	.word	0x20004288
1000318c:	20000374 	.word	0x20000374
10003190:	20000150 	.word	0x20000150
10003194:	0001209a 	.word	0x0001209a
10003198:	fb01 f303 	mul.w	r3, r1, r3
1000319c:	eb0e 0e8e 	add.w	lr, lr, lr, lsl #2
100031a0:	eb03 130e 	add.w	r3, r3, lr, lsl #4
100031a4:	eb0b 0603 	add.w	r6, fp, r3
100031a8:	f896 3040 	ldrb.w	r3, [r6, #64]	@ 0x40
100031ac:	fa00 fe03 	lsl.w	lr, r0, r3
100031b0:	f10e 3eff 	add.w	lr, lr, #4294967295	@ 0xffffffff
100031b4:	ea1e 0e02 	ands.w	lr, lr, r2
100031b8:	f47f af51 	bne.w	1000305e <ym3812_update_one+0x1e2>
100031bc:	4f33      	ldr	r7, [pc, #204]	@ (1000328c <ym3812_update_one+0x410>)
100031be:	fa22 f303 	lsr.w	r3, r2, r3
100031c2:	f896 8041 	ldrb.w	r8, [r6, #65]	@ 0x41
100031c6:	f003 0307 	and.w	r3, r3, #7
100031ca:	443b      	add	r3, r7
100031cc:	f813 8008 	ldrb.w	r8, [r3, r8]
100031d0:	6b73      	ldr	r3, [r6, #52]	@ 0x34
100031d2:	4443      	add	r3, r8
100031d4:	f5b3 7fff 	cmp.w	r3, #510	@ 0x1fe
100031d8:	bfc4      	itt	gt
100031da:	f240 13ff 	movwgt	r3, #511	@ 0x1ff
100031de:	f886 e02a 	strbgt.w	lr, [r6, #42]	@ 0x2a
100031e2:	6373      	str	r3, [r6, #52]	@ 0x34
100031e4:	e73b      	b.n	1000305e <ym3812_update_one+0x1e2>
100031e6:	fb01 f603 	mul.w	r6, r1, r3
100031ea:	eb0e 0e8e 	add.w	lr, lr, lr, lsl #2
100031ee:	eb06 160e 	add.w	r6, r6, lr, lsl #4
100031f2:	445e      	add	r6, fp
100031f4:	f896 303e 	ldrb.w	r3, [r6, #62]	@ 0x3e
100031f8:	fa00 fe03 	lsl.w	lr, r0, r3
100031fc:	f10e 3eff 	add.w	lr, lr, #4294967295	@ 0xffffffff
10003200:	ea1e 0f02 	tst.w	lr, r2
10003204:	f47f af2b 	bne.w	1000305e <ym3812_update_one+0x1e2>
10003208:	4f20      	ldr	r7, [pc, #128]	@ (1000328c <ym3812_update_one+0x410>)
1000320a:	fa22 f303 	lsr.w	r3, r2, r3
1000320e:	f896 e03f 	ldrb.w	lr, [r6, #63]	@ 0x3f
10003212:	f003 0307 	and.w	r3, r3, #7
10003216:	443b      	add	r3, r7
10003218:	f813 e00e 	ldrb.w	lr, [r3, lr]
1000321c:	6b73      	ldr	r3, [r6, #52]	@ 0x34
1000321e:	6bb7      	ldr	r7, [r6, #56]	@ 0x38
10003220:	4473      	add	r3, lr
10003222:	42bb      	cmp	r3, r7
10003224:	6373      	str	r3, [r6, #52]	@ 0x34
10003226:	f4ff af1a 	bcc.w	1000305e <ym3812_update_one+0x1e2>
1000322a:	f886 c02a 	strb.w	ip, [r6, #42]	@ 0x2a
1000322e:	e716      	b.n	1000305e <ym3812_update_one+0x1e2>
10003230:	f8db 3658 	ldr.w	r3, [fp, #1624]	@ 0x658
10003234:	f8db 265c 	ldr.w	r2, [fp, #1628]	@ 0x65c
10003238:	4413      	add	r3, r2
1000323a:	b29a      	uxth	r2, r3
1000323c:	0c18      	lsrs	r0, r3, #16
1000323e:	f8cb 2658 	str.w	r2, [fp, #1624]	@ 0x658
10003242:	d00c      	beq.n	1000325e <ym3812_update_one+0x3e2>
10003244:	f8db 3654 	ldr.w	r3, [fp, #1620]	@ 0x654
10003248:	4a11      	ldr	r2, [pc, #68]	@ (10003290 <ym3812_update_one+0x414>)
1000324a:	f343 0100 	sbfx	r1, r3, #0, #1
1000324e:	4011      	ands	r1, r2
10003250:	404b      	eors	r3, r1
10003252:	3801      	subs	r0, #1
10003254:	ea4f 0353 	mov.w	r3, r3, lsr #1
10003258:	d1f7      	bne.n	1000324a <ym3812_update_one+0x3ce>
1000325a:	f8cb 3654 	str.w	r3, [fp, #1620]	@ 0x654
1000325e:	9b09      	ldr	r3, [sp, #36]	@ 0x24
10003260:	f109 0901 	add.w	r9, r9, #1
10003264:	454b      	cmp	r3, r9
10003266:	f47f ae3f 	bne.w	10002ee8 <ym3812_update_one+0x6c>
1000326a:	b00b      	add	sp, #44	@ 0x2c
1000326c:	e8bd 8ff0 	ldmia.w	sp!, {r4, r5, r6, r7, r8, r9, sl, fp, pc}
10003270:	f8db 1654 	ldr.w	r1, [fp, #1620]	@ 0x654
10003274:	4658      	mov	r0, fp
10003276:	f001 0101 	and.w	r1, r1, #1
1000327a:	f7ff faad 	bl	100027d8 <OPL_CALC_RH>
1000327e:	4b05      	ldr	r3, [pc, #20]	@ (10003294 <ym3812_update_one+0x418>)
10003280:	4a05      	ldr	r2, [pc, #20]	@ (10003298 <ym3812_update_one+0x41c>)
10003282:	681b      	ldr	r3, [r3, #0]
10003284:	e9c2 3306 	strd	r3, r3, [r2, #24]
10003288:	6213      	str	r3, [r2, #32]
1000328a:	e68d      	b.n	10002fa8 <ym3812_update_one+0x12c>
1000328c:	20000374 	.word	0x20000374
10003290:	00800302 	.word	0x00800302
10003294:	20008adc 	.word	0x20008adc
10003298:	20004260 	.word	0x20004260

1000329c <_ZN17EnvelopeGeneratorC1Ev>:
1000329c:	2300      	movs	r3, #0
1000329e:	2201      	movs	r2, #1
100032a0:	21aa      	movs	r1, #170	@ 0xaa
100032a2:	f240 2c02 	movw	ip, #514	@ 0x202
100032a6:	e9c0 3202 	strd	r3, r2, [r0, #8]
100032aa:	4a0b      	ldr	r2, [pc, #44]	@ (100032d8 <_ZN17EnvelopeGeneratorC1Ev+0x3c>)
100032ac:	e9c0 3307 	strd	r3, r3, [r0, #28]
100032b0:	6812      	ldr	r2, [r2, #0]
100032b2:	e9c0 330c 	strd	r3, r3, [r0, #48]	@ 0x30
100032b6:	e9c0 330e 	strd	r3, r3, [r0, #56]	@ 0x38
100032ba:	f8a0 c044 	strh.w	ip, [r0, #68]	@ 0x44
100032be:	f880 3046 	strb.w	r3, [r0, #70]	@ 0x46
100032c2:	6141      	str	r1, [r0, #20]
100032c4:	6243      	str	r3, [r0, #36]	@ 0x24
100032c6:	6403      	str	r3, [r0, #64]	@ 0x40
100032c8:	6003      	str	r3, [r0, #0]
100032ca:	6103      	str	r3, [r0, #16]
100032cc:	62c3      	str	r3, [r0, #44]	@ 0x2c
100032ce:	6042      	str	r2, [r0, #4]
100032d0:	6283      	str	r3, [r0, #40]	@ 0x28
100032d2:	6183      	str	r3, [r0, #24]
100032d4:	4770      	bx	lr
100032d6:	bf00      	nop
100032d8:	20001160 	.word	0x20001160

100032dc <_ZN17EnvelopeGenerator5resetEv>:
100032dc:	2300      	movs	r3, #0
100032de:	f04f 0c01 	mov.w	ip, #1
100032e2:	f240 2102 	movw	r1, #514	@ 0x202
100032e6:	22aa      	movs	r2, #170	@ 0xaa
100032e8:	b510      	push	{r4, lr}
100032ea:	f8df e030 	ldr.w	lr, [pc, #48]	@ 1000331c <_ZN17EnvelopeGenerator5resetEv+0x40>
100032ee:	e9c0 3307 	strd	r3, r3, [r0, #28]
100032f2:	f8de 4000 	ldr.w	r4, [lr]
100032f6:	e9c0 330c 	strd	r3, r3, [r0, #48]	@ 0x30
100032fa:	e9c0 330e 	strd	r3, r3, [r0, #56]	@ 0x38
100032fe:	e9c0 3c02 	strd	r3, ip, [r0, #8]
10003302:	e9c0 330a 	strd	r3, r3, [r0, #40]	@ 0x28
10003306:	e9c0 2305 	strd	r2, r3, [r0, #20]
1000330a:	6044      	str	r4, [r0, #4]
1000330c:	6243      	str	r3, [r0, #36]	@ 0x24
1000330e:	6403      	str	r3, [r0, #64]	@ 0x40
10003310:	6003      	str	r3, [r0, #0]
10003312:	6103      	str	r3, [r0, #16]
10003314:	f8a0 1044 	strh.w	r1, [r0, #68]	@ 0x44
10003318:	bd10      	pop	{r4, pc}
1000331a:	bf00      	nop
1000331c:	20001160 	.word	0x20001160

10003320 <_ZN17EnvelopeGenerator14set_chip_modelE10chip_model>:
10003320:	f880 1046 	strb.w	r1, [r0, #70]	@ 0x46
10003324:	4770      	bx	lr
10003326:	bf00      	nop

10003328 <_ZN17EnvelopeGenerator16writeCONTROL_REGEj>:
10003328:	6c03      	ldr	r3, [r0, #64]	@ 0x40
1000332a:	f001 0101 	and.w	r1, r1, #1
1000332e:	428b      	cmp	r3, r1
10003330:	d007      	beq.n	10003342 <_ZN17EnvelopeGenerator16writeCONTROL_REGEj+0x1a>
10003332:	2202      	movs	r2, #2
10003334:	f081 0301 	eor.w	r3, r1, #1
10003338:	005b      	lsls	r3, r3, #1
1000333a:	f880 3045 	strb.w	r3, [r0, #69]	@ 0x45
1000333e:	6401      	str	r1, [r0, #64]	@ 0x40
10003340:	6242      	str	r2, [r0, #36]	@ 0x24
10003342:	4770      	bx	lr

10003344 <_ZN17EnvelopeGenerator17writeATTACK_DECAYEj>:
10003344:	f890 3044 	ldrb.w	r3, [r0, #68]	@ 0x44
10003348:	f3c1 1203 	ubfx	r2, r1, #4, #4
1000334c:	f001 010f 	and.w	r1, r1, #15
10003350:	e9c0 210c 	strd	r2, r1, [r0, #48]	@ 0x30
10003354:	b923      	cbnz	r3, 10003360 <_ZN17EnvelopeGenerator17writeATTACK_DECAYEj+0x1c>
10003356:	4b06      	ldr	r3, [pc, #24]	@ (10003370 <_ZN17EnvelopeGenerator17writeATTACK_DECAYEj+0x2c>)
10003358:	f853 3022 	ldr.w	r3, [r3, r2, lsl #2]
1000335c:	6043      	str	r3, [r0, #4]
1000335e:	4770      	bx	lr
10003360:	2b01      	cmp	r3, #1
10003362:	d000      	beq.n	10003366 <_ZN17EnvelopeGenerator17writeATTACK_DECAYEj+0x22>
10003364:	4770      	bx	lr
10003366:	4b02      	ldr	r3, [pc, #8]	@ (10003370 <_ZN17EnvelopeGenerator17writeATTACK_DECAYEj+0x2c>)
10003368:	f853 3021 	ldr.w	r3, [r3, r1, lsl #2]
1000336c:	6043      	str	r3, [r0, #4]
1000336e:	4770      	bx	lr
10003370:	20001160 	.word	0x20001160

10003374 <_ZN17EnvelopeGenerator20writeSUSTAIN_RELEASEEj>:
10003374:	f890 3044 	ldrb.w	r3, [r0, #68]	@ 0x44
10003378:	f3c1 1203 	ubfx	r2, r1, #4, #4
1000337c:	2b02      	cmp	r3, #2
1000337e:	f001 010f 	and.w	r1, r1, #15
10003382:	e9c0 210e 	strd	r2, r1, [r0, #56]	@ 0x38
10003386:	d103      	bne.n	10003390 <_ZN17EnvelopeGenerator20writeSUSTAIN_RELEASEEj+0x1c>
10003388:	4b02      	ldr	r3, [pc, #8]	@ (10003394 <_ZN17EnvelopeGenerator20writeSUSTAIN_RELEASEEj+0x20>)
1000338a:	f853 3021 	ldr.w	r3, [r3, r1, lsl #2]
1000338e:	6043      	str	r3, [r0, #4]
10003390:	4770      	bx	lr
10003392:	bf00      	nop
10003394:	20001160 	.word	0x20001160

10003398 <_ZN17EnvelopeGenerator7readENVEv>:
10003398:	6980      	ldr	r0, [r0, #24]
1000339a:	4770      	bx	lr

1000339c <_ZN14ExternalFilterC1Ev>:
1000339c:	2300      	movs	r3, #0
1000339e:	f644 01ef 	movw	r1, #18671	@ 0x48ef
100033a2:	2269      	movs	r2, #105	@ 0x69
100033a4:	f8df c010 	ldr.w	ip, [pc, #16]	@ 100033b8 <_ZN14ExternalFilterC1Ev+0x1c>
100033a8:	e9c0 3302 	strd	r3, r3, [r0, #8]
100033ac:	f8c0 c014 	str.w	ip, [r0, #20]
100033b0:	6103      	str	r3, [r0, #16]
100033b2:	6041      	str	r1, [r0, #4]
100033b4:	6182      	str	r2, [r0, #24]
100033b6:	4770      	bx	lr
100033b8:	0001999a 	.word	0x0001999a

100033bc <_ZN14ExternalFilter20setCutoffFrequenciesEii>:
100033bc:	f24d 2cd4 	movw	ip, #53972	@ 0xd2d4
100033c0:	2300      	movs	r3, #0
100033c2:	fb0c f101 	mul.w	r1, ip, r1
100033c6:	fb0c f202 	mul.w	r2, ip, r2
100033ca:	1349      	asrs	r1, r1, #13
100033cc:	1352      	asrs	r2, r2, #13
100033ce:	e9c0 2105 	strd	r2, r1, [r0, #20]
100033d2:	e9c0 3303 	strd	r3, r3, [r0, #12]
100033d6:	6083      	str	r3, [r0, #8]
100033d8:	4770      	bx	lr
100033da:	bf00      	nop

100033dc <_ZN14ExternalFilter13enable_filterEb>:
100033dc:	7001      	strb	r1, [r0, #0]
100033de:	4770      	bx	lr

100033e0 <_ZN14ExternalFilter14set_chip_modelE10chip_model>:
100033e0:	2900      	cmp	r1, #0
100033e2:	f644 03ef 	movw	r3, #18671	@ 0x48ef
100033e6:	bf18      	it	ne
100033e8:	2300      	movne	r3, #0
100033ea:	6043      	str	r3, [r0, #4]
100033ec:	4770      	bx	lr
100033ee:	bf00      	nop

100033f0 <_ZN14ExternalFilter5resetEv>:
100033f0:	2300      	movs	r3, #0
100033f2:	e9c0 3302 	strd	r3, r3, [r0, #8]
100033f6:	6103      	str	r3, [r0, #16]
100033f8:	4770      	bx	lr
100033fa:	bf00      	nop

100033fc <_ZN6FilterC1Ev>:
100033fc:	2300      	movs	r3, #0
100033fe:	e92d 4ff0 	stmdb	sp!, {r4, r5, r6, r7, r8, r9, sl, fp, lr}
10003402:	4ac4      	ldr	r2, [pc, #784]	@ (10003714 <_ZN6FilterC1Ev+0x318>)
10003404:	b08f      	sub	sp, #60	@ 0x3c
10003406:	7812      	ldrb	r2, [r2, #0]
10003408:	4605      	mov	r5, r0
1000340a:	e9c0 3301 	strd	r3, r3, [r0, #4]
1000340e:	e9c0 3303 	strd	r3, r3, [r0, #12]
10003412:	e9c0 3305 	strd	r3, r3, [r0, #20]
10003416:	e9c0 3308 	strd	r3, r3, [r0, #32]
1000341a:	e9c0 330a 	strd	r3, r3, [r0, #40]	@ 0x28
1000341e:	b32a      	cbz	r2, 1000346c <_ZN6FilterC1Ev+0x70>
10003420:	4bbd      	ldr	r3, [pc, #756]	@ (10003718 <_ZN6FilterC1Ev+0x31c>)
10003422:	9305      	str	r3, [sp, #20]
10003424:	9c05      	ldr	r4, [sp, #20]
10003426:	4abd      	ldr	r2, [pc, #756]	@ (1000371c <_ZN6FilterC1Ev+0x320>)
10003428:	6823      	ldr	r3, [r4, #0]
1000342a:	f246 61f1 	movw	r1, #26353	@ 0x66f1
1000342e:	fb83 3202 	smull	r3, r2, r3, r2
10003432:	0c1b      	lsrs	r3, r3, #16
10003434:	ea43 4302 	orr.w	r3, r3, r2, lsl #16
10003438:	4ab9      	ldr	r2, [pc, #740]	@ (10003720 <_ZN6FilterC1Ev+0x324>)
1000343a:	2000      	movs	r0, #0
1000343c:	429a      	cmp	r2, r3
1000343e:	bfa8      	it	ge
10003440:	461a      	movge	r2, r3
10003442:	428b      	cmp	r3, r1
10003444:	632b      	str	r3, [r5, #48]	@ 0x30
10003446:	7028      	strb	r0, [r5, #0]
10003448:	bfa8      	it	ge
1000344a:	460b      	movge	r3, r1
1000344c:	4628      	mov	r0, r5
1000344e:	f44f 61b5 	mov.w	r1, #1448	@ 0x5a8
10003452:	636a      	str	r2, [r5, #52]	@ 0x34
10003454:	221f      	movs	r2, #31
10003456:	646c      	str	r4, [r5, #68]	@ 0x44
10003458:	4cb2      	ldr	r4, [pc, #712]	@ (10003724 <_ZN6FilterC1Ev+0x328>)
1000345a:	e9c5 310e 	strd	r3, r1, [r5, #56]	@ 0x38
1000345e:	61ec      	str	r4, [r5, #28]
10003460:	4cb1      	ldr	r4, [pc, #708]	@ (10003728 <_ZN6FilterC1Ev+0x32c>)
10003462:	64ea      	str	r2, [r5, #76]	@ 0x4c
10003464:	64ac      	str	r4, [r5, #72]	@ 0x48
10003466:	b00f      	add	sp, #60	@ 0x3c
10003468:	e8bd 8ff0 	ldmia.w	sp!, {r4, r5, r6, r7, r8, r9, sl, fp, pc}
1000346c:	4baf      	ldr	r3, [pc, #700]	@ (1000372c <_ZN6FilterC1Ev+0x330>)
1000346e:	900d      	str	r0, [sp, #52]	@ 0x34
10003470:	930c      	str	r3, [sp, #48]	@ 0x30
10003472:	4ba9      	ldr	r3, [pc, #676]	@ (10003718 <_ZN6FilterC1Ev+0x31c>)
10003474:	9305      	str	r3, [sp, #20]
10003476:	9b0c      	ldr	r3, [sp, #48]	@ 0x30
10003478:	f853 4c18 	ldr.w	r4, [r3, #-24]
1000347c:	f853 5c10 	ldr.w	r5, [r3, #-16]
10003480:	42ac      	cmp	r4, r5
10003482:	f000 819b 	beq.w	100037bc <_ZN6FilterC1Ev+0x3c0>
10003486:	f853 0c0c 	ldr.w	r0, [r3, #-12]
1000348a:	f853 9c20 	ldr.w	r9, [r3, #-32]
1000348e:	f853 8c08 	ldr.w	r8, [r3, #-8]
10003492:	f003 fd0f 	bl	10006eb4 <__wrap___aeabi_i2d>
10003496:	9b0c      	ldr	r3, [sp, #48]	@ 0x30
10003498:	4606      	mov	r6, r0
1000349a:	f853 0c14 	ldr.w	r0, [r3, #-20]
1000349e:	460f      	mov	r7, r1
100034a0:	f003 fd08 	bl	10006eb4 <__wrap___aeabi_i2d>
100034a4:	4602      	mov	r2, r0
100034a6:	460b      	mov	r3, r1
100034a8:	4630      	mov	r0, r6
100034aa:	4639      	mov	r1, r7
100034ac:	e9cd 2308 	strd	r2, r3, [sp, #32]
100034b0:	f003 fc6a 	bl	10006d88 <__wrap___aeabi_dsub>
100034b4:	e9cd 010a 	strd	r0, r1, [sp, #40]	@ 0x28
100034b8:	4628      	mov	r0, r5
100034ba:	f003 fcfb 	bl	10006eb4 <__wrap___aeabi_i2d>
100034be:	e9cd 0102 	strd	r0, r1, [sp, #8]
100034c2:	4620      	mov	r0, r4
100034c4:	f003 fcf6 	bl	10006eb4 <__wrap___aeabi_i2d>
100034c8:	4682      	mov	sl, r0
100034ca:	468b      	mov	fp, r1
100034cc:	e9dd 0102 	ldrd	r0, r1, [sp, #8]
100034d0:	4652      	mov	r2, sl
100034d2:	465b      	mov	r3, fp
100034d4:	f003 fc58 	bl	10006d88 <__wrap___aeabi_dsub>
100034d8:	454c      	cmp	r4, r9
100034da:	e9cd 0100 	strd	r0, r1, [sp]
100034de:	f000 8352 	beq.w	10003b86 <_ZN6FilterC1Ev+0x78a>
100034e2:	9b0c      	ldr	r3, [sp, #48]	@ 0x30
100034e4:	f853 0c1c 	ldr.w	r0, [r3, #-28]
100034e8:	f003 fce4 	bl	10006eb4 <__wrap___aeabi_i2d>
100034ec:	4602      	mov	r2, r0
100034ee:	460b      	mov	r3, r1
100034f0:	4630      	mov	r0, r6
100034f2:	4639      	mov	r1, r7
100034f4:	f003 fc48 	bl	10006d88 <__wrap___aeabi_dsub>
100034f8:	4606      	mov	r6, r0
100034fa:	4648      	mov	r0, r9
100034fc:	460f      	mov	r7, r1
100034fe:	f003 fcd9 	bl	10006eb4 <__wrap___aeabi_i2d>
10003502:	4602      	mov	r2, r0
10003504:	460b      	mov	r3, r1
10003506:	e9dd 0102 	ldrd	r0, r1, [sp, #8]
1000350a:	f003 fc3d 	bl	10006d88 <__wrap___aeabi_dsub>
1000350e:	4602      	mov	r2, r0
10003510:	460b      	mov	r3, r1
10003512:	4630      	mov	r0, r6
10003514:	4639      	mov	r1, r7
10003516:	f003 fc71 	bl	10006dfc <__wrap___aeabi_ddiv>
1000351a:	4545      	cmp	r5, r8
1000351c:	e9cd 0106 	strd	r0, r1, [sp, #24]
10003520:	f000 8377 	beq.w	10003c12 <_ZN6FilterC1Ev+0x816>
10003524:	9b0c      	ldr	r3, [sp, #48]	@ 0x30
10003526:	f853 0c04 	ldr.w	r0, [r3, #-4]
1000352a:	f003 fcc3 	bl	10006eb4 <__wrap___aeabi_i2d>
1000352e:	e9dd 2308 	ldrd	r2, r3, [sp, #32]
10003532:	f003 fc29 	bl	10006d88 <__wrap___aeabi_dsub>
10003536:	4606      	mov	r6, r0
10003538:	4640      	mov	r0, r8
1000353a:	460f      	mov	r7, r1
1000353c:	f003 fcba 	bl	10006eb4 <__wrap___aeabi_i2d>
10003540:	4652      	mov	r2, sl
10003542:	465b      	mov	r3, fp
10003544:	f003 fc20 	bl	10006d88 <__wrap___aeabi_dsub>
10003548:	4602      	mov	r2, r0
1000354a:	460b      	mov	r3, r1
1000354c:	4630      	mov	r0, r6
1000354e:	4639      	mov	r1, r7
10003550:	f003 fc54 	bl	10006dfc <__wrap___aeabi_ddiv>
10003554:	4606      	mov	r6, r0
10003556:	460f      	mov	r7, r1
10003558:	42ac      	cmp	r4, r5
1000355a:	f300 812f 	bgt.w	100037bc <_ZN6FilterC1Ev+0x3c0>
1000355e:	e9dd 0106 	ldrd	r0, r1, [sp, #24]
10003562:	4632      	mov	r2, r6
10003564:	463b      	mov	r3, r7
10003566:	f003 fbfb 	bl	10006d60 <__wrap___aeabi_dadd>
1000356a:	e9dd 230a 	ldrd	r2, r3, [sp, #40]	@ 0x28
1000356e:	4604      	mov	r4, r0
10003570:	460d      	mov	r5, r1
10003572:	4610      	mov	r0, r2
10003574:	4619      	mov	r1, r3
10003576:	f003 fbf3 	bl	10006d60 <__wrap___aeabi_dadd>
1000357a:	e9dd 8900 	ldrd	r8, r9, [sp]
1000357e:	4642      	mov	r2, r8
10003580:	464b      	mov	r3, r9
10003582:	f003 fc3b 	bl	10006dfc <__wrap___aeabi_ddiv>
10003586:	4602      	mov	r2, r0
10003588:	460b      	mov	r3, r1
1000358a:	4620      	mov	r0, r4
1000358c:	4629      	mov	r1, r5
1000358e:	f003 fbfb 	bl	10006d88 <__wrap___aeabi_dsub>
10003592:	4642      	mov	r2, r8
10003594:	4604      	mov	r4, r0
10003596:	460d      	mov	r5, r1
10003598:	464b      	mov	r3, r9
1000359a:	4640      	mov	r0, r8
1000359c:	4649      	mov	r1, r9
1000359e:	f003 fc07 	bl	10006db0 <__wrap___aeabi_dmul>
100035a2:	4602      	mov	r2, r0
100035a4:	460b      	mov	r3, r1
100035a6:	4620      	mov	r0, r4
100035a8:	4629      	mov	r1, r5
100035aa:	f003 fc27 	bl	10006dfc <__wrap___aeabi_ddiv>
100035ae:	e9dd 2306 	ldrd	r2, r3, [sp, #24]
100035b2:	4680      	mov	r8, r0
100035b4:	4689      	mov	r9, r1
100035b6:	4630      	mov	r0, r6
100035b8:	4639      	mov	r1, r7
100035ba:	f003 fbe5 	bl	10006d88 <__wrap___aeabi_dsub>
100035be:	e9dd 2300 	ldrd	r2, r3, [sp]
100035c2:	f003 fc1b 	bl	10006dfc <__wrap___aeabi_ddiv>
100035c6:	4652      	mov	r2, sl
100035c8:	4604      	mov	r4, r0
100035ca:	460d      	mov	r5, r1
100035cc:	e9dd 0102 	ldrd	r0, r1, [sp, #8]
100035d0:	465b      	mov	r3, fp
100035d2:	f003 fbc5 	bl	10006d60 <__wrap___aeabi_dadd>
100035d6:	2200      	movs	r2, #0
100035d8:	4b55      	ldr	r3, [pc, #340]	@ (10003730 <_ZN6FilterC1Ev+0x334>)
100035da:	f003 fbe9 	bl	10006db0 <__wrap___aeabi_dmul>
100035de:	4642      	mov	r2, r8
100035e0:	464b      	mov	r3, r9
100035e2:	f003 fbe5 	bl	10006db0 <__wrap___aeabi_dmul>
100035e6:	4602      	mov	r2, r0
100035e8:	460b      	mov	r3, r1
100035ea:	4620      	mov	r0, r4
100035ec:	4629      	mov	r1, r5
100035ee:	f003 fbcb 	bl	10006d88 <__wrap___aeabi_dsub>
100035f2:	2200      	movs	r2, #0
100035f4:	4b4f      	ldr	r3, [pc, #316]	@ (10003734 <_ZN6FilterC1Ev+0x338>)
100035f6:	f003 fbdb 	bl	10006db0 <__wrap___aeabi_dmul>
100035fa:	4602      	mov	r2, r0
100035fc:	460b      	mov	r3, r1
100035fe:	4604      	mov	r4, r0
10003600:	460d      	mov	r5, r1
10003602:	f003 fbad 	bl	10006d60 <__wrap___aeabi_dadd>
10003606:	4606      	mov	r6, r0
10003608:	460f      	mov	r7, r1
1000360a:	2200      	movs	r2, #0
1000360c:	4b48      	ldr	r3, [pc, #288]	@ (10003730 <_ZN6FilterC1Ev+0x334>)
1000360e:	4650      	mov	r0, sl
10003610:	4659      	mov	r1, fp
10003612:	f003 fbcd 	bl	10006db0 <__wrap___aeabi_dmul>
10003616:	4642      	mov	r2, r8
10003618:	464b      	mov	r3, r9
1000361a:	f003 fbc9 	bl	10006db0 <__wrap___aeabi_dmul>
1000361e:	4632      	mov	r2, r6
10003620:	463b      	mov	r3, r7
10003622:	f003 fb9d 	bl	10006d60 <__wrap___aeabi_dadd>
10003626:	4652      	mov	r2, sl
10003628:	465b      	mov	r3, fp
1000362a:	f003 fbc1 	bl	10006db0 <__wrap___aeabi_dmul>
1000362e:	4602      	mov	r2, r0
10003630:	460b      	mov	r3, r1
10003632:	e9dd 0106 	ldrd	r0, r1, [sp, #24]
10003636:	f003 fba7 	bl	10006d88 <__wrap___aeabi_dsub>
1000363a:	4652      	mov	r2, sl
1000363c:	e9cd 0106 	strd	r0, r1, [sp, #24]
10003640:	465b      	mov	r3, fp
10003642:	4640      	mov	r0, r8
10003644:	4649      	mov	r1, r9
10003646:	f003 fbb3 	bl	10006db0 <__wrap___aeabi_dmul>
1000364a:	4622      	mov	r2, r4
1000364c:	462b      	mov	r3, r5
1000364e:	e9cd 4500 	strd	r4, r5, [sp]
10003652:	f003 fb85 	bl	10006d60 <__wrap___aeabi_dadd>
10003656:	4652      	mov	r2, sl
10003658:	465b      	mov	r3, fp
1000365a:	f003 fba9 	bl	10006db0 <__wrap___aeabi_dmul>
1000365e:	e9dd 2306 	ldrd	r2, r3, [sp, #24]
10003662:	f003 fb7d 	bl	10006d60 <__wrap___aeabi_dadd>
10003666:	4652      	mov	r2, sl
10003668:	465b      	mov	r3, fp
1000366a:	f003 fba1 	bl	10006db0 <__wrap___aeabi_dmul>
1000366e:	4604      	mov	r4, r0
10003670:	460d      	mov	r5, r1
10003672:	4602      	mov	r2, r0
10003674:	460b      	mov	r3, r1
10003676:	e9dd 0108 	ldrd	r0, r1, [sp, #32]
1000367a:	f003 fb85 	bl	10006d88 <__wrap___aeabi_dsub>
1000367e:	4622      	mov	r2, r4
10003680:	462b      	mov	r3, r5
10003682:	f003 fb6d 	bl	10006d60 <__wrap___aeabi_dadd>
10003686:	2200      	movs	r2, #0
10003688:	4b2b      	ldr	r3, [pc, #172]	@ (10003738 <_ZN6FilterC1Ev+0x33c>)
1000368a:	4604      	mov	r4, r0
1000368c:	460d      	mov	r5, r1
1000368e:	4650      	mov	r0, sl
10003690:	4659      	mov	r1, fp
10003692:	f003 fb65 	bl	10006d60 <__wrap___aeabi_dadd>
10003696:	2200      	movs	r2, #0
10003698:	e9cd 0108 	strd	r0, r1, [sp, #32]
1000369c:	4b24      	ldr	r3, [pc, #144]	@ (10003730 <_ZN6FilterC1Ev+0x334>)
1000369e:	4640      	mov	r0, r8
100036a0:	4649      	mov	r1, r9
100036a2:	f003 fb85 	bl	10006db0 <__wrap___aeabi_dmul>
100036a6:	e9dd 2308 	ldrd	r2, r3, [sp, #32]
100036aa:	f003 fb81 	bl	10006db0 <__wrap___aeabi_dmul>
100036ae:	4632      	mov	r2, r6
100036b0:	463b      	mov	r3, r7
100036b2:	f003 fb55 	bl	10006d60 <__wrap___aeabi_dadd>
100036b6:	4652      	mov	r2, sl
100036b8:	465b      	mov	r3, fp
100036ba:	f003 fb79 	bl	10006db0 <__wrap___aeabi_dmul>
100036be:	e9dd 2300 	ldrd	r2, r3, [sp]
100036c2:	e9cd 010a 	strd	r0, r1, [sp, #40]	@ 0x28
100036c6:	4640      	mov	r0, r8
100036c8:	4649      	mov	r1, r9
100036ca:	f003 fb49 	bl	10006d60 <__wrap___aeabi_dadd>
100036ce:	e9dd 2306 	ldrd	r2, r3, [sp, #24]
100036d2:	f003 fb45 	bl	10006d60 <__wrap___aeabi_dadd>
100036d6:	4602      	mov	r2, r0
100036d8:	460b      	mov	r3, r1
100036da:	e9dd 010a 	ldrd	r0, r1, [sp, #40]	@ 0x28
100036de:	f003 fb3f 	bl	10006d60 <__wrap___aeabi_dadd>
100036e2:	4602      	mov	r2, r0
100036e4:	460b      	mov	r3, r1
100036e6:	4640      	mov	r0, r8
100036e8:	4649      	mov	r1, r9
100036ea:	4690      	mov	r8, r2
100036ec:	4699      	mov	r9, r3
100036ee:	2200      	movs	r2, #0
100036f0:	4b12      	ldr	r3, [pc, #72]	@ (1000373c <_ZN6FilterC1Ev+0x340>)
100036f2:	f003 fb5d 	bl	10006db0 <__wrap___aeabi_dmul>
100036f6:	4602      	mov	r2, r0
100036f8:	460b      	mov	r3, r1
100036fa:	e9dd 0108 	ldrd	r0, r1, [sp, #32]
100036fe:	e9cd 2306 	strd	r2, r3, [sp, #24]
10003702:	f003 fb55 	bl	10006db0 <__wrap___aeabi_dmul>
10003706:	4632      	mov	r2, r6
10003708:	463b      	mov	r3, r7
1000370a:	f003 fb29 	bl	10006d60 <__wrap___aeabi_dadd>
1000370e:	4606      	mov	r6, r0
10003710:	460f      	mov	r7, r1
10003712:	e040      	b.n	10003796 <_ZN6FilterC1Ev+0x39a>
10003714:	2001f3c2 	.word	0x2001f3c2
10003718:	200042c0 	.word	0x200042c0
1000371c:	000696a1 	.word	0x000696a1
10003720:	00019bc6 	.word	0x00019bc6
10003724:	fffffe3a 	.word	0xfffffe3a
10003728:	20001238 	.word	0x20001238
1000372c:	20001258 	.word	0x20001258
10003730:	40080000 	.word	0x40080000
10003734:	3fe00000 	.word	0x3fe00000
10003738:	3ff00000 	.word	0x3ff00000
1000373c:	40180000 	.word	0x40180000
10003740:	2000      	movs	r0, #0
10003742:	2100      	movs	r1, #0
10003744:	f003 fbda 	bl	10006efc <__wrap___aeabi_d2iz>
10003748:	9b00      	ldr	r3, [sp, #0]
1000374a:	4642      	mov	r2, r8
1000374c:	6018      	str	r0, [r3, #0]
1000374e:	4629      	mov	r1, r5
10003750:	464b      	mov	r3, r9
10003752:	4620      	mov	r0, r4
10003754:	f003 fb04 	bl	10006d60 <__wrap___aeabi_dadd>
10003758:	4632      	mov	r2, r6
1000375a:	463b      	mov	r3, r7
1000375c:	4604      	mov	r4, r0
1000375e:	460d      	mov	r5, r1
10003760:	4640      	mov	r0, r8
10003762:	4649      	mov	r1, r9
10003764:	f003 fafc 	bl	10006d60 <__wrap___aeabi_dadd>
10003768:	e9dd 2306 	ldrd	r2, r3, [sp, #24]
1000376c:	4680      	mov	r8, r0
1000376e:	4689      	mov	r9, r1
10003770:	4630      	mov	r0, r6
10003772:	4639      	mov	r1, r7
10003774:	f003 faf4 	bl	10006d60 <__wrap___aeabi_dadd>
10003778:	2200      	movs	r2, #0
1000377a:	4bbc      	ldr	r3, [pc, #752]	@ (10003a6c <_ZN6FilterC1Ev+0x670>)
1000377c:	4606      	mov	r6, r0
1000377e:	460f      	mov	r7, r1
10003780:	4650      	mov	r0, sl
10003782:	4659      	mov	r1, fp
10003784:	f003 faec 	bl	10006d60 <__wrap___aeabi_dadd>
10003788:	e9dd 2302 	ldrd	r2, r3, [sp, #8]
1000378c:	4682      	mov	sl, r0
1000378e:	468b      	mov	fp, r1
10003790:	f003 fbfe 	bl	10006f90 <__wrap___aeabi_dcmple>
10003794:	b190      	cbz	r0, 100037bc <_ZN6FilterC1Ev+0x3c0>
10003796:	4659      	mov	r1, fp
10003798:	4650      	mov	r0, sl
1000379a:	f003 fbaf 	bl	10006efc <__wrap___aeabi_d2iz>
1000379e:	9b05      	ldr	r3, [sp, #20]
100037a0:	2200      	movs	r2, #0
100037a2:	eb03 0380 	add.w	r3, r3, r0, lsl #2
100037a6:	9300      	str	r3, [sp, #0]
100037a8:	4620      	mov	r0, r4
100037aa:	2300      	movs	r3, #0
100037ac:	4629      	mov	r1, r5
100037ae:	f003 fbdb 	bl	10006f68 <__wrap___aeabi_dcmplt>
100037b2:	2800      	cmp	r0, #0
100037b4:	d1c4      	bne.n	10003740 <_ZN6FilterC1Ev+0x344>
100037b6:	4620      	mov	r0, r4
100037b8:	4629      	mov	r1, r5
100037ba:	e7c3      	b.n	10003744 <_ZN6FilterC1Ev+0x348>
100037bc:	9b0c      	ldr	r3, [sp, #48]	@ 0x30
100037be:	4aac      	ldr	r2, [pc, #688]	@ (10003a70 <_ZN6FilterC1Ev+0x674>)
100037c0:	3308      	adds	r3, #8
100037c2:	429a      	cmp	r2, r3
100037c4:	930c      	str	r3, [sp, #48]	@ 0x30
100037c6:	f47f ae56 	bne.w	10003476 <_ZN6FilterC1Ev+0x7a>
100037ca:	4baa      	ldr	r3, [pc, #680]	@ (10003a74 <_ZN6FilterC1Ev+0x678>)
100037cc:	930c      	str	r3, [sp, #48]	@ 0x30
100037ce:	9b0c      	ldr	r3, [sp, #48]	@ 0x30
100037d0:	f853 4c18 	ldr.w	r4, [r3, #-24]
100037d4:	f853 5c10 	ldr.w	r5, [r3, #-16]
100037d8:	42ac      	cmp	r4, r5
100037da:	f000 8190 	beq.w	10003afe <_ZN6FilterC1Ev+0x702>
100037de:	f853 0c0c 	ldr.w	r0, [r3, #-12]
100037e2:	f853 9c20 	ldr.w	r9, [r3, #-32]
100037e6:	f853 8c08 	ldr.w	r8, [r3, #-8]
100037ea:	f003 fb63 	bl	10006eb4 <__wrap___aeabi_i2d>
100037ee:	9b0c      	ldr	r3, [sp, #48]	@ 0x30
100037f0:	4606      	mov	r6, r0
100037f2:	f853 0c14 	ldr.w	r0, [r3, #-20]
100037f6:	460f      	mov	r7, r1
100037f8:	f003 fb5c 	bl	10006eb4 <__wrap___aeabi_i2d>
100037fc:	4602      	mov	r2, r0
100037fe:	460b      	mov	r3, r1
10003800:	4630      	mov	r0, r6
10003802:	4639      	mov	r1, r7
10003804:	e9cd 2308 	strd	r2, r3, [sp, #32]
10003808:	f003 fabe 	bl	10006d88 <__wrap___aeabi_dsub>
1000380c:	e9cd 010a 	strd	r0, r1, [sp, #40]	@ 0x28
10003810:	4628      	mov	r0, r5
10003812:	f003 fb4f 	bl	10006eb4 <__wrap___aeabi_i2d>
10003816:	e9cd 0102 	strd	r0, r1, [sp, #8]
1000381a:	4620      	mov	r0, r4
1000381c:	f003 fb4a 	bl	10006eb4 <__wrap___aeabi_i2d>
10003820:	4682      	mov	sl, r0
10003822:	468b      	mov	fp, r1
10003824:	e9dd 0102 	ldrd	r0, r1, [sp, #8]
10003828:	4652      	mov	r2, sl
1000382a:	465b      	mov	r3, fp
1000382c:	f003 faac 	bl	10006d88 <__wrap___aeabi_dsub>
10003830:	454c      	cmp	r4, r9
10003832:	e9cd 0100 	strd	r0, r1, [sp]
10003836:	f000 8174 	beq.w	10003b22 <_ZN6FilterC1Ev+0x726>
1000383a:	9b0c      	ldr	r3, [sp, #48]	@ 0x30
1000383c:	f853 0c1c 	ldr.w	r0, [r3, #-28]
10003840:	f003 fb38 	bl	10006eb4 <__wrap___aeabi_i2d>
10003844:	4602      	mov	r2, r0
10003846:	460b      	mov	r3, r1
10003848:	4630      	mov	r0, r6
1000384a:	4639      	mov	r1, r7
1000384c:	f003 fa9c 	bl	10006d88 <__wrap___aeabi_dsub>
10003850:	4606      	mov	r6, r0
10003852:	4648      	mov	r0, r9
10003854:	460f      	mov	r7, r1
10003856:	f003 fb2d 	bl	10006eb4 <__wrap___aeabi_i2d>
1000385a:	4602      	mov	r2, r0
1000385c:	460b      	mov	r3, r1
1000385e:	e9dd 0102 	ldrd	r0, r1, [sp, #8]
10003862:	f003 fa91 	bl	10006d88 <__wrap___aeabi_dsub>
10003866:	4602      	mov	r2, r0
10003868:	460b      	mov	r3, r1
1000386a:	4630      	mov	r0, r6
1000386c:	4639      	mov	r1, r7
1000386e:	f003 fac5 	bl	10006dfc <__wrap___aeabi_ddiv>
10003872:	4545      	cmp	r5, r8
10003874:	e9cd 0106 	strd	r0, r1, [sp, #24]
10003878:	f000 81b6 	beq.w	10003be8 <_ZN6FilterC1Ev+0x7ec>
1000387c:	9b0c      	ldr	r3, [sp, #48]	@ 0x30
1000387e:	f853 0c04 	ldr.w	r0, [r3, #-4]
10003882:	f003 fb17 	bl	10006eb4 <__wrap___aeabi_i2d>
10003886:	e9dd 2308 	ldrd	r2, r3, [sp, #32]
1000388a:	f003 fa7d 	bl	10006d88 <__wrap___aeabi_dsub>
1000388e:	4606      	mov	r6, r0
10003890:	4640      	mov	r0, r8
10003892:	460f      	mov	r7, r1
10003894:	f003 fb0e 	bl	10006eb4 <__wrap___aeabi_i2d>
10003898:	4652      	mov	r2, sl
1000389a:	465b      	mov	r3, fp
1000389c:	f003 fa74 	bl	10006d88 <__wrap___aeabi_dsub>
100038a0:	4602      	mov	r2, r0
100038a2:	460b      	mov	r3, r1
100038a4:	4630      	mov	r0, r6
100038a6:	4639      	mov	r1, r7
100038a8:	f003 faa8 	bl	10006dfc <__wrap___aeabi_ddiv>
100038ac:	4606      	mov	r6, r0
100038ae:	460f      	mov	r7, r1
100038b0:	42ac      	cmp	r4, r5
100038b2:	f300 8124 	bgt.w	10003afe <_ZN6FilterC1Ev+0x702>
100038b6:	e9dd 0106 	ldrd	r0, r1, [sp, #24]
100038ba:	4632      	mov	r2, r6
100038bc:	463b      	mov	r3, r7
100038be:	f003 fa4f 	bl	10006d60 <__wrap___aeabi_dadd>
100038c2:	e9dd 230a 	ldrd	r2, r3, [sp, #40]	@ 0x28
100038c6:	4604      	mov	r4, r0
100038c8:	460d      	mov	r5, r1
100038ca:	4610      	mov	r0, r2
100038cc:	4619      	mov	r1, r3
100038ce:	f003 fa47 	bl	10006d60 <__wrap___aeabi_dadd>
100038d2:	e9dd 8900 	ldrd	r8, r9, [sp]
100038d6:	4642      	mov	r2, r8
100038d8:	464b      	mov	r3, r9
100038da:	f003 fa8f 	bl	10006dfc <__wrap___aeabi_ddiv>
100038de:	4602      	mov	r2, r0
100038e0:	460b      	mov	r3, r1
100038e2:	4620      	mov	r0, r4
100038e4:	4629      	mov	r1, r5
100038e6:	f003 fa4f 	bl	10006d88 <__wrap___aeabi_dsub>
100038ea:	4642      	mov	r2, r8
100038ec:	4604      	mov	r4, r0
100038ee:	460d      	mov	r5, r1
100038f0:	464b      	mov	r3, r9
100038f2:	4640      	mov	r0, r8
100038f4:	4649      	mov	r1, r9
100038f6:	f003 fa5b 	bl	10006db0 <__wrap___aeabi_dmul>
100038fa:	4602      	mov	r2, r0
100038fc:	460b      	mov	r3, r1
100038fe:	4620      	mov	r0, r4
10003900:	4629      	mov	r1, r5
10003902:	f003 fa7b 	bl	10006dfc <__wrap___aeabi_ddiv>
10003906:	e9dd 2306 	ldrd	r2, r3, [sp, #24]
1000390a:	4680      	mov	r8, r0
1000390c:	4689      	mov	r9, r1
1000390e:	4630      	mov	r0, r6
10003910:	4639      	mov	r1, r7
10003912:	f003 fa39 	bl	10006d88 <__wrap___aeabi_dsub>
10003916:	e9dd 2300 	ldrd	r2, r3, [sp]
1000391a:	f003 fa6f 	bl	10006dfc <__wrap___aeabi_ddiv>
1000391e:	4652      	mov	r2, sl
10003920:	4604      	mov	r4, r0
10003922:	460d      	mov	r5, r1
10003924:	e9dd 0102 	ldrd	r0, r1, [sp, #8]
10003928:	465b      	mov	r3, fp
1000392a:	f003 fa19 	bl	10006d60 <__wrap___aeabi_dadd>
1000392e:	2200      	movs	r2, #0
10003930:	4b51      	ldr	r3, [pc, #324]	@ (10003a78 <_ZN6FilterC1Ev+0x67c>)
10003932:	f003 fa3d 	bl	10006db0 <__wrap___aeabi_dmul>
10003936:	4642      	mov	r2, r8
10003938:	464b      	mov	r3, r9
1000393a:	f003 fa39 	bl	10006db0 <__wrap___aeabi_dmul>
1000393e:	4602      	mov	r2, r0
10003940:	460b      	mov	r3, r1
10003942:	4620      	mov	r0, r4
10003944:	4629      	mov	r1, r5
10003946:	f003 fa1f 	bl	10006d88 <__wrap___aeabi_dsub>
1000394a:	2200      	movs	r2, #0
1000394c:	4b4b      	ldr	r3, [pc, #300]	@ (10003a7c <_ZN6FilterC1Ev+0x680>)
1000394e:	f003 fa2f 	bl	10006db0 <__wrap___aeabi_dmul>
10003952:	4602      	mov	r2, r0
10003954:	460b      	mov	r3, r1
10003956:	4604      	mov	r4, r0
10003958:	460d      	mov	r5, r1
1000395a:	f003 fa01 	bl	10006d60 <__wrap___aeabi_dadd>
1000395e:	4606      	mov	r6, r0
10003960:	460f      	mov	r7, r1
10003962:	2200      	movs	r2, #0
10003964:	4b44      	ldr	r3, [pc, #272]	@ (10003a78 <_ZN6FilterC1Ev+0x67c>)
10003966:	4650      	mov	r0, sl
10003968:	4659      	mov	r1, fp
1000396a:	f003 fa21 	bl	10006db0 <__wrap___aeabi_dmul>
1000396e:	4642      	mov	r2, r8
10003970:	464b      	mov	r3, r9
10003972:	f003 fa1d 	bl	10006db0 <__wrap___aeabi_dmul>
10003976:	4632      	mov	r2, r6
10003978:	463b      	mov	r3, r7
1000397a:	f003 f9f1 	bl	10006d60 <__wrap___aeabi_dadd>
1000397e:	4652      	mov	r2, sl
10003980:	465b      	mov	r3, fp
10003982:	f003 fa15 	bl	10006db0 <__wrap___aeabi_dmul>
10003986:	4602      	mov	r2, r0
10003988:	460b      	mov	r3, r1
1000398a:	e9dd 0106 	ldrd	r0, r1, [sp, #24]
1000398e:	f003 f9fb 	bl	10006d88 <__wrap___aeabi_dsub>
10003992:	4652      	mov	r2, sl
10003994:	e9cd 0106 	strd	r0, r1, [sp, #24]
10003998:	465b      	mov	r3, fp
1000399a:	4640      	mov	r0, r8
1000399c:	4649      	mov	r1, r9
1000399e:	f003 fa07 	bl	10006db0 <__wrap___aeabi_dmul>
100039a2:	4622      	mov	r2, r4
100039a4:	462b      	mov	r3, r5
100039a6:	e9cd 4500 	strd	r4, r5, [sp]
100039aa:	f003 f9d9 	bl	10006d60 <__wrap___aeabi_dadd>
100039ae:	4652      	mov	r2, sl
100039b0:	465b      	mov	r3, fp
100039b2:	f003 f9fd 	bl	10006db0 <__wrap___aeabi_dmul>
100039b6:	e9dd 2306 	ldrd	r2, r3, [sp, #24]
100039ba:	f003 f9d1 	bl	10006d60 <__wrap___aeabi_dadd>
100039be:	4652      	mov	r2, sl
100039c0:	465b      	mov	r3, fp
100039c2:	f003 f9f5 	bl	10006db0 <__wrap___aeabi_dmul>
100039c6:	4604      	mov	r4, r0
100039c8:	460d      	mov	r5, r1
100039ca:	4602      	mov	r2, r0
100039cc:	460b      	mov	r3, r1
100039ce:	e9dd 0108 	ldrd	r0, r1, [sp, #32]
100039d2:	f003 f9d9 	bl	10006d88 <__wrap___aeabi_dsub>
100039d6:	4622      	mov	r2, r4
100039d8:	462b      	mov	r3, r5
100039da:	f003 f9c1 	bl	10006d60 <__wrap___aeabi_dadd>
100039de:	2200      	movs	r2, #0
100039e0:	4b22      	ldr	r3, [pc, #136]	@ (10003a6c <_ZN6FilterC1Ev+0x670>)
100039e2:	4604      	mov	r4, r0
100039e4:	460d      	mov	r5, r1
100039e6:	4650      	mov	r0, sl
100039e8:	4659      	mov	r1, fp
100039ea:	f003 f9b9 	bl	10006d60 <__wrap___aeabi_dadd>
100039ee:	2200      	movs	r2, #0
100039f0:	e9cd 0108 	strd	r0, r1, [sp, #32]
100039f4:	4b20      	ldr	r3, [pc, #128]	@ (10003a78 <_ZN6FilterC1Ev+0x67c>)
100039f6:	4640      	mov	r0, r8
100039f8:	4649      	mov	r1, r9
100039fa:	f003 f9d9 	bl	10006db0 <__wrap___aeabi_dmul>
100039fe:	e9dd 2308 	ldrd	r2, r3, [sp, #32]
10003a02:	f003 f9d5 	bl	10006db0 <__wrap___aeabi_dmul>
10003a06:	4632      	mov	r2, r6
10003a08:	463b      	mov	r3, r7
10003a0a:	f003 f9a9 	bl	10006d60 <__wrap___aeabi_dadd>
10003a0e:	4652      	mov	r2, sl
10003a10:	465b      	mov	r3, fp
10003a12:	f003 f9cd 	bl	10006db0 <__wrap___aeabi_dmul>
10003a16:	e9dd 2300 	ldrd	r2, r3, [sp]
10003a1a:	e9cd 010a 	strd	r0, r1, [sp, #40]	@ 0x28
10003a1e:	4640      	mov	r0, r8
10003a20:	4649      	mov	r1, r9
10003a22:	f003 f99d 	bl	10006d60 <__wrap___aeabi_dadd>
10003a26:	e9dd 2306 	ldrd	r2, r3, [sp, #24]
10003a2a:	f003 f999 	bl	10006d60 <__wrap___aeabi_dadd>
10003a2e:	4602      	mov	r2, r0
10003a30:	460b      	mov	r3, r1
10003a32:	e9dd 010a 	ldrd	r0, r1, [sp, #40]	@ 0x28
10003a36:	f003 f993 	bl	10006d60 <__wrap___aeabi_dadd>
10003a3a:	4602      	mov	r2, r0
10003a3c:	460b      	mov	r3, r1
10003a3e:	4640      	mov	r0, r8
10003a40:	4649      	mov	r1, r9
10003a42:	4690      	mov	r8, r2
10003a44:	4699      	mov	r9, r3
10003a46:	2200      	movs	r2, #0
10003a48:	4b0d      	ldr	r3, [pc, #52]	@ (10003a80 <_ZN6FilterC1Ev+0x684>)
10003a4a:	f003 f9b1 	bl	10006db0 <__wrap___aeabi_dmul>
10003a4e:	4602      	mov	r2, r0
10003a50:	460b      	mov	r3, r1
10003a52:	e9dd 0108 	ldrd	r0, r1, [sp, #32]
10003a56:	e9cd 2306 	strd	r2, r3, [sp, #24]
10003a5a:	f003 f9a9 	bl	10006db0 <__wrap___aeabi_dmul>
10003a5e:	4632      	mov	r2, r6
10003a60:	463b      	mov	r3, r7
10003a62:	f003 f97d 	bl	10006d60 <__wrap___aeabi_dadd>
10003a66:	4606      	mov	r6, r0
10003a68:	460f      	mov	r7, r1
10003a6a:	e038      	b.n	10003ade <_ZN6FilterC1Ev+0x6e2>
10003a6c:	3ff00000 	.word	0x3ff00000
10003a70:	20001338 	.word	0x20001338
10003a74:	200011c0 	.word	0x200011c0
10003a78:	40080000 	.word	0x40080000
10003a7c:	3fe00000 	.word	0x3fe00000
10003a80:	40180000 	.word	0x40180000
10003a84:	2000      	movs	r0, #0
10003a86:	2100      	movs	r1, #0
10003a88:	f003 fa38 	bl	10006efc <__wrap___aeabi_d2iz>
10003a8c:	4b76      	ldr	r3, [pc, #472]	@ (10003c68 <_ZN6FilterC1Ev+0x86c>)
10003a8e:	9a00      	ldr	r2, [sp, #0]
10003a90:	4629      	mov	r1, r5
10003a92:	f843 0022 	str.w	r0, [r3, r2, lsl #2]
10003a96:	4642      	mov	r2, r8
10003a98:	464b      	mov	r3, r9
10003a9a:	4620      	mov	r0, r4
10003a9c:	f003 f960 	bl	10006d60 <__wrap___aeabi_dadd>
10003aa0:	4632      	mov	r2, r6
10003aa2:	463b      	mov	r3, r7
10003aa4:	4604      	mov	r4, r0
10003aa6:	460d      	mov	r5, r1
10003aa8:	4640      	mov	r0, r8
10003aaa:	4649      	mov	r1, r9
10003aac:	f003 f958 	bl	10006d60 <__wrap___aeabi_dadd>
10003ab0:	e9dd 2306 	ldrd	r2, r3, [sp, #24]
10003ab4:	4680      	mov	r8, r0
10003ab6:	4689      	mov	r9, r1
10003ab8:	4630      	mov	r0, r6
10003aba:	4639      	mov	r1, r7
10003abc:	f003 f950 	bl	10006d60 <__wrap___aeabi_dadd>
10003ac0:	2200      	movs	r2, #0
10003ac2:	4b6a      	ldr	r3, [pc, #424]	@ (10003c6c <_ZN6FilterC1Ev+0x870>)
10003ac4:	4606      	mov	r6, r0
10003ac6:	460f      	mov	r7, r1
10003ac8:	4650      	mov	r0, sl
10003aca:	4659      	mov	r1, fp
10003acc:	f003 f948 	bl	10006d60 <__wrap___aeabi_dadd>
10003ad0:	e9dd 2302 	ldrd	r2, r3, [sp, #8]
10003ad4:	4682      	mov	sl, r0
10003ad6:	468b      	mov	fp, r1
10003ad8:	f003 fa5a 	bl	10006f90 <__wrap___aeabi_dcmple>
10003adc:	b178      	cbz	r0, 10003afe <_ZN6FilterC1Ev+0x702>
10003ade:	4659      	mov	r1, fp
10003ae0:	4650      	mov	r0, sl
10003ae2:	f003 fa0b 	bl	10006efc <__wrap___aeabi_d2iz>
10003ae6:	2200      	movs	r2, #0
10003ae8:	9000      	str	r0, [sp, #0]
10003aea:	2300      	movs	r3, #0
10003aec:	4620      	mov	r0, r4
10003aee:	4629      	mov	r1, r5
10003af0:	f003 fa3a 	bl	10006f68 <__wrap___aeabi_dcmplt>
10003af4:	2800      	cmp	r0, #0
10003af6:	d1c5      	bne.n	10003a84 <_ZN6FilterC1Ev+0x688>
10003af8:	4620      	mov	r0, r4
10003afa:	4629      	mov	r1, r5
10003afc:	e7c4      	b.n	10003a88 <_ZN6FilterC1Ev+0x68c>
10003afe:	9b0c      	ldr	r3, [sp, #48]	@ 0x30
10003b00:	4a5b      	ldr	r2, [pc, #364]	@ (10003c70 <_ZN6FilterC1Ev+0x874>)
10003b02:	3308      	adds	r3, #8
10003b04:	4293      	cmp	r3, r2
10003b06:	930c      	str	r3, [sp, #48]	@ 0x30
10003b08:	f47f ae61 	bne.w	100037ce <_ZN6FilterC1Ev+0x3d2>
10003b0c:	f44f 5200 	mov.w	r2, #8192	@ 0x2000
10003b10:	4955      	ldr	r1, [pc, #340]	@ (10003c68 <_ZN6FilterC1Ev+0x86c>)
10003b12:	4858      	ldr	r0, [pc, #352]	@ (10003c74 <_ZN6FilterC1Ev+0x878>)
10003b14:	9d0d      	ldr	r5, [sp, #52]	@ 0x34
10003b16:	f007 f9bd 	bl	1000ae94 <memcpy>
10003b1a:	2301      	movs	r3, #1
10003b1c:	4a56      	ldr	r2, [pc, #344]	@ (10003c78 <_ZN6FilterC1Ev+0x87c>)
10003b1e:	7013      	strb	r3, [r2, #0]
10003b20:	e480      	b.n	10003424 <_ZN6FilterC1Ev+0x28>
10003b22:	4545      	cmp	r5, r8
10003b24:	f000 8095 	beq.w	10003c52 <_ZN6FilterC1Ev+0x856>
10003b28:	9b0c      	ldr	r3, [sp, #48]	@ 0x30
10003b2a:	f853 0c04 	ldr.w	r0, [r3, #-4]
10003b2e:	f003 f9c1 	bl	10006eb4 <__wrap___aeabi_i2d>
10003b32:	e9dd 2308 	ldrd	r2, r3, [sp, #32]
10003b36:	f003 f927 	bl	10006d88 <__wrap___aeabi_dsub>
10003b3a:	4606      	mov	r6, r0
10003b3c:	4640      	mov	r0, r8
10003b3e:	460f      	mov	r7, r1
10003b40:	f003 f9b8 	bl	10006eb4 <__wrap___aeabi_i2d>
10003b44:	4652      	mov	r2, sl
10003b46:	465b      	mov	r3, fp
10003b48:	f003 f91e 	bl	10006d88 <__wrap___aeabi_dsub>
10003b4c:	4602      	mov	r2, r0
10003b4e:	460b      	mov	r3, r1
10003b50:	4630      	mov	r0, r6
10003b52:	4639      	mov	r1, r7
10003b54:	f003 f952 	bl	10006dfc <__wrap___aeabi_ddiv>
10003b58:	4606      	mov	r6, r0
10003b5a:	460f      	mov	r7, r1
10003b5c:	e9dd 010a 	ldrd	r0, r1, [sp, #40]	@ 0x28
10003b60:	2200      	movs	r2, #0
10003b62:	4b46      	ldr	r3, [pc, #280]	@ (10003c7c <_ZN6FilterC1Ev+0x880>)
10003b64:	f003 f924 	bl	10006db0 <__wrap___aeabi_dmul>
10003b68:	e9dd 2300 	ldrd	r2, r3, [sp]
10003b6c:	f003 f946 	bl	10006dfc <__wrap___aeabi_ddiv>
10003b70:	4632      	mov	r2, r6
10003b72:	463b      	mov	r3, r7
10003b74:	f003 f908 	bl	10006d88 <__wrap___aeabi_dsub>
10003b78:	2200      	movs	r2, #0
10003b7a:	4b41      	ldr	r3, [pc, #260]	@ (10003c80 <_ZN6FilterC1Ev+0x884>)
10003b7c:	f003 f918 	bl	10006db0 <__wrap___aeabi_dmul>
10003b80:	e9cd 0106 	strd	r0, r1, [sp, #24]
10003b84:	e694      	b.n	100038b0 <_ZN6FilterC1Ev+0x4b4>
10003b86:	4545      	cmp	r5, r8
10003b88:	d058      	beq.n	10003c3c <_ZN6FilterC1Ev+0x840>
10003b8a:	9b0c      	ldr	r3, [sp, #48]	@ 0x30
10003b8c:	f853 0c04 	ldr.w	r0, [r3, #-4]
10003b90:	f003 f990 	bl	10006eb4 <__wrap___aeabi_i2d>
10003b94:	e9dd 2308 	ldrd	r2, r3, [sp, #32]
10003b98:	f003 f8f6 	bl	10006d88 <__wrap___aeabi_dsub>
10003b9c:	4606      	mov	r6, r0
10003b9e:	4640      	mov	r0, r8
10003ba0:	460f      	mov	r7, r1
10003ba2:	f003 f987 	bl	10006eb4 <__wrap___aeabi_i2d>
10003ba6:	4652      	mov	r2, sl
10003ba8:	465b      	mov	r3, fp
10003baa:	f003 f8ed 	bl	10006d88 <__wrap___aeabi_dsub>
10003bae:	4602      	mov	r2, r0
10003bb0:	460b      	mov	r3, r1
10003bb2:	4630      	mov	r0, r6
10003bb4:	4639      	mov	r1, r7
10003bb6:	f003 f921 	bl	10006dfc <__wrap___aeabi_ddiv>
10003bba:	4606      	mov	r6, r0
10003bbc:	460f      	mov	r7, r1
10003bbe:	e9dd 010a 	ldrd	r0, r1, [sp, #40]	@ 0x28
10003bc2:	2200      	movs	r2, #0
10003bc4:	4b2d      	ldr	r3, [pc, #180]	@ (10003c7c <_ZN6FilterC1Ev+0x880>)
10003bc6:	f003 f8f3 	bl	10006db0 <__wrap___aeabi_dmul>
10003bca:	e9dd 2300 	ldrd	r2, r3, [sp]
10003bce:	f003 f915 	bl	10006dfc <__wrap___aeabi_ddiv>
10003bd2:	4632      	mov	r2, r6
10003bd4:	463b      	mov	r3, r7
10003bd6:	f003 f8d7 	bl	10006d88 <__wrap___aeabi_dsub>
10003bda:	2200      	movs	r2, #0
10003bdc:	4b28      	ldr	r3, [pc, #160]	@ (10003c80 <_ZN6FilterC1Ev+0x884>)
10003bde:	f003 f8e7 	bl	10006db0 <__wrap___aeabi_dmul>
10003be2:	e9cd 0106 	strd	r0, r1, [sp, #24]
10003be6:	e4b7      	b.n	10003558 <_ZN6FilterC1Ev+0x15c>
10003be8:	2200      	movs	r2, #0
10003bea:	e9dd 010a 	ldrd	r0, r1, [sp, #40]	@ 0x28
10003bee:	4b23      	ldr	r3, [pc, #140]	@ (10003c7c <_ZN6FilterC1Ev+0x880>)
10003bf0:	f003 f8de 	bl	10006db0 <__wrap___aeabi_dmul>
10003bf4:	e9dd 2300 	ldrd	r2, r3, [sp]
10003bf8:	f003 f900 	bl	10006dfc <__wrap___aeabi_ddiv>
10003bfc:	e9dd 2306 	ldrd	r2, r3, [sp, #24]
10003c00:	f003 f8c2 	bl	10006d88 <__wrap___aeabi_dsub>
10003c04:	2200      	movs	r2, #0
10003c06:	4b1e      	ldr	r3, [pc, #120]	@ (10003c80 <_ZN6FilterC1Ev+0x884>)
10003c08:	f003 f8d2 	bl	10006db0 <__wrap___aeabi_dmul>
10003c0c:	4606      	mov	r6, r0
10003c0e:	460f      	mov	r7, r1
10003c10:	e64e      	b.n	100038b0 <_ZN6FilterC1Ev+0x4b4>
10003c12:	2200      	movs	r2, #0
10003c14:	e9dd 010a 	ldrd	r0, r1, [sp, #40]	@ 0x28
10003c18:	4b18      	ldr	r3, [pc, #96]	@ (10003c7c <_ZN6FilterC1Ev+0x880>)
10003c1a:	f003 f8c9 	bl	10006db0 <__wrap___aeabi_dmul>
10003c1e:	e9dd 2300 	ldrd	r2, r3, [sp]
10003c22:	f003 f8eb 	bl	10006dfc <__wrap___aeabi_ddiv>
10003c26:	e9dd 2306 	ldrd	r2, r3, [sp, #24]
10003c2a:	f003 f8ad 	bl	10006d88 <__wrap___aeabi_dsub>
10003c2e:	2200      	movs	r2, #0
10003c30:	4b13      	ldr	r3, [pc, #76]	@ (10003c80 <_ZN6FilterC1Ev+0x884>)
10003c32:	f003 f8bd 	bl	10006db0 <__wrap___aeabi_dmul>
10003c36:	4606      	mov	r6, r0
10003c38:	460f      	mov	r7, r1
10003c3a:	e48d      	b.n	10003558 <_ZN6FilterC1Ev+0x15c>
10003c3c:	4602      	mov	r2, r0
10003c3e:	460b      	mov	r3, r1
10003c40:	e9dd 010a 	ldrd	r0, r1, [sp, #40]	@ 0x28
10003c44:	f003 f8da 	bl	10006dfc <__wrap___aeabi_ddiv>
10003c48:	4606      	mov	r6, r0
10003c4a:	460f      	mov	r7, r1
10003c4c:	e9cd 0106 	strd	r0, r1, [sp, #24]
10003c50:	e482      	b.n	10003558 <_ZN6FilterC1Ev+0x15c>
10003c52:	4602      	mov	r2, r0
10003c54:	460b      	mov	r3, r1
10003c56:	e9dd 010a 	ldrd	r0, r1, [sp, #40]	@ 0x28
10003c5a:	f003 f8cf 	bl	10006dfc <__wrap___aeabi_ddiv>
10003c5e:	4606      	mov	r6, r0
10003c60:	460f      	mov	r7, r1
10003c62:	e9cd 0106 	strd	r0, r1, [sp, #24]
10003c66:	e623      	b.n	100038b0 <_ZN6FilterC1Ev+0x4b4>
10003c68:	200062c0 	.word	0x200062c0
10003c6c:	3ff00000 	.word	0x3ff00000
10003c70:	20001240 	.word	0x20001240
10003c74:	20002088 	.word	0x20002088
10003c78:	2001f3c2 	.word	0x2001f3c2
10003c7c:	40080000 	.word	0x40080000
10003c80:	3fe00000 	.word	0x3fe00000

10003c84 <_ZN6Filter19set8580FilterCoeffsEii>:
10003c84:	e92d 43f8 	stmdb	sp!, {r3, r4, r5, r6, r7, r8, r9, lr}
10003c88:	460f      	mov	r7, r1
10003c8a:	4681      	mov	r9, r0
10003c8c:	4c20      	ldr	r4, [pc, #128]	@ (10003d10 <_ZN6Filter19set8580FilterCoeffsEii+0x8c>)
10003c8e:	1a52      	subs	r2, r2, r1
10003c90:	4e20      	ldr	r6, [pc, #128]	@ (10003d14 <_ZN6Filter19set8580FilterCoeffsEii+0x90>)
10003c92:	f504 5800 	add.w	r8, r4, #8192	@ 0x2000
10003c96:	eb01 0542 	add.w	r5, r1, r2, lsl #1
10003c9a:	f854 0f04 	ldr.w	r0, [r4, #4]!
10003c9e:	f243 02d4 	movw	r2, #12500	@ 0x30d4
10003ca2:	2300      	movs	r3, #0
10003ca4:	fb85 0100 	smull	r0, r1, r5, r0
10003ca8:	f007 fb06 	bl	1000b2b8 <____aeabi_ldivmod_veneer>
10003cac:	4544      	cmp	r4, r8
10003cae:	4438      	add	r0, r7
10003cb0:	f846 0f04 	str.w	r0, [r6, #4]!
10003cb4:	d1f1      	bne.n	10003c9a <_ZN6Filter19set8580FilterCoeffsEii+0x16>
10003cb6:	f242 7210 	movw	r2, #10000	@ 0x2710
10003cba:	e9d9 1301 	ldrd	r1, r3, [r9, #4]
10003cbe:	f641 309e 	movw	r0, #7070	@ 0x1b9e
10003cc2:	f246 64f1 	movw	r4, #26353	@ 0x66f1
10003cc6:	fb03 f202 	mul.w	r2, r3, r2
10003cca:	f8d9 3044 	ldr.w	r3, [r9, #68]	@ 0x44
10003cce:	f853 3021 	ldr.w	r3, [r3, r1, lsl #2]
10003cd2:	4911      	ldr	r1, [pc, #68]	@ (10003d18 <_ZN6Filter19set8580FilterCoeffsEii+0x94>)
10003cd4:	fb83 3101 	smull	r3, r1, r3, r1
10003cd8:	0c1b      	lsrs	r3, r3, #16
10003cda:	ea43 4301 	orr.w	r3, r3, r1, lsl #16
10003cde:	490f      	ldr	r1, [pc, #60]	@ (10003d1c <_ZN6Filter19set8580FilterCoeffsEii+0x98>)
10003ce0:	429c      	cmp	r4, r3
10003ce2:	fba1 1202 	umull	r1, r2, r1, r2
10003ce6:	490e      	ldr	r1, [pc, #56]	@ (10003d20 <_ZN6Filter19set8580FilterCoeffsEii+0x9c>)
10003ce8:	eb00 02d2 	add.w	r2, r0, r2, lsr #3
10003cec:	fbb1 f2f2 	udiv	r2, r1, r2
10003cf0:	490c      	ldr	r1, [pc, #48]	@ (10003d24 <_ZN6Filter19set8580FilterCoeffsEii+0xa0>)
10003cf2:	bfa8      	it	ge
10003cf4:	461c      	movge	r4, r3
10003cf6:	428b      	cmp	r3, r1
10003cf8:	f8c9 3030 	str.w	r3, [r9, #48]	@ 0x30
10003cfc:	bfa8      	it	ge
10003cfe:	460b      	movge	r3, r1
10003d00:	f8c9 4038 	str.w	r4, [r9, #56]	@ 0x38
10003d04:	f8c9 203c 	str.w	r2, [r9, #60]	@ 0x3c
10003d08:	f8c9 3034 	str.w	r3, [r9, #52]	@ 0x34
10003d0c:	e8bd 83f8 	ldmia.w	sp!, {r3, r4, r5, r6, r7, r8, r9, pc}
10003d10:	20002084 	.word	0x20002084
10003d14:	200062bc 	.word	0x200062bc
10003d18:	000696a1 	.word	0x000696a1
10003d1c:	88888889 	.word	0x88888889
10003d20:	009c4000 	.word	0x009c4000
10003d24:	00019bc6 	.word	0x00019bc6

10003d28 <_ZN6Filter19set6581FilterCoeffsEPKsiii>:
10003d28:	b570      	push	{r4, r5, r6, lr}
10003d2a:	f647 75ff 	movw	r5, #32767	@ 0x7fff
10003d2e:	f8df c090 	ldr.w	ip, [pc, #144]	@ 10003dc0 <_ZN6Filter19set6581FilterCoeffsEPKsiii+0x98>
10003d32:	4614      	mov	r4, r2
10003d34:	4606      	mov	r6, r0
10003d36:	3902      	subs	r1, #2
10003d38:	f50c 5000 	add.w	r0, ip, #8192	@ 0x2000
10003d3c:	1a9a      	subs	r2, r3, r2
10003d3e:	f931 3f02 	ldrsh.w	r3, [r1, #2]!
10003d42:	fb02 f303 	mul.w	r3, r2, r3
10003d46:	eb03 0e05 	add.w	lr, r3, r5
10003d4a:	ea33 0323 	bics.w	r3, r3, r3, asr #32
10003d4e:	bf28      	it	cs
10003d50:	4673      	movcs	r3, lr
10003d52:	eb04 33e3 	add.w	r3, r4, r3, asr #15
10003d56:	f84c 3b04 	str.w	r3, [ip], #4
10003d5a:	4560      	cmp	r0, ip
10003d5c:	d1ef      	bne.n	10003d3e <_ZN6Filter19set6581FilterCoeffsEPKsiii+0x16>
10003d5e:	f242 7210 	movw	r2, #10000	@ 0x2710
10003d62:	f641 309e 	movw	r0, #7070	@ 0x1b9e
10003d66:	f246 64f1 	movw	r4, #26353	@ 0x66f1
10003d6a:	9b04      	ldr	r3, [sp, #16]
10003d6c:	6871      	ldr	r1, [r6, #4]
10003d6e:	6433      	str	r3, [r6, #64]	@ 0x40
10003d70:	68b3      	ldr	r3, [r6, #8]
10003d72:	fb03 f202 	mul.w	r2, r3, r2
10003d76:	6c73      	ldr	r3, [r6, #68]	@ 0x44
10003d78:	f853 3021 	ldr.w	r3, [r3, r1, lsl #2]
10003d7c:	490c      	ldr	r1, [pc, #48]	@ (10003db0 <_ZN6Filter19set6581FilterCoeffsEPKsiii+0x88>)
10003d7e:	fb83 3101 	smull	r3, r1, r3, r1
10003d82:	0c1b      	lsrs	r3, r3, #16
10003d84:	ea43 4301 	orr.w	r3, r3, r1, lsl #16
10003d88:	490a      	ldr	r1, [pc, #40]	@ (10003db4 <_ZN6Filter19set6581FilterCoeffsEPKsiii+0x8c>)
10003d8a:	429c      	cmp	r4, r3
10003d8c:	fba1 1202 	umull	r1, r2, r1, r2
10003d90:	4909      	ldr	r1, [pc, #36]	@ (10003db8 <_ZN6Filter19set6581FilterCoeffsEPKsiii+0x90>)
10003d92:	eb00 02d2 	add.w	r2, r0, r2, lsr #3
10003d96:	fbb1 f2f2 	udiv	r2, r1, r2
10003d9a:	4908      	ldr	r1, [pc, #32]	@ (10003dbc <_ZN6Filter19set6581FilterCoeffsEPKsiii+0x94>)
10003d9c:	bfa8      	it	ge
10003d9e:	461c      	movge	r4, r3
10003da0:	428b      	cmp	r3, r1
10003da2:	6333      	str	r3, [r6, #48]	@ 0x30
10003da4:	bfa8      	it	ge
10003da6:	460b      	movge	r3, r1
10003da8:	63b4      	str	r4, [r6, #56]	@ 0x38
10003daa:	63f2      	str	r2, [r6, #60]	@ 0x3c
10003dac:	6373      	str	r3, [r6, #52]	@ 0x34
10003dae:	bd70      	pop	{r4, r5, r6, pc}
10003db0:	000696a1 	.word	0x000696a1
10003db4:	88888889 	.word	0x88888889
10003db8:	009c4000 	.word	0x009c4000
10003dbc:	00019bc6 	.word	0x00019bc6
10003dc0:	200042c0 	.word	0x200042c0

10003dc4 <_ZN6Filter14set_chip_modelE10chip_model>:
10003dc4:	b510      	push	{r4, lr}
10003dc6:	b379      	cbz	r1, 10003e28 <_ZN6Filter14set_chip_modelE10chip_model+0x64>
10003dc8:	2300      	movs	r3, #0
10003dca:	2413      	movs	r4, #19
10003dcc:	f8df c080 	ldr.w	ip, [pc, #128]	@ 10003e50 <_ZN6Filter14set_chip_modelE10chip_model+0x8c>
10003dd0:	4a18      	ldr	r2, [pc, #96]	@ (10003e34 <_ZN6Filter14set_chip_modelE10chip_model+0x70>)
10003dd2:	7001      	strb	r1, [r0, #0]
10003dd4:	f242 7110 	movw	r1, #10000	@ 0x2710
10003dd8:	61c3      	str	r3, [r0, #28]
10003dda:	6843      	ldr	r3, [r0, #4]
10003ddc:	64c4      	str	r4, [r0, #76]	@ 0x4c
10003dde:	f852 3023 	ldr.w	r3, [r2, r3, lsl #2]
10003de2:	e9c0 2c11 	strd	r2, ip, [r0, #68]	@ 0x44
10003de6:	6882      	ldr	r2, [r0, #8]
10003de8:	f641 3c9e 	movw	ip, #7070	@ 0x1b9e
10003dec:	fb01 f202 	mul.w	r2, r1, r2
10003df0:	4911      	ldr	r1, [pc, #68]	@ (10003e38 <_ZN6Filter14set_chip_modelE10chip_model+0x74>)
10003df2:	fb83 3101 	smull	r3, r1, r3, r1
10003df6:	0c1b      	lsrs	r3, r3, #16
10003df8:	ea43 4301 	orr.w	r3, r3, r1, lsl #16
10003dfc:	f246 61f1 	movw	r1, #26353	@ 0x66f1
10003e00:	4299      	cmp	r1, r3
10003e02:	bfa8      	it	ge
10003e04:	4619      	movge	r1, r3
10003e06:	6381      	str	r1, [r0, #56]	@ 0x38
10003e08:	490c      	ldr	r1, [pc, #48]	@ (10003e3c <_ZN6Filter14set_chip_modelE10chip_model+0x78>)
10003e0a:	6303      	str	r3, [r0, #48]	@ 0x30
10003e0c:	fba1 1202 	umull	r1, r2, r1, r2
10003e10:	490b      	ldr	r1, [pc, #44]	@ (10003e40 <_ZN6Filter14set_chip_modelE10chip_model+0x7c>)
10003e12:	eb0c 02d2 	add.w	r2, ip, r2, lsr #3
10003e16:	fbb1 f2f2 	udiv	r2, r1, r2
10003e1a:	490a      	ldr	r1, [pc, #40]	@ (10003e44 <_ZN6Filter14set_chip_modelE10chip_model+0x80>)
10003e1c:	63c2      	str	r2, [r0, #60]	@ 0x3c
10003e1e:	428b      	cmp	r3, r1
10003e20:	bfa8      	it	ge
10003e22:	460b      	movge	r3, r1
10003e24:	6343      	str	r3, [r0, #52]	@ 0x34
10003e26:	bd10      	pop	{r4, pc}
10003e28:	241f      	movs	r4, #31
10003e2a:	4b07      	ldr	r3, [pc, #28]	@ (10003e48 <_ZN6Filter14set_chip_modelE10chip_model+0x84>)
10003e2c:	f8df c024 	ldr.w	ip, [pc, #36]	@ 10003e54 <_ZN6Filter14set_chip_modelE10chip_model+0x90>
10003e30:	4a06      	ldr	r2, [pc, #24]	@ (10003e4c <_ZN6Filter14set_chip_modelE10chip_model+0x88>)
10003e32:	e7ce      	b.n	10003dd2 <_ZN6Filter14set_chip_modelE10chip_model+0xe>
10003e34:	200062c0 	.word	0x200062c0
10003e38:	000696a1 	.word	0x000696a1
10003e3c:	88888889 	.word	0x88888889
10003e40:	009c4000 	.word	0x009c4000
10003e44:	00019bc6 	.word	0x00019bc6
10003e48:	fffffe3a 	.word	0xfffffe3a
10003e4c:	200042c0 	.word	0x200042c0
10003e50:	200011a0 	.word	0x200011a0
10003e54:	20001238 	.word	0x20001238

10003e58 <_ZN6Filter5resetEv>:
10003e58:	2300      	movs	r3, #0
10003e5a:	f246 61f1 	movw	r1, #26353	@ 0x66f1
10003e5e:	b500      	push	{lr}
10003e60:	e9c0 3301 	strd	r3, r3, [r0, #4]
10003e64:	e9c0 3303 	strd	r3, r3, [r0, #12]
10003e68:	e9c0 3305 	strd	r3, r3, [r0, #20]
10003e6c:	e9c0 3308 	strd	r3, r3, [r0, #32]
10003e70:	e9c0 330a 	strd	r3, r3, [r0, #40]	@ 0x28
10003e74:	6c43      	ldr	r3, [r0, #68]	@ 0x44
10003e76:	4a0b      	ldr	r2, [pc, #44]	@ (10003ea4 <_ZN6Filter5resetEv+0x4c>)
10003e78:	681b      	ldr	r3, [r3, #0]
10003e7a:	f44f 6eb5 	mov.w	lr, #1448	@ 0x5a8
10003e7e:	fb83 3202 	smull	r3, r2, r3, r2
10003e82:	0c1b      	lsrs	r3, r3, #16
10003e84:	ea43 4302 	orr.w	r3, r3, r2, lsl #16
10003e88:	4a07      	ldr	r2, [pc, #28]	@ (10003ea8 <_ZN6Filter5resetEv+0x50>)
10003e8a:	f8c0 e03c 	str.w	lr, [r0, #60]	@ 0x3c
10003e8e:	429a      	cmp	r2, r3
10003e90:	bfa8      	it	ge
10003e92:	461a      	movge	r2, r3
10003e94:	4299      	cmp	r1, r3
10003e96:	bfa8      	it	ge
10003e98:	4619      	movge	r1, r3
10003e9a:	e9c0 320c 	strd	r3, r2, [r0, #48]	@ 0x30
10003e9e:	6381      	str	r1, [r0, #56]	@ 0x38
10003ea0:	bd00      	pop	{pc}
10003ea2:	bf00      	nop
10003ea4:	000696a1 	.word	0x000696a1
10003ea8:	00019bc6 	.word	0x00019bc6

10003eac <_ZN6Filter10writeFC_LOEj>:
10003eac:	6843      	ldr	r3, [r0, #4]
10003eae:	f001 0107 	and.w	r1, r1, #7
10003eb2:	f403 63ff 	and.w	r3, r3, #2040	@ 0x7f8
10003eb6:	430b      	orrs	r3, r1
10003eb8:	6c41      	ldr	r1, [r0, #68]	@ 0x44
10003eba:	b500      	push	{lr}
10003ebc:	6043      	str	r3, [r0, #4]
10003ebe:	f851 3023 	ldr.w	r3, [r1, r3, lsl #2]
10003ec2:	4a09      	ldr	r2, [pc, #36]	@ (10003ee8 <_ZN6Filter10writeFC_LOEj+0x3c>)
10003ec4:	4909      	ldr	r1, [pc, #36]	@ (10003eec <_ZN6Filter10writeFC_LOEj+0x40>)
10003ec6:	fb83 3202 	smull	r3, r2, r3, r2
10003eca:	0c1b      	lsrs	r3, r3, #16
10003ecc:	ea43 4302 	orr.w	r3, r3, r2, lsl #16
10003ed0:	f246 62f1 	movw	r2, #26353	@ 0x66f1
10003ed4:	4299      	cmp	r1, r3
10003ed6:	bfa8      	it	ge
10003ed8:	4619      	movge	r1, r3
10003eda:	429a      	cmp	r2, r3
10003edc:	bfa8      	it	ge
10003ede:	461a      	movge	r2, r3
10003ee0:	e9c0 310c 	strd	r3, r1, [r0, #48]	@ 0x30
10003ee4:	6382      	str	r2, [r0, #56]	@ 0x38
10003ee6:	bd00      	pop	{pc}
10003ee8:	000696a1 	.word	0x000696a1
10003eec:	00019bc6 	.word	0x00019bc6

10003ef0 <_ZN6Filter10writeFC_HIEj>:
10003ef0:	6843      	ldr	r3, [r0, #4]
10003ef2:	00c9      	lsls	r1, r1, #3
10003ef4:	f003 0307 	and.w	r3, r3, #7
10003ef8:	f401 61ff 	and.w	r1, r1, #2040	@ 0x7f8
10003efc:	4319      	orrs	r1, r3
10003efe:	6c43      	ldr	r3, [r0, #68]	@ 0x44
10003f00:	b500      	push	{lr}
10003f02:	6041      	str	r1, [r0, #4]
10003f04:	f853 3021 	ldr.w	r3, [r3, r1, lsl #2]
10003f08:	4a09      	ldr	r2, [pc, #36]	@ (10003f30 <_ZN6Filter10writeFC_HIEj+0x40>)
10003f0a:	490a      	ldr	r1, [pc, #40]	@ (10003f34 <_ZN6Filter10writeFC_HIEj+0x44>)
10003f0c:	fb83 3202 	smull	r3, r2, r3, r2
10003f10:	0c1b      	lsrs	r3, r3, #16
10003f12:	ea43 4302 	orr.w	r3, r3, r2, lsl #16
10003f16:	f246 62f1 	movw	r2, #26353	@ 0x66f1
10003f1a:	4299      	cmp	r1, r3
10003f1c:	bfa8      	it	ge
10003f1e:	4619      	movge	r1, r3
10003f20:	429a      	cmp	r2, r3
10003f22:	bfa8      	it	ge
10003f24:	461a      	movge	r2, r3
10003f26:	e9c0 310c 	strd	r3, r1, [r0, #48]	@ 0x30
10003f2a:	6382      	str	r2, [r0, #56]	@ 0x38
10003f2c:	bd00      	pop	{pc}
10003f2e:	bf00      	nop
10003f30:	000696a1 	.word	0x000696a1
10003f34:	00019bc6 	.word	0x00019bc6

10003f38 <_ZN6Filter13writeRES_FILTEj>:
10003f38:	f242 7310 	movw	r3, #10000	@ 0x2710
10003f3c:	f641 3c9e 	movw	ip, #7070	@ 0x1b9e
10003f40:	b510      	push	{r4, lr}
10003f42:	f3c1 1403 	ubfx	r4, r1, #4, #4
10003f46:	fb04 f303 	mul.w	r3, r4, r3
10003f4a:	f8df e020 	ldr.w	lr, [pc, #32]	@ 10003f6c <_ZN6Filter13writeRES_FILTEj+0x34>
10003f4e:	4a06      	ldr	r2, [pc, #24]	@ (10003f68 <_ZN6Filter13writeRES_FILTEj+0x30>)
10003f50:	fbae e303 	umull	lr, r3, lr, r3
10003f54:	eb0c 0cd3 	add.w	ip, ip, r3, lsr #3
10003f58:	fbb2 f2fc 	udiv	r2, r2, ip
10003f5c:	f001 010f 	and.w	r1, r1, #15
10003f60:	6084      	str	r4, [r0, #8]
10003f62:	60c1      	str	r1, [r0, #12]
10003f64:	63c2      	str	r2, [r0, #60]	@ 0x3c
10003f66:	bd10      	pop	{r4, pc}
10003f68:	009c4000 	.word	0x009c4000
10003f6c:	88888889 	.word	0x88888889

10003f70 <_ZN6Filter13writeMODE_VOLEj>:
10003f70:	f001 0280 	and.w	r2, r1, #128	@ 0x80
10003f74:	f3c1 1302 	ubfx	r3, r1, #4, #3
10003f78:	f001 010f 	and.w	r1, r1, #15
10003f7c:	e9c0 2304 	strd	r2, r3, [r0, #16]
10003f80:	6181      	str	r1, [r0, #24]
10003f82:	4770      	bx	lr

10003f84 <_ZN5SID16C1Ev>:
10003f84:	b5f8      	push	{r3, r4, r5, r6, r7, lr}
10003f86:	4604      	mov	r4, r0
10003f88:	f7ff fa38 	bl	100033fc <_ZN6FilterC1Ev>
10003f8c:	f104 0050 	add.w	r0, r4, #80	@ 0x50
10003f90:	f7ff fa04 	bl	1000339c <_ZN14ExternalFilterC1Ev>
10003f94:	f104 056c 	add.w	r5, r4, #108	@ 0x6c
10003f98:	f504 771f 	add.w	r7, r4, #636	@ 0x27c
10003f9c:	4628      	mov	r0, r5
10003f9e:	35b0      	adds	r5, #176	@ 0xb0
10003fa0:	f001 f8fe 	bl	100051a0 <_ZN5VoiceC1Ev>
10003fa4:	42af      	cmp	r7, r5
10003fa6:	d1f9      	bne.n	10003f9c <_ZN5SID16C1Ev+0x18>
10003fa8:	2500      	movs	r5, #0
10003faa:	f504 77e6 	add.w	r7, r4, #460	@ 0x1cc
10003fae:	4639      	mov	r1, r7
10003fb0:	f104 006c 	add.w	r0, r4, #108	@ 0x6c
10003fb4:	e9c4 55ae 	strd	r5, r5, [r4, #696]	@ 0x2b8
10003fb8:	f001 f924 	bl	10005204 <_ZN5Voice15set_sync_sourceEPS_>
10003fbc:	f504 708e 	add.w	r0, r4, #284	@ 0x11c
10003fc0:	4606      	mov	r6, r0
10003fc2:	f104 016c 	add.w	r1, r4, #108	@ 0x6c
10003fc6:	f001 f91d 	bl	10005204 <_ZN5Voice15set_sync_sourceEPS_>
10003fca:	4638      	mov	r0, r7
10003fcc:	4631      	mov	r1, r6
10003fce:	f001 f919 	bl	10005204 <_ZN5Voice15set_sync_sourceEPS_>
10003fd2:	4a0e      	ldr	r2, [pc, #56]	@ (1000400c <_ZN5SID16C1Ev+0x88>)
10003fd4:	4b0e      	ldr	r3, [pc, #56]	@ (10004010 <_ZN5SID16C1Ev+0x8c>)
10003fd6:	f8d4 02b8 	ldr.w	r0, [r4, #696]	@ 0x2b8
10003fda:	e9c4 35a4 	strd	r3, r5, [r4, #656]	@ 0x290
10003fde:	f8c4 2284 	str.w	r2, [r4, #644]	@ 0x284
10003fe2:	f884 528c 	strb.w	r5, [r4, #652]	@ 0x28c
10003fe6:	f8a4 529c 	strh.w	r5, [r4, #668]	@ 0x29c
10003fea:	b108      	cbz	r0, 10003ff0 <_ZN5SID16C1Ev+0x6c>
10003fec:	f004 f898 	bl	10008120 <_ZdaPv>
10003ff0:	f8d4 02bc 	ldr.w	r0, [r4, #700]	@ 0x2bc
10003ff4:	b108      	cbz	r0, 10003ffa <_ZN5SID16C1Ev+0x76>
10003ff6:	f004 f893 	bl	10008120 <_ZdaPv>
10003ffa:	2300      	movs	r3, #0
10003ffc:	4620      	mov	r0, r4
10003ffe:	e9c4 33ae 	strd	r3, r3, [r4, #696]	@ 0x2b8
10004002:	e9c4 339f 	strd	r3, r3, [r4, #636]	@ 0x27c
10004006:	f8c4 3288 	str.w	r3, [r4, #648]	@ 0x288
1000400a:	bdf8      	pop	{r3, r4, r5, r6, r7, pc}
1000400c:	49708a00 	.word	0x49708a00
10004010:	0016575b 	.word	0x0016575b

10004014 <_ZN5SID1614set_chip_modelE10chip_model>:
10004014:	b5f8      	push	{r3, r4, r5, r6, r7, lr}
10004016:	4604      	mov	r4, r0
10004018:	460e      	mov	r6, r1
1000401a:	f100 056c 	add.w	r5, r0, #108	@ 0x6c
1000401e:	f500 771f 	add.w	r7, r0, #636	@ 0x27c
10004022:	4628      	mov	r0, r5
10004024:	4631      	mov	r1, r6
10004026:	35b0      	adds	r5, #176	@ 0xb0
10004028:	f001 f8d4 	bl	100051d4 <_ZN5Voice14set_chip_modelE10chip_model>
1000402c:	42bd      	cmp	r5, r7
1000402e:	d1f8      	bne.n	10004022 <_ZN5SID1614set_chip_modelE10chip_model+0xe>
10004030:	4631      	mov	r1, r6
10004032:	4620      	mov	r0, r4
10004034:	f7ff fec6 	bl	10003dc4 <_ZN6Filter14set_chip_modelE10chip_model>
10004038:	4631      	mov	r1, r6
1000403a:	f104 0050 	add.w	r0, r4, #80	@ 0x50
1000403e:	e8bd 40f8 	ldmia.w	sp!, {r3, r4, r5, r6, r7, lr}
10004042:	f7ff b9cd 	b.w	100033e0 <_ZN14ExternalFilter14set_chip_modelE10chip_model>

10004046 <_ZN5SID165resetEv>:
10004046:	b538      	push	{r3, r4, r5, lr}
10004048:	4604      	mov	r4, r0
1000404a:	2500      	movs	r5, #0
1000404c:	306c      	adds	r0, #108	@ 0x6c
1000404e:	f001 f8e9 	bl	10005224 <_ZN5Voice5resetEv>
10004052:	f504 708e 	add.w	r0, r4, #284	@ 0x11c
10004056:	f8c4 52ac 	str.w	r5, [r4, #684]	@ 0x2ac
1000405a:	f001 f8e3 	bl	10005224 <_ZN5Voice5resetEv>
1000405e:	f504 70e6 	add.w	r0, r4, #460	@ 0x1cc
10004062:	f8c4 52b0 	str.w	r5, [r4, #688]	@ 0x2b0
10004066:	f001 f8dd 	bl	10005224 <_ZN5Voice5resetEv>
1000406a:	4620      	mov	r0, r4
1000406c:	f8c4 52b4 	str.w	r5, [r4, #692]	@ 0x2b4
10004070:	f8c4 52a8 	str.w	r5, [r4, #680]	@ 0x2a8
10004074:	f7ff fef0 	bl	10003e58 <_ZN6Filter5resetEv>
10004078:	f104 0050 	add.w	r0, r4, #80	@ 0x50
1000407c:	f7ff f9b8 	bl	100033f0 <_ZN14ExternalFilter5resetEv>
10004080:	e9c4 559f 	strd	r5, r5, [r4, #636]	@ 0x27c
10004084:	bd38      	pop	{r3, r4, r5, pc}
	...

10004088 <_ZN5SID165inputEi>:
10004088:	014b      	lsls	r3, r1, #5
1000408a:	eb03 1301 	add.w	r3, r3, r1, lsl #4
1000408e:	f8c0 3288 	str.w	r3, [r0, #648]	@ 0x288
10004092:	4770      	bx	lr

10004094 <_ZN5SID1615forceDigiOutputEii>:
10004094:	eb00 0081 	add.w	r0, r0, r1, lsl #2
10004098:	f8c0 22ac 	str.w	r2, [r0, #684]	@ 0x2ac
1000409c:	4770      	bx	lr
1000409e:	bf00      	nop

100040a0 <_ZN5SID166outputEv>:
100040a0:	6e03      	ldr	r3, [r0, #96]	@ 0x60
100040a2:	4a06      	ldr	r2, [pc, #24]	@ (100040bc <_ZN5SID166outputEv+0x1c>)
100040a4:	f8d0 12a8 	ldr.w	r1, [r0, #680]	@ 0x2a8
100040a8:	fb82 0203 	smull	r0, r2, r2, r3
100040ac:	17d8      	asrs	r0, r3, #31
100040ae:	ebc0 0062 	rsb	r0, r0, r2, asr #1
100040b2:	4408      	add	r0, r1
100040b4:	f300 000f 	ssat	r0, #16, r0
100040b8:	4770      	bx	lr
100040ba:	bf00      	nop
100040bc:	2e8ba2e9 	.word	0x2e8ba2e9

100040c0 <_ZN5SID1613readRegistersEPh>:
100040c0:	b538      	push	{r3, r4, r5, lr}
100040c2:	4605      	mov	r5, r0
100040c4:	f500 70e6 	add.w	r0, r0, #460	@ 0x1cc
100040c8:	460c      	mov	r4, r1
100040ca:	f001 fac1 	bl	10005650 <_ZN17WaveformGenerator7readOSCEv>
100040ce:	4603      	mov	r3, r0
100040d0:	f505 700a 	add.w	r0, r5, #552	@ 0x228
100040d4:	7023      	strb	r3, [r4, #0]
100040d6:	f7ff f95f 	bl	10003398 <_ZN17EnvelopeGenerator7readENVEv>
100040da:	7060      	strb	r0, [r4, #1]
100040dc:	bd38      	pop	{r3, r4, r5, pc}
100040de:	bf00      	nop

100040e0 <_ZN5SID165writeEjj>:
100040e0:	f44f 5300 	mov.w	r3, #8192	@ 0x2000
100040e4:	e9c0 239f 	strd	r2, r3, [r0, #636]	@ 0x27c
100040e8:	2918      	cmp	r1, #24
100040ea:	d87c      	bhi.n	100041e6 <_ZN5SID165writeEjj+0x106>
100040ec:	e8df f001 	tbb	[pc, r1]
100040f0:	6b6f7377 	.word	0x6b6f7377
100040f4:	5a5f6367 	.word	0x5a5f6367
100040f8:	464b5055 	.word	0x464b5055
100040fc:	32373c41 	.word	0x32373c41
10004100:	1e23282d 	.word	0x1e23282d
10004104:	10131619 	.word	0x10131619
10004108:	0d          	.byte	0x0d
10004109:	00          	.byte	0x00
1000410a:	4611      	mov	r1, r2
1000410c:	f7ff bf30 	b.w	10003f70 <_ZN6Filter13writeMODE_VOLEj>
10004110:	4611      	mov	r1, r2
10004112:	f7ff bf11 	b.w	10003f38 <_ZN6Filter13writeRES_FILTEj>
10004116:	4611      	mov	r1, r2
10004118:	f7ff beea 	b.w	10003ef0 <_ZN6Filter10writeFC_HIEj>
1000411c:	4611      	mov	r1, r2
1000411e:	f7ff bec5 	b.w	10003eac <_ZN6Filter10writeFC_LOEj>
10004122:	4611      	mov	r1, r2
10004124:	f500 700a 	add.w	r0, r0, #552	@ 0x228
10004128:	f7ff b924 	b.w	10003374 <_ZN17EnvelopeGenerator20writeSUSTAIN_RELEASEEj>
1000412c:	4611      	mov	r1, r2
1000412e:	f500 700a 	add.w	r0, r0, #552	@ 0x228
10004132:	f7ff b907 	b.w	10003344 <_ZN17EnvelopeGenerator17writeATTACK_DECAYEj>
10004136:	4611      	mov	r1, r2
10004138:	f500 70e6 	add.w	r0, r0, #460	@ 0x1cc
1000413c:	f001 b864 	b.w	10005208 <_ZN5Voice16writeCONTROL_REGEj>
10004140:	4611      	mov	r1, r2
10004142:	f500 70e6 	add.w	r0, r0, #460	@ 0x1cc
10004146:	f001 b8e1 	b.w	1000530c <_ZN17WaveformGenerator10writePW_HIEj>
1000414a:	4611      	mov	r1, r2
1000414c:	f500 70e6 	add.w	r0, r0, #460	@ 0x1cc
10004150:	f001 b8cc 	b.w	100052ec <_ZN17WaveformGenerator10writePW_LOEj>
10004154:	4611      	mov	r1, r2
10004156:	f500 70e6 	add.w	r0, r0, #460	@ 0x1cc
1000415a:	f001 b8c1 	b.w	100052e0 <_ZN17WaveformGenerator12writeFREQ_HIEj>
1000415e:	4611      	mov	r1, r2
10004160:	f500 70e6 	add.w	r0, r0, #460	@ 0x1cc
10004164:	f001 b8b4 	b.w	100052d0 <_ZN17WaveformGenerator12writeFREQ_LOEj>
10004168:	4611      	mov	r1, r2
1000416a:	f500 70bc 	add.w	r0, r0, #376	@ 0x178
1000416e:	f7ff b901 	b.w	10003374 <_ZN17EnvelopeGenerator20writeSUSTAIN_RELEASEEj>
10004172:	4611      	mov	r1, r2
10004174:	f500 70bc 	add.w	r0, r0, #376	@ 0x178
10004178:	f7ff b8e4 	b.w	10003344 <_ZN17EnvelopeGenerator17writeATTACK_DECAYEj>
1000417c:	4611      	mov	r1, r2
1000417e:	f500 708e 	add.w	r0, r0, #284	@ 0x11c
10004182:	f001 b841 	b.w	10005208 <_ZN5Voice16writeCONTROL_REGEj>
10004186:	4611      	mov	r1, r2
10004188:	f500 708e 	add.w	r0, r0, #284	@ 0x11c
1000418c:	f001 b8be 	b.w	1000530c <_ZN17WaveformGenerator10writePW_HIEj>
10004190:	4611      	mov	r1, r2
10004192:	f500 708e 	add.w	r0, r0, #284	@ 0x11c
10004196:	f001 b8a9 	b.w	100052ec <_ZN17WaveformGenerator10writePW_LOEj>
1000419a:	4611      	mov	r1, r2
1000419c:	f500 708e 	add.w	r0, r0, #284	@ 0x11c
100041a0:	f001 b89e 	b.w	100052e0 <_ZN17WaveformGenerator12writeFREQ_HIEj>
100041a4:	4611      	mov	r1, r2
100041a6:	f500 708e 	add.w	r0, r0, #284	@ 0x11c
100041aa:	f001 b891 	b.w	100052d0 <_ZN17WaveformGenerator12writeFREQ_LOEj>
100041ae:	4611      	mov	r1, r2
100041b0:	30c8      	adds	r0, #200	@ 0xc8
100041b2:	f7ff b8df 	b.w	10003374 <_ZN17EnvelopeGenerator20writeSUSTAIN_RELEASEEj>
100041b6:	4611      	mov	r1, r2
100041b8:	30c8      	adds	r0, #200	@ 0xc8
100041ba:	f7ff b8c3 	b.w	10003344 <_ZN17EnvelopeGenerator17writeATTACK_DECAYEj>
100041be:	4611      	mov	r1, r2
100041c0:	306c      	adds	r0, #108	@ 0x6c
100041c2:	f001 b821 	b.w	10005208 <_ZN5Voice16writeCONTROL_REGEj>
100041c6:	4611      	mov	r1, r2
100041c8:	306c      	adds	r0, #108	@ 0x6c
100041ca:	f001 b89f 	b.w	1000530c <_ZN17WaveformGenerator10writePW_HIEj>
100041ce:	4611      	mov	r1, r2
100041d0:	306c      	adds	r0, #108	@ 0x6c
100041d2:	f001 b88b 	b.w	100052ec <_ZN17WaveformGenerator10writePW_LOEj>
100041d6:	4611      	mov	r1, r2
100041d8:	306c      	adds	r0, #108	@ 0x6c
100041da:	f001 b881 	b.w	100052e0 <_ZN17WaveformGenerator12writeFREQ_HIEj>
100041de:	4611      	mov	r1, r2
100041e0:	306c      	adds	r0, #108	@ 0x6c
100041e2:	f001 b875 	b.w	100052d0 <_ZN17WaveformGenerator12writeFREQ_LOEj>
100041e6:	4770      	bx	lr

100041e8 <_ZN5SID1622enable_external_filterEb>:
100041e8:	3050      	adds	r0, #80	@ 0x50
100041ea:	f7ff b8f7 	b.w	100033dc <_ZN14ExternalFilter13enable_filterEb>
100041ee:	bf00      	nop

100041f0 <_ZN5SID1623set_sampling_parametersEf15sampling_methodfff>:
100041f0:	e92d 4ff0 	stmdb	sp!, {r4, r5, r6, r7, r8, r9, sl, fp, lr}
100041f4:	ed2d 8b0e 	vpush	{d8-d14}
100041f8:	ee09 3a90 	vmov	s19, r3
100041fc:	1e93      	subs	r3, r2, #2
100041fe:	2b01      	cmp	r3, #1
10004200:	4615      	mov	r5, r2
10004202:	4604      	mov	r4, r0
10004204:	ee08 1a90 	vmov	s17, r1
10004208:	b087      	sub	sp, #28
1000420a:	d92c      	bls.n	10004266 <_ZN5SID1623set_sampling_parametersEf15sampling_methodfff+0x76>
1000420c:	ee88 7aa9 	vdiv.f32	s14, s17, s19
10004210:	eddf 7add 	vldr	s15, [pc, #884]	@ 10004588 <_ZN5SID1623set_sampling_parametersEf15sampling_methodfff+0x398>
10004214:	ee67 7a27 	vmul.f32	s15, s14, s15
10004218:	f884 228c 	strb.w	r2, [r4, #652]	@ 0x28c
1000421c:	ee17 0a90 	vmov	r0, s15
10004220:	f8c4 1284 	str.w	r1, [r4, #644]	@ 0x284
10004224:	f007 f83c 	bl	1000b2a0 <____aeabi_f2d_veneer>
10004228:	2200      	movs	r2, #0
1000422a:	4bd8      	ldr	r3, [pc, #864]	@ (1000458c <_ZN5SID1623set_sampling_parametersEf15sampling_methodfff+0x39c>)
1000422c:	f002 fd98 	bl	10006d60 <__wrap___aeabi_dadd>
10004230:	f002 fe64 	bl	10006efc <__wrap___aeabi_d2iz>
10004234:	2300      	movs	r3, #0
10004236:	f8d4 22b8 	ldr.w	r2, [r4, #696]	@ 0x2b8
1000423a:	e9c4 03a4 	strd	r0, r3, [r4, #656]	@ 0x290
1000423e:	f8a4 329c 	strh.w	r3, [r4, #668]	@ 0x29c
10004242:	b112      	cbz	r2, 1000424a <_ZN5SID1623set_sampling_parametersEf15sampling_methodfff+0x5a>
10004244:	4610      	mov	r0, r2
10004246:	f003 ff6b 	bl	10008120 <_ZdaPv>
1000424a:	f8d4 02bc 	ldr.w	r0, [r4, #700]	@ 0x2bc
1000424e:	b108      	cbz	r0, 10004254 <_ZN5SID1623set_sampling_parametersEf15sampling_methodfff+0x64>
10004250:	f003 ff66 	bl	10008120 <_ZdaPv>
10004254:	2300      	movs	r3, #0
10004256:	e9c4 33ae 	strd	r3, r3, [r4, #696]	@ 0x2b8
1000425a:	2001      	movs	r0, #1
1000425c:	b007      	add	sp, #28
1000425e:	ecbd 8b0e 	vpop	{d8-d14}
10004262:	e8bd 8ff0 	ldmia.w	sp!, {r4, r5, r6, r7, r8, r9, sl, fp, pc}
10004266:	eddf 7aca 	vldr	s15, [pc, #808]	@ 10004590 <_ZN5SID1623set_sampling_parametersEf15sampling_methodfff+0x3a0>
1000426a:	ee68 7aa7 	vmul.f32	s15, s17, s15
1000426e:	ed9f 7ac9 	vldr	s14, [pc, #804]	@ 10004594 <_ZN5SID1623set_sampling_parametersEf15sampling_methodfff+0x3a4>
10004272:	eec7 6aa9 	vdiv.f32	s13, s15, s19
10004276:	eef4 6ac7 	vcmpe.f32	s13, s14
1000427a:	eef1 fa10 	vmrs	APSR_nzcv, fpscr
1000427e:	f280 819f 	bge.w	100045c0 <_ZN5SID1623set_sampling_parametersEf15sampling_methodfff+0x3d0>
10004282:	eddd 7a1e 	vldr	s15, [sp, #120]	@ 0x78
10004286:	eef5 7ac0 	vcmpe.f32	s15, #0.0
1000428a:	eef1 fa10 	vmrs	APSR_nzcv, fpscr
1000428e:	f100 819d 	bmi.w	100045cc <_ZN5SID1623set_sampling_parametersEf15sampling_methodfff+0x3dc>
10004292:	ee17 0a90 	vmov	r0, s15
10004296:	f007 f803 	bl	1000b2a0 <____aeabi_f2d_veneer>
1000429a:	4606      	mov	r6, r0
1000429c:	ee19 0a90 	vmov	r0, s19
100042a0:	460f      	mov	r7, r1
100042a2:	f006 fffd 	bl	1000b2a0 <____aeabi_f2d_veneer>
100042a6:	a3ae      	add	r3, pc, #696	@ (adr r3, 10004560 <_ZN5SID1623set_sampling_parametersEf15sampling_methodfff+0x370>)
100042a8:	e9d3 2300 	ldrd	r2, r3, [r3]
100042ac:	f002 fd80 	bl	10006db0 <__wrap___aeabi_dmul>
100042b0:	2200      	movs	r2, #0
100042b2:	4bb6      	ldr	r3, [pc, #728]	@ (1000458c <_ZN5SID1623set_sampling_parametersEf15sampling_methodfff+0x39c>)
100042b4:	f002 fd7c 	bl	10006db0 <__wrap___aeabi_dmul>
100042b8:	4602      	mov	r2, r0
100042ba:	460b      	mov	r3, r1
100042bc:	4630      	mov	r0, r6
100042be:	4639      	mov	r1, r7
100042c0:	f002 fe8e 	bl	10006fe0 <__wrap___aeabi_dcmpgt>
100042c4:	2800      	cmp	r0, #0
100042c6:	f040 817b 	bne.w	100045c0 <_ZN5SID1623set_sampling_parametersEf15sampling_methodfff+0x3d0>
100042ca:	981f      	ldr	r0, [sp, #124]	@ 0x7c
100042cc:	f006 ffe8 	bl	1000b2a0 <____aeabi_f2d_veneer>
100042d0:	a3a3      	add	r3, pc, #652	@ (adr r3, 10004560 <_ZN5SID1623set_sampling_parametersEf15sampling_methodfff+0x370>)
100042d2:	e9d3 2300 	ldrd	r2, r3, [r3]
100042d6:	f002 fe47 	bl	10006f68 <__wrap___aeabi_dcmplt>
100042da:	4606      	mov	r6, r0
100042dc:	2800      	cmp	r0, #0
100042de:	f040 816f 	bne.w	100045c0 <_ZN5SID1623set_sampling_parametersEf15sampling_methodfff+0x3d0>
100042e2:	eeb7 aa00 	vmov.f32	s20, #112	@ 0x3f800000  1.0
100042e6:	eddd 7a1f 	vldr	s15, [sp, #124]	@ 0x7c
100042ea:	eef4 7aca 	vcmpe.f32	s15, s20
100042ee:	eef1 fa10 	vmrs	APSR_nzcv, fpscr
100042f2:	f300 8165 	bgt.w	100045c0 <_ZN5SID1623set_sampling_parametersEf15sampling_methodfff+0x3d0>
100042f6:	ee88 9aa9 	vdiv.f32	s18, s17, s19
100042fa:	eddf 7aa3 	vldr	s15, [pc, #652]	@ 10004588 <_ZN5SID1623set_sampling_parametersEf15sampling_methodfff+0x398>
100042fe:	ee69 7a27 	vmul.f32	s15, s18, s15
10004302:	edc4 8aa1 	vstr	s17, [r4, #644]	@ 0x284
10004306:	ee17 0a90 	vmov	r0, s15
1000430a:	f884 528c 	strb.w	r5, [r4, #652]	@ 0x28c
1000430e:	f006 ffc7 	bl	1000b2a0 <____aeabi_f2d_veneer>
10004312:	4b9e      	ldr	r3, [pc, #632]	@ (1000458c <_ZN5SID1623set_sampling_parametersEf15sampling_methodfff+0x39c>)
10004314:	2200      	movs	r2, #0
10004316:	f002 fd23 	bl	10006d60 <__wrap___aeabi_dadd>
1000431a:	f002 fdef 	bl	10006efc <__wrap___aeabi_d2iz>
1000431e:	eddd 7a1e 	vldr	s15, [sp, #120]	@ 0x78
10004322:	ee77 7aa7 	vadd.f32	s15, s15, s15
10004326:	ee87 8aa9 	vdiv.f32	s16, s15, s19
1000432a:	ed9f 5a9b 	vldr	s10, [pc, #620]	@ 10004598 <_ZN5SID1623set_sampling_parametersEf15sampling_methodfff+0x3a8>
1000432e:	ee3a 7a48 	vsub.f32	s14, s20, s16
10004332:	2301      	movs	r3, #1
10004334:	eddf 5a99 	vldr	s11, [pc, #612]	@ 1000459c <_ZN5SID1623set_sampling_parametersEf15sampling_methodfff+0x3ac>
10004338:	ed9f 6a99 	vldr	s12, [pc, #612]	@ 100045a0 <_ZN5SID1623set_sampling_parametersEf15sampling_methodfff+0x3b0>
1000433c:	eef0 6a4a 	vmov.f32	s13, s20
10004340:	eef0 ea4a 	vmov.f32	s29, s20
10004344:	ee27 7a05 	vmul.f32	s14, s14, s10
10004348:	e9c4 06a4 	strd	r0, r6, [r4, #656]	@ 0x290
1000434c:	f8a4 629c 	strh.w	r6, [r4, #668]	@ 0x29c
10004350:	ee07 3a90 	vmov	s15, r3
10004354:	eef8 7ae7 	vcvt.f32.s32	s15, s15
10004358:	ee85 5aa7 	vdiv.f32	s10, s11, s15
1000435c:	ee65 7a05 	vmul.f32	s15, s10, s10
10004360:	ee66 6aa7 	vmul.f32	s13, s13, s15
10004364:	ee7e eaa6 	vadd.f32	s29, s29, s13
10004368:	ee6e 7a86 	vmul.f32	s15, s29, s12
1000436c:	eef4 6ae7 	vcmpe.f32	s13, s15
10004370:	eef1 fa10 	vmrs	APSR_nzcv, fpscr
10004374:	f103 0301 	add.w	r3, r3, #1
10004378:	daea      	bge.n	10004350 <_ZN5SID1623set_sampling_parametersEf15sampling_methodfff+0x160>
1000437a:	ee17 0a10 	vmov	r0, s14
1000437e:	f006 ff8f 	bl	1000b2a0 <____aeabi_f2d_veneer>
10004382:	a379      	add	r3, pc, #484	@ (adr r3, 10004568 <_ZN5SID1623set_sampling_parametersEf15sampling_methodfff+0x378>)
10004384:	e9d3 2300 	ldrd	r2, r3, [r3]
10004388:	f002 fd12 	bl	10006db0 <__wrap___aeabi_dmul>
1000438c:	4602      	mov	r2, r0
1000438e:	460b      	mov	r3, r1
10004390:	a177      	add	r1, pc, #476	@ (adr r1, 10004570 <_ZN5SID1623set_sampling_parametersEf15sampling_methodfff+0x380>)
10004392:	e9d1 0100 	ldrd	r0, r1, [r1]
10004396:	f002 fd31 	bl	10006dfc <__wrap___aeabi_ddiv>
1000439a:	2200      	movs	r2, #0
1000439c:	4b7b      	ldr	r3, [pc, #492]	@ (1000458c <_ZN5SID1623set_sampling_parametersEf15sampling_methodfff+0x39c>)
1000439e:	f002 fcdf 	bl	10006d60 <__wrap___aeabi_dadd>
100043a2:	f002 fdab 	bl	10006efc <__wrap___aeabi_d2iz>
100043a6:	1c43      	adds	r3, r0, #1
100043a8:	f023 0301 	bic.w	r3, r3, #1
100043ac:	ee07 3a90 	vmov	s15, r3
100043b0:	eef8 7ae7 	vcvt.f32.s32	s15, s15
100043b4:	ee67 7a89 	vmul.f32	s15, s15, s18
100043b8:	eefd 7ae7 	vcvt.s32.f32	s15, s15
100043bc:	2d02      	cmp	r5, #2
100043be:	ee17 3a90 	vmov	r3, s15
100043c2:	bf0c      	ite	eq
100043c4:	eddf 7a77 	vldreq	s15, [pc, #476]	@ 100045a4 <_ZN5SID1623set_sampling_parametersEf15sampling_methodfff+0x3b4>
100043c8:	eddf 7a77 	vldrne	s15, [pc, #476]	@ 100045a8 <_ZN5SID1623set_sampling_parametersEf15sampling_methodfff+0x3b8>
100043cc:	eec7 7a89 	vdiv.f32	s15, s15, s18
100043d0:	3301      	adds	r3, #1
100043d2:	f043 0301 	orr.w	r3, r3, #1
100043d6:	ee17 0a90 	vmov	r0, s15
100043da:	f8c4 32a0 	str.w	r3, [r4, #672]	@ 0x2a0
100043de:	9301      	str	r3, [sp, #4]
100043e0:	f003 fbc6 	bl	10007b70 <__wrap_logf>
100043e4:	f006 ff5c 	bl	1000b2a0 <____aeabi_f2d_veneer>
100043e8:	a363      	add	r3, pc, #396	@ (adr r3, 10004578 <_ZN5SID1623set_sampling_parametersEf15sampling_methodfff+0x388>)
100043ea:	e9d3 2300 	ldrd	r2, r3, [r3]
100043ee:	f002 fd05 	bl	10006dfc <__wrap___aeabi_ddiv>
100043f2:	f002 fc57 	bl	10006ca4 <__wrap_ceil>
100043f6:	f002 fd81 	bl	10006efc <__wrap___aeabi_d2iz>
100043fa:	2201      	movs	r2, #1
100043fc:	f8d4 32bc 	ldr.w	r3, [r4, #700]	@ 0x2bc
10004400:	4082      	lsls	r2, r0
10004402:	f8c4 22a4 	str.w	r2, [r4, #676]	@ 0x2a4
10004406:	b13b      	cbz	r3, 10004418 <_ZN5SID1623set_sampling_parametersEf15sampling_methodfff+0x228>
10004408:	4618      	mov	r0, r3
1000440a:	f003 fe89 	bl	10008120 <_ZdaPv>
1000440e:	f8d4 32a0 	ldr.w	r3, [r4, #672]	@ 0x2a0
10004412:	f8d4 22a4 	ldr.w	r2, [r4, #676]	@ 0x2a4
10004416:	9301      	str	r3, [sp, #4]
10004418:	9b01      	ldr	r3, [sp, #4]
1000441a:	4964      	ldr	r1, [pc, #400]	@ (100045ac <_ZN5SID1623set_sampling_parametersEf15sampling_methodfff+0x3bc>)
1000441c:	fb02 f303 	mul.w	r3, r2, r3
10004420:	428b      	cmp	r3, r1
10004422:	bf8c      	ite	hi
10004424:	f04f 30ff 	movhi.w	r0, #4294967295	@ 0xffffffff
10004428:	0058      	lslls	r0, r3, #1
1000442a:	9200      	str	r2, [sp, #0]
1000442c:	f003 fe76 	bl	1000811c <_Znaj>
10004430:	9a00      	ldr	r2, [sp, #0]
10004432:	f8c4 02bc 	str.w	r0, [r4, #700]	@ 0x2bc
10004436:	2a00      	cmp	r2, #0
10004438:	f340 8119 	ble.w	1000466e <_ZN5SID1623set_sampling_parametersEf15sampling_methodfff+0x47e>
1000443c:	9b01      	ldr	r3, [sp, #4]
1000443e:	eb03 73d3 	add.w	r3, r3, r3, lsr #31
10004442:	105b      	asrs	r3, r3, #1
10004444:	f1c3 0c00 	rsb	ip, r3, #0
10004448:	4563      	cmp	r3, ip
1000444a:	f2c0 8110 	blt.w	1000466e <_ZN5SID1623set_sampling_parametersEf15sampling_methodfff+0x47e>
1000444e:	a74c      	add	r7, pc, #304	@ (adr r7, 10004580 <_ZN5SID1623set_sampling_parametersEf15sampling_methodfff+0x390>)
10004450:	e9d7 6700 	ldrd	r6, r7, [r7]
10004454:	ee06 2a10 	vmov	s12, r2
10004458:	eeb7 ea00 	vmov.f32	s28, #112	@ 0x3f800000  1.0
1000445c:	ed9f 7a4e 	vldr	s14, [pc, #312]	@ 10004598 <_ZN5SID1623set_sampling_parametersEf15sampling_methodfff+0x3a8>
10004460:	eddf 7a53 	vldr	s15, [pc, #332]	@ 100045b0 <_ZN5SID1623set_sampling_parametersEf15sampling_methodfff+0x3c0>
10004464:	eef8 cac6 	vcvt.f32.s32	s25, s12
10004468:	ee38 ea0e 	vadd.f32	s28, s16, s28
1000446c:	ed9d 6a1f 	vldr	s12, [sp, #124]	@ 0x7c
10004470:	eec9 6aa8 	vdiv.f32	s13, s19, s17
10004474:	ee66 7a27 	vmul.f32	s15, s12, s15
10004478:	eef6 ba00 	vmov.f32	s23, #96	@ 0x3f000000  0.5
1000447c:	ee2e ea07 	vmul.f32	s28, s28, s14
10004480:	4699      	mov	r9, r3
10004482:	ee67 7aa6 	vmul.f32	s15, s15, s13
10004486:	ee2e ea2b 	vmul.f32	s28, s28, s23
1000448a:	ee06 9a10 	vmov	s12, r9
1000448e:	ee67 7a8e 	vmul.f32	s15, s15, s28
10004492:	ebc3 73c3 	rsb	r3, r3, r3, lsl #31
10004496:	eb00 0343 	add.w	r3, r0, r3, lsl #1
1000449a:	9302      	str	r3, [sp, #8]
1000449c:	2300      	movs	r3, #0
1000449e:	ed9f ba45 	vldr	s22, [pc, #276]	@ 100045b4 <_ZN5SID1623set_sampling_parametersEf15sampling_methodfff+0x3c4>
100044a2:	ed9f ca45 	vldr	s24, [pc, #276]	@ 100045b8 <_ZN5SID1623set_sampling_parametersEf15sampling_methodfff+0x3c8>
100044a6:	eddf 9a3e 	vldr	s19, [pc, #248]	@ 100045a0 <_ZN5SID1623set_sampling_parametersEf15sampling_methodfff+0x3b0>
100044aa:	eef8 aac6 	vcvt.f32.s32	s21, s12
100044ae:	ee87 aa87 	vdiv.f32	s20, s15, s14
100044b2:	f04f 0a00 	mov.w	sl, #0
100044b6:	e9cd 2c03 	strd	r2, ip, [sp, #12]
100044ba:	f8df b0d0 	ldr.w	fp, [pc, #208]	@ 1000458c <_ZN5SID1623set_sampling_parametersEf15sampling_methodfff+0x39c>
100044be:	9300      	str	r3, [sp, #0]
100044c0:	f109 0801 	add.w	r8, r9, #1
100044c4:	9405      	str	r4, [sp, #20]
100044c6:	eddd 7a00 	vldr	s15, [sp]
100044ca:	eef8 7ae7 	vcvt.f32.s32	s15, s15
100044ce:	9b02      	ldr	r3, [sp, #8]
100044d0:	eeb7 8a00 	vmov.f32	s16, #112	@ 0x3f800000  1.0
100044d4:	eec7 8aac 	vdiv.f32	s17, s15, s25
100044d8:	9c04      	ldr	r4, [sp, #16]
100044da:	eb03 0549 	add.w	r5, r3, r9, lsl #1
100044de:	e01b      	b.n	10004518 <_ZN5SID1623set_sampling_parametersEf15sampling_methodfff+0x328>
100044e0:	ee1d 0a10 	vmov	r0, s26
100044e4:	f003 fcac 	bl	10007e40 <__wrap_sinf>
100044e8:	ee07 0a10 	vmov	s14, r0
100044ec:	eec7 7a0d 	vdiv.f32	s15, s14, s26
100044f0:	ee67 7a8a 	vmul.f32	s15, s15, s20
100044f4:	ee67 7aad 	vmul.f32	s15, s15, s27
100044f8:	ee17 0a90 	vmov	r0, s15
100044fc:	f006 fed0 	bl	1000b2a0 <____aeabi_f2d_veneer>
10004500:	4652      	mov	r2, sl
10004502:	465b      	mov	r3, fp
10004504:	f002 fc2c 	bl	10006d60 <__wrap___aeabi_dadd>
10004508:	f002 fcf8 	bl	10006efc <__wrap___aeabi_d2iz>
1000450c:	3401      	adds	r4, #1
1000450e:	4544      	cmp	r4, r8
10004510:	8028      	strh	r0, [r5, #0]
10004512:	f000 80a2 	beq.w	1000465a <_ZN5SID1623set_sampling_parametersEf15sampling_methodfff+0x46a>
10004516:	3502      	adds	r5, #2
10004518:	ee07 4a90 	vmov	s15, r4
1000451c:	eef8 7ae7 	vcvt.f32.s32	s15, s15
10004520:	ee77 7ae8 	vsub.f32	s15, s15, s17
10004524:	ee87 7aaa 	vdiv.f32	s14, s15, s21
10004528:	eef0 6ac7 	vabs.f32	s13, s14
1000452c:	eef4 6ac8 	vcmpe.f32	s13, s16
10004530:	ee6e 7a27 	vmul.f32	s15, s28, s15
10004534:	eef1 fa10 	vmrs	APSR_nzcv, fpscr
10004538:	ee87 da89 	vdiv.f32	s26, s15, s18
1000453c:	d966      	bls.n	1000460c <_ZN5SID1623set_sampling_parametersEf15sampling_methodfff+0x41c>
1000453e:	eef0 da4b 	vmov.f32	s27, s22
10004542:	eef0 7acd 	vabs.f32	s15, s26
10004546:	ee17 0a90 	vmov	r0, s15
1000454a:	f006 fea9 	bl	1000b2a0 <____aeabi_f2d_veneer>
1000454e:	4632      	mov	r2, r6
10004550:	463b      	mov	r3, r7
10004552:	f002 fd31 	bl	10006fb8 <__wrap___aeabi_dcmpge>
10004556:	2800      	cmp	r0, #0
10004558:	d1c2      	bne.n	100044e0 <_ZN5SID1623set_sampling_parametersEf15sampling_methodfff+0x2f0>
1000455a:	ee6a 7a2d 	vmul.f32	s15, s20, s27
1000455e:	e7cb      	b.n	100044f8 <_ZN5SID1623set_sampling_parametersEf15sampling_methodfff+0x308>
10004560:	cccccccd 	.word	0xcccccccd
10004564:	3feccccc 	.word	0x3feccccc
10004568:	147ae148 	.word	0x147ae148
1000456c:	400247ae 	.word	0x400247ae
10004570:	53333333 	.word	0x53333333
10004574:	4056184b 	.word	0x4056184b
10004578:	fefa39ef 	.word	0xfefa39ef
1000457c:	3fe62e42 	.word	0x3fe62e42
10004580:	a0b5ed8d 	.word	0xa0b5ed8d
10004584:	3eb0c6f7 	.word	0x3eb0c6f7
10004588:	47800000 	.word	0x47800000
1000458c:	3fe00000 	.word	0x3fe00000
10004590:	42fa0000 	.word	0x42fa0000
10004594:	46800000 	.word	0x46800000
10004598:	40490fdb 	.word	0x40490fdb
1000459c:	409a822d 	.word	0x409a822d
100045a0:	358637bd 	.word	0x358637bd
100045a4:	438e8000 	.word	0x438e8000
100045a8:	47491100 	.word	0x47491100
100045ac:	3ffffffc 	.word	0x3ffffffc
100045b0:	47000000 	.word	0x47000000
100045b4:	00000000 	.word	0x00000000
100045b8:	411a822d 	.word	0x411a822d
100045bc:	471c4000 	.word	0x471c4000
100045c0:	2000      	movs	r0, #0
100045c2:	b007      	add	sp, #28
100045c4:	ecbd 8b0e 	vpop	{d8-d14}
100045c8:	e8bd 8ff0 	ldmia.w	sp!, {r4, r5, r6, r7, r8, r9, sl, fp, pc}
100045cc:	ed5f 7a05 	vldr	s15, [pc, #-20]	@ 100045bc <_ZN5SID1623set_sampling_parametersEf15sampling_methodfff+0x3cc>
100045d0:	eec7 7aa9 	vdiv.f32	s15, s15, s19
100045d4:	ee17 0a90 	vmov	r0, s15
100045d8:	f006 fe62 	bl	1000b2a0 <____aeabi_f2d_veneer>
100045dc:	a32a      	add	r3, pc, #168	@ (adr r3, 10004688 <_ZN5SID1623set_sampling_parametersEf15sampling_methodfff+0x498>)
100045de:	e9d3 2300 	ldrd	r2, r3, [r3]
100045e2:	f002 fce9 	bl	10006fb8 <__wrap___aeabi_dcmpge>
100045e6:	2800      	cmp	r0, #0
100045e8:	d045      	beq.n	10004676 <_ZN5SID1623set_sampling_parametersEf15sampling_methodfff+0x486>
100045ea:	ee19 0a90 	vmov	r0, s19
100045ee:	f006 fe57 	bl	1000b2a0 <____aeabi_f2d_veneer>
100045f2:	a325      	add	r3, pc, #148	@ (adr r3, 10004688 <_ZN5SID1623set_sampling_parametersEf15sampling_methodfff+0x498>)
100045f4:	e9d3 2300 	ldrd	r2, r3, [r3]
100045f8:	f002 fbda 	bl	10006db0 <__wrap___aeabi_dmul>
100045fc:	2200      	movs	r2, #0
100045fe:	4b20      	ldr	r3, [pc, #128]	@ (10004680 <_ZN5SID1623set_sampling_parametersEf15sampling_methodfff+0x490>)
10004600:	f002 fbd6 	bl	10006db0 <__wrap___aeabi_dmul>
10004604:	f002 fc48 	bl	10006e98 <__wrap___aeabi_d2f>
10004608:	901e      	str	r0, [sp, #120]	@ 0x78
1000460a:	e65e      	b.n	100042ca <_ZN5SID1623set_sampling_parametersEf15sampling_methodfff+0xda>
1000460c:	eef0 7a48 	vmov.f32	s15, s16
10004610:	eee7 7a47 	vfms.f32	s15, s14, s14
10004614:	eef1 5ae7 	vsqrt.f32	s11, s15
10004618:	eef7 6a00 	vmov.f32	s13, #112	@ 0x3f800000  1.0
1000461c:	ee65 5a8c 	vmul.f32	s11, s11, s24
10004620:	2301      	movs	r3, #1
10004622:	eeb0 6a66 	vmov.f32	s12, s13
10004626:	ee65 5aab 	vmul.f32	s11, s11, s23
1000462a:	ee07 3a90 	vmov	s15, r3
1000462e:	eef8 7ae7 	vcvt.f32.s32	s15, s15
10004632:	ee85 7aa7 	vdiv.f32	s14, s11, s15
10004636:	ee27 7a07 	vmul.f32	s14, s14, s14
1000463a:	ee66 6a87 	vmul.f32	s13, s13, s14
1000463e:	ee36 6a26 	vadd.f32	s12, s12, s13
10004642:	ee66 7a29 	vmul.f32	s15, s12, s19
10004646:	eef4 6ae7 	vcmpe.f32	s13, s15
1000464a:	eef1 fa10 	vmrs	APSR_nzcv, fpscr
1000464e:	f103 0301 	add.w	r3, r3, #1
10004652:	daea      	bge.n	1000462a <_ZN5SID1623set_sampling_parametersEf15sampling_methodfff+0x43a>
10004654:	eec6 da2e 	vdiv.f32	s27, s12, s29
10004658:	e773      	b.n	10004542 <_ZN5SID1623set_sampling_parametersEf15sampling_methodfff+0x352>
1000465a:	9a01      	ldr	r2, [sp, #4]
1000465c:	9b00      	ldr	r3, [sp, #0]
1000465e:	4491      	add	r9, r2
10004660:	9a03      	ldr	r2, [sp, #12]
10004662:	3301      	adds	r3, #1
10004664:	4293      	cmp	r3, r2
10004666:	9300      	str	r3, [sp, #0]
10004668:	f47f af2d 	bne.w	100044c6 <_ZN5SID1623set_sampling_parametersEf15sampling_methodfff+0x2d6>
1000466c:	9c05      	ldr	r4, [sp, #20]
1000466e:	2300      	movs	r3, #0
10004670:	f8c4 3298 	str.w	r3, [r4, #664]	@ 0x298
10004674:	e5f1      	b.n	1000425a <_ZN5SID1623set_sampling_parametersEf15sampling_methodfff+0x6a>
10004676:	eddf 7a03 	vldr	s15, [pc, #12]	@ 10004684 <_ZN5SID1623set_sampling_parametersEf15sampling_methodfff+0x494>
1000467a:	edcd 7a1e 	vstr	s15, [sp, #120]	@ 0x78
1000467e:	e624      	b.n	100042ca <_ZN5SID1623set_sampling_parametersEf15sampling_methodfff+0xda>
10004680:	3fe00000 	.word	0x3fe00000
10004684:	469c4000 	.word	0x469c4000
10004688:	cccccccd 	.word	0xcccccccd
1000468c:	3feccccc 	.word	0x3feccccc

10004690 <_ZN5SID165clockEi>:
10004690:	e92d 4ff0 	stmdb	sp!, {r4, r5, r6, r7, r8, r9, sl, fp, lr}
10004694:	4603      	mov	r3, r0
10004696:	4604      	mov	r4, r0
10004698:	4606      	mov	r6, r0
1000469a:	f500 7a04 	add.w	sl, r0, #528	@ 0x210
1000469e:	f04f 0c00 	mov.w	ip, #0
100046a2:	f647 78ff 	movw	r8, #32767	@ 0x7fff
100046a6:	f04f 0e01 	mov.w	lr, #1
100046aa:	4608      	mov	r0, r1
100046ac:	f8df 90c8 	ldr.w	r9, [pc, #200]	@ 10004778 <_ZN5SID165clockEi+0xe8>
100046b0:	b089      	sub	sp, #36	@ 0x24
100046b2:	f8d3 20ec 	ldr.w	r2, [r3, #236]	@ 0xec
100046b6:	b18a      	cbz	r2, 100046dc <_ZN5SID165clockEi+0x4c>
100046b8:	f893 210d 	ldrb.w	r2, [r3, #269]	@ 0x10d
100046bc:	2a00      	cmp	r2, #0
100046be:	f040 8389 	bne.w	10004dd4 <_ZN5SID165clockEi+0x744>
100046c2:	f8c3 20f0 	str.w	r2, [r3, #240]	@ 0xf0
100046c6:	f8d3 10f8 	ldr.w	r1, [r3, #248]	@ 0xf8
100046ca:	f883 210c 	strb.w	r2, [r3, #268]	@ 0x10c
100046ce:	4a29      	ldr	r2, [pc, #164]	@ (10004774 <_ZN5SID165clockEi+0xe4>)
100046d0:	f852 2021 	ldr.w	r2, [r2, r1, lsl #2]
100046d4:	f8c3 20cc 	str.w	r2, [r3, #204]	@ 0xcc
100046d8:	f8c3 c0ec 	str.w	ip, [r3, #236]	@ 0xec
100046dc:	e9d3 2532 	ldrd	r2, r5, [r3, #200]	@ 0xc8
100046e0:	1aaf      	subs	r7, r5, r2
100046e2:	eb07 0108 	add.w	r1, r7, r8
100046e6:	2f00      	cmp	r7, #0
100046e8:	bfd8      	it	le
100046ea:	460f      	movle	r7, r1
100046ec:	2800      	cmp	r0, #0
100046ee:	d050      	beq.n	10004792 <_ZN5SID165clockEi+0x102>
100046f0:	4693      	mov	fp, r2
100046f2:	4621      	mov	r1, r4
100046f4:	4602      	mov	r2, r0
100046f6:	465c      	mov	r4, fp
100046f8:	468b      	mov	fp, r1
100046fa:	9001      	str	r0, [sp, #4]
100046fc:	f8d3 10dc 	ldr.w	r1, [r3, #220]	@ 0xdc
10004700:	4297      	cmp	r7, r2
10004702:	f8c3 10e0 	str.w	r1, [r3, #224]	@ 0xe0
10004706:	f300 8319 	bgt.w	10004d3c <_ZN5SID165clockEi+0x6ac>
1000470a:	f893 410c 	ldrb.w	r4, [r3, #268]	@ 0x10c
1000470e:	1bd2      	subs	r2, r2, r7
10004710:	2c00      	cmp	r4, #0
10004712:	f040 81f9 	bne.w	10004b08 <_ZN5SID165clockEi+0x478>
10004716:	f8c3 40d0 	str.w	r4, [r3, #208]	@ 0xd0
1000471a:	f8d3 40f0 	ldr.w	r4, [r3, #240]	@ 0xf0
1000471e:	bb94      	cbnz	r4, 10004786 <_ZN5SID165clockEi+0xf6>
10004720:	1c4c      	adds	r4, r1, #1
10004722:	b2e4      	uxtb	r4, r4
10004724:	2cff      	cmp	r4, #255	@ 0xff
10004726:	f8c3 40dc 	str.w	r4, [r3, #220]	@ 0xdc
1000472a:	f000 8315 	beq.w	10004d58 <_ZN5SID165clockEi+0x6c8>
1000472e:	2c1a      	cmp	r4, #26
10004730:	f200 8320 	bhi.w	10004d74 <_ZN5SID165clockEi+0x6e4>
10004734:	2c1a      	cmp	r4, #26
10004736:	d821      	bhi.n	1000477c <_ZN5SID165clockEi+0xec>
10004738:	e8df f014 	tbh	[pc, r4, lsl #1]
1000473c:	002001da 	.word	0x002001da
10004740:	00200020 	.word	0x00200020
10004744:	00200020 	.word	0x00200020
10004748:	002001d6 	.word	0x002001d6
1000474c:	00200020 	.word	0x00200020
10004750:	00200020 	.word	0x00200020
10004754:	00200020 	.word	0x00200020
10004758:	002001d2 	.word	0x002001d2
1000475c:	00200020 	.word	0x00200020
10004760:	00200020 	.word	0x00200020
10004764:	00200020 	.word	0x00200020
10004768:	00200020 	.word	0x00200020
1000476c:	00200020 	.word	0x00200020
10004770:	01c7      	.short	0x01c7
10004772:	bf00      	nop
10004774:	20001160 	.word	0x20001160
10004778:	20001120 	.word	0x20001120
1000477c:	f8d3 10d8 	ldr.w	r1, [r3, #216]	@ 0xd8
10004780:	2900      	cmp	r1, #0
10004782:	f040 8503 	bne.w	1000518c <_ZN5SID165clockEi+0xafc>
10004786:	462f      	mov	r7, r5
10004788:	2400      	movs	r4, #0
1000478a:	2a00      	cmp	r2, #0
1000478c:	d1b6      	bne.n	100046fc <_ZN5SID165clockEi+0x6c>
1000478e:	465c      	mov	r4, fp
10004790:	9801      	ldr	r0, [sp, #4]
10004792:	f8c3 20c8 	str.w	r2, [r3, #200]	@ 0xc8
10004796:	33b0      	adds	r3, #176	@ 0xb0
10004798:	4553      	cmp	r3, sl
1000479a:	d18a      	bne.n	100046b2 <_ZN5SID165clockEi+0x22>
1000479c:	4683      	mov	fp, r0
1000479e:	4630      	mov	r0, r6
100047a0:	f1bb 0f00 	cmp.w	fp, #0
100047a4:	f000 80b4 	beq.w	10004910 <_ZN5SID165clockEi+0x280>
100047a8:	f8d6 31d0 	ldr.w	r3, [r6, #464]	@ 0x1d0
100047ac:	465f      	mov	r7, fp
100047ae:	4698      	mov	r8, r3
100047b0:	f8d6 c070 	ldr.w	ip, [r6, #112]	@ 0x70
100047b4:	f8d6 9120 	ldr.w	r9, [r6, #288]	@ 0x120
100047b8:	9407      	str	r4, [sp, #28]
100047ba:	e9cd c905 	strd	ip, r9, [sp, #20]
100047be:	9b05      	ldr	r3, [sp, #20]
100047c0:	6c99      	ldr	r1, [r3, #72]	@ 0x48
100047c2:	2900      	cmp	r1, #0
100047c4:	f000 8296 	beq.w	10004cf4 <_ZN5SID165clockEi+0x664>
100047c8:	6fc2      	ldr	r2, [r0, #124]	@ 0x7c
100047ca:	2a00      	cmp	r2, #0
100047cc:	f000 8292 	beq.w	10004cf4 <_ZN5SID165clockEi+0x664>
100047d0:	6f44      	ldr	r4, [r0, #116]	@ 0x74
100047d2:	f414 0f00 	tst.w	r4, #8388608	@ 0x800000
100047d6:	bf0c      	ite	eq
100047d8:	f44f 0300 	moveq.w	r3, #8388608	@ 0x800000
100047dc:	f04f 7380 	movne.w	r3, #16777216	@ 0x1000000
100047e0:	1b1b      	subs	r3, r3, r4
100047e2:	fbb3 fcf2 	udiv	ip, r3, r2
100047e6:	fb02 331c 	mls	r3, r2, ip, r3
100047ea:	b10b      	cbz	r3, 100047f0 <_ZN5SID165clockEi+0x160>
100047ec:	f10c 0c01 	add.w	ip, ip, #1
100047f0:	45bc      	cmp	ip, r7
100047f2:	bfa8      	it	ge
100047f4:	46bc      	movge	ip, r7
100047f6:	9b06      	ldr	r3, [sp, #24]
100047f8:	6c9a      	ldr	r2, [r3, #72]	@ 0x48
100047fa:	b1aa      	cbz	r2, 10004828 <_ZN5SID165clockEi+0x198>
100047fc:	f8d0 512c 	ldr.w	r5, [r0, #300]	@ 0x12c
10004800:	b195      	cbz	r5, 10004828 <_ZN5SID165clockEi+0x198>
10004802:	f8d0 4124 	ldr.w	r4, [r0, #292]	@ 0x124
10004806:	f414 0f00 	tst.w	r4, #8388608	@ 0x800000
1000480a:	bf0c      	ite	eq
1000480c:	f44f 0300 	moveq.w	r3, #8388608	@ 0x800000
10004810:	f04f 7380 	movne.w	r3, #16777216	@ 0x1000000
10004814:	1b1b      	subs	r3, r3, r4
10004816:	fbb3 f4f5 	udiv	r4, r3, r5
1000481a:	fb05 3314 	mls	r3, r5, r4, r3
1000481e:	b103      	cbz	r3, 10004822 <_ZN5SID165clockEi+0x192>
10004820:	3401      	adds	r4, #1
10004822:	45a4      	cmp	ip, r4
10004824:	bfa8      	it	ge
10004826:	46a4      	movge	ip, r4
10004828:	f8d8 5048 	ldr.w	r5, [r8, #72]	@ 0x48
1000482c:	b1bd      	cbz	r5, 1000485e <_ZN5SID165clockEi+0x1ce>
1000482e:	f8d0 41dc 	ldr.w	r4, [r0, #476]	@ 0x1dc
10004832:	b1a4      	cbz	r4, 1000485e <_ZN5SID165clockEi+0x1ce>
10004834:	f8d0 31d4 	ldr.w	r3, [r0, #468]	@ 0x1d4
10004838:	f413 0f00 	tst.w	r3, #8388608	@ 0x800000
1000483c:	bf0c      	ite	eq
1000483e:	f44f 0e00 	moveq.w	lr, #8388608	@ 0x800000
10004842:	f04f 7e80 	movne.w	lr, #16777216	@ 0x1000000
10004846:	ebae 0303 	sub.w	r3, lr, r3
1000484a:	fbb3 fef4 	udiv	lr, r3, r4
1000484e:	fb04 331e 	mls	r3, r4, lr, r3
10004852:	b10b      	cbz	r3, 10004858 <_ZN5SID165clockEi+0x1c8>
10004854:	f10e 0e01 	add.w	lr, lr, #1
10004858:	45f4      	cmp	ip, lr
1000485a:	bfa8      	it	ge
1000485c:	46f4      	movge	ip, lr
1000485e:	4604      	mov	r4, r0
10004860:	4646      	mov	r6, r8
10004862:	e9cd 7102 	strd	r7, r1, [sp, #8]
10004866:	9204      	str	r2, [sp, #16]
10004868:	f8d4 30ac 	ldr.w	r3, [r4, #172]	@ 0xac
1000486c:	2b00      	cmp	r3, #0
1000486e:	f000 8179 	beq.w	10004b64 <_ZN5SID165clockEi+0x4d4>
10004872:	f8d4 3088 	ldr.w	r3, [r4, #136]	@ 0x88
10004876:	b19b      	cbz	r3, 100048a0 <_ZN5SID165clockEi+0x210>
10004878:	eba3 030c 	sub.w	r3, r3, ip
1000487c:	2b00      	cmp	r3, #0
1000487e:	f8c4 3088 	str.w	r3, [r4, #136]	@ 0x88
10004882:	dc0d      	bgt.n	100048a0 <_ZN5SID165clockEi+0x210>
10004884:	2300      	movs	r3, #0
10004886:	4fb4      	ldr	r7, [pc, #720]	@ (10004b58 <_ZN5SID165clockEi+0x4c8>)
10004888:	e9c4 7321 	strd	r7, r3, [r4, #132]	@ 0x84
1000488c:	f44f 637f 	mov.w	r3, #4080	@ 0xff0
10004890:	f8a4 3096 	strh.w	r3, [r4, #150]	@ 0x96
10004894:	f8b4 3094 	ldrh.w	r3, [r4, #148]	@ 0x94
10004898:	f443 637f 	orr.w	r3, r3, #4080	@ 0xff0
1000489c:	f8a4 3098 	strh.w	r3, [r4, #152]	@ 0x98
100048a0:	f640 73ff 	movw	r3, #4095	@ 0xfff
100048a4:	f8a4 309c 	strh.w	r3, [r4, #156]	@ 0x9c
100048a8:	34b0      	adds	r4, #176	@ 0xb0
100048aa:	4554      	cmp	r4, sl
100048ac:	d1dc      	bne.n	10004868 <_ZN5SID165clockEi+0x1d8>
100048ae:	e9dd 7102 	ldrd	r7, r1, [sp, #8]
100048b2:	f890 3078 	ldrb.w	r3, [r0, #120]	@ 0x78
100048b6:	46b0      	mov	r8, r6
100048b8:	9a04      	ldr	r2, [sp, #16]
100048ba:	b14b      	cbz	r3, 100048d0 <_ZN5SID165clockEi+0x240>
100048bc:	b141      	cbz	r1, 100048d0 <_ZN5SID165clockEi+0x240>
100048be:	f8d0 30b4 	ldr.w	r3, [r0, #180]	@ 0xb4
100048c2:	b113      	cbz	r3, 100048ca <_ZN5SID165clockEi+0x23a>
100048c4:	6ec3      	ldr	r3, [r0, #108]	@ 0x6c
100048c6:	7b1b      	ldrb	r3, [r3, #12]
100048c8:	b913      	cbnz	r3, 100048d0 <_ZN5SID165clockEi+0x240>
100048ca:	2100      	movs	r1, #0
100048cc:	9b05      	ldr	r3, [sp, #20]
100048ce:	6099      	str	r1, [r3, #8]
100048d0:	f890 3128 	ldrb.w	r3, [r0, #296]	@ 0x128
100048d4:	b153      	cbz	r3, 100048ec <_ZN5SID165clockEi+0x25c>
100048d6:	b14a      	cbz	r2, 100048ec <_ZN5SID165clockEi+0x25c>
100048d8:	f8d0 3164 	ldr.w	r3, [r0, #356]	@ 0x164
100048dc:	b11b      	cbz	r3, 100048e6 <_ZN5SID165clockEi+0x256>
100048de:	f8d0 311c 	ldr.w	r3, [r0, #284]	@ 0x11c
100048e2:	7b1b      	ldrb	r3, [r3, #12]
100048e4:	b913      	cbnz	r3, 100048ec <_ZN5SID165clockEi+0x25c>
100048e6:	2200      	movs	r2, #0
100048e8:	9b06      	ldr	r3, [sp, #24]
100048ea:	609a      	str	r2, [r3, #8]
100048ec:	f890 31d8 	ldrb.w	r3, [r0, #472]	@ 0x1d8
100048f0:	b14b      	cbz	r3, 10004906 <_ZN5SID165clockEi+0x276>
100048f2:	b145      	cbz	r5, 10004906 <_ZN5SID165clockEi+0x276>
100048f4:	f8d0 3214 	ldr.w	r3, [r0, #532]	@ 0x214
100048f8:	b11b      	cbz	r3, 10004902 <_ZN5SID165clockEi+0x272>
100048fa:	f8d0 31cc 	ldr.w	r3, [r0, #460]	@ 0x1cc
100048fe:	7b1b      	ldrb	r3, [r3, #12]
10004900:	b90b      	cbnz	r3, 10004906 <_ZN5SID165clockEi+0x276>
10004902:	f8c8 3008 	str.w	r3, [r8, #8]
10004906:	ebb7 070c 	subs.w	r7, r7, ip
1000490a:	f47f af58 	bne.w	100047be <_ZN5SID165clockEi+0x12e>
1000490e:	9c07      	ldr	r4, [sp, #28]
10004910:	f8d4 20a0 	ldr.w	r2, [r4, #160]	@ 0xa0
10004914:	2a00      	cmp	r2, #0
10004916:	f000 81ff 	beq.w	10004d18 <_ZN5SID165clockEi+0x688>
1000491a:	f012 0503 	ands.w	r5, r2, #3
1000491e:	f8b4 1098 	ldrh.w	r1, [r4, #152]	@ 0x98
10004922:	f040 822e 	bne.w	10004d82 <_ZN5SID165clockEi+0x6f2>
10004926:	f8b4 309c 	ldrh.w	r3, [r4, #156]	@ 0x9c
1000492a:	f8b4 509a 	ldrh.w	r5, [r4, #154]	@ 0x9a
1000492e:	432b      	orrs	r3, r5
10004930:	400b      	ands	r3, r1
10004932:	f3c3 030b 	ubfx	r3, r3, #0, #12
10004936:	f8c4 30b8 	str.w	r3, [r4, #184]	@ 0xb8
1000493a:	f8c4 30a8 	str.w	r3, [r4, #168]	@ 0xa8
1000493e:	2a08      	cmp	r2, #8
10004940:	d931      	bls.n	100049a6 <_ZN5SID165clockEi+0x316>
10004942:	f8d4 20ac 	ldr.w	r2, [r4, #172]	@ 0xac
10004946:	bb72      	cbnz	r2, 100049a6 <_ZN5SID165clockEi+0x316>
10004948:	025a      	lsls	r2, r3, #9
1000494a:	0219      	lsls	r1, r3, #8
1000494c:	f401 2180 	and.w	r1, r1, #262144	@ 0x40000
10004950:	f402 1280 	and.w	r2, r2, #1048576	@ 0x100000
10004954:	430a      	orrs	r2, r1
10004956:	f3c3 1100 	ubfx	r1, r3, #4, #1
1000495a:	430a      	orrs	r2, r1
1000495c:	0159      	lsls	r1, r3, #5
1000495e:	f401 4180 	and.w	r1, r1, #16384	@ 0x4000
10004962:	430a      	orrs	r2, r1
10004964:	00d9      	lsls	r1, r3, #3
10004966:	f401 6100 	and.w	r1, r1, #2048	@ 0x800
1000496a:	430a      	orrs	r2, r1
1000496c:	0099      	lsls	r1, r3, #2
1000496e:	f401 7100 	and.w	r1, r1, #512	@ 0x200
10004972:	430a      	orrs	r2, r1
10004974:	0859      	lsrs	r1, r3, #1
10004976:	f001 0120 	and.w	r1, r1, #32
1000497a:	430a      	orrs	r2, r1
1000497c:	08d9      	lsrs	r1, r3, #3
1000497e:	f001 0104 	and.w	r1, r1, #4
10004982:	430a      	orrs	r2, r1
10004984:	f8b4 1096 	ldrh.w	r1, [r4, #150]	@ 0x96
10004988:	400b      	ands	r3, r1
1000498a:	4974      	ldr	r1, [pc, #464]	@ (10004b5c <_ZN5SID165clockEi+0x4cc>)
1000498c:	f8a4 3096 	strh.w	r3, [r4, #150]	@ 0x96
10004990:	430a      	orrs	r2, r1
10004992:	f8d4 1084 	ldr.w	r1, [r4, #132]	@ 0x84
10004996:	4011      	ands	r1, r2
10004998:	f8b4 2094 	ldrh.w	r2, [r4, #148]	@ 0x94
1000499c:	f8c4 1084 	str.w	r1, [r4, #132]	@ 0x84
100049a0:	4313      	orrs	r3, r2
100049a2:	f8a4 3098 	strh.w	r3, [r4, #152]	@ 0x98
100049a6:	34b0      	adds	r4, #176	@ 0xb0
100049a8:	4554      	cmp	r4, sl
100049aa:	d1b1      	bne.n	10004910 <_ZN5SID165clockEi+0x280>
100049ac:	4b6c      	ldr	r3, [pc, #432]	@ (10004b60 <_ZN5SID165clockEi+0x4d0>)
100049ae:	f8d0 20bc 	ldr.w	r2, [r0, #188]	@ 0xbc
100049b2:	f9b0 60dc 	ldrsh.w	r6, [r0, #220]	@ 0xdc
100049b6:	429a      	cmp	r2, r3
100049b8:	f890 30c0 	ldrb.w	r3, [r0, #192]	@ 0xc0
100049bc:	f8d0 20b8 	ldr.w	r2, [r0, #184]	@ 0xb8
100049c0:	bfc8      	it	gt
100049c2:	f8c0 6118 	strgt.w	r6, [r0, #280]	@ 0x118
100049c6:	2b00      	cmp	r3, #0
100049c8:	f000 824b 	beq.w	10004e62 <_ZN5SID165clockEi+0x7d2>
100049cc:	b212      	sxth	r2, r2
100049ce:	4964      	ldr	r1, [pc, #400]	@ (10004b60 <_ZN5SID165clockEi+0x4d0>)
100049d0:	f8d0 316c 	ldr.w	r3, [r0, #364]	@ 0x16c
100049d4:	f9b0 518c 	ldrsh.w	r5, [r0, #396]	@ 0x18c
100049d8:	428b      	cmp	r3, r1
100049da:	f890 1170 	ldrb.w	r1, [r0, #368]	@ 0x170
100049de:	f8d0 9110 	ldr.w	r9, [r0, #272]	@ 0x110
100049e2:	f8d0 8114 	ldr.w	r8, [r0, #276]	@ 0x114
100049e6:	f8d0 3168 	ldr.w	r3, [r0, #360]	@ 0x168
100049ea:	bfc8      	it	gt
100049ec:	f8c0 51c8 	strgt.w	r5, [r0, #456]	@ 0x1c8
100049f0:	2900      	cmp	r1, #0
100049f2:	f000 8228 	beq.w	10004e46 <_ZN5SID165clockEi+0x7b6>
100049f6:	b21b      	sxth	r3, r3
100049f8:	4f59      	ldr	r7, [pc, #356]	@ (10004b60 <_ZN5SID165clockEi+0x4d0>)
100049fa:	f8d0 121c 	ldr.w	r1, [r0, #540]	@ 0x21c
100049fe:	f9b0 423c 	ldrsh.w	r4, [r0, #572]	@ 0x23c
10004a02:	42b9      	cmp	r1, r7
10004a04:	f890 7220 	ldrb.w	r7, [r0, #544]	@ 0x220
10004a08:	f8d0 1218 	ldr.w	r1, [r0, #536]	@ 0x218
10004a0c:	bfc8      	it	gt
10004a0e:	f8c0 4278 	strgt.w	r4, [r0, #632]	@ 0x278
10004a12:	e9d0 ec70 	ldrd	lr, ip, [r0, #448]	@ 0x1c0
10004a16:	2f00      	cmp	r7, #0
10004a18:	f000 8231 	beq.w	10004e7e <_ZN5SID165clockEi+0x7ee>
10004a1c:	b209      	sxth	r1, r1
10004a1e:	f8d0 72ac 	ldr.w	r7, [r0, #684]	@ 0x2ac
10004a22:	f017 0f02 	tst.w	r7, #2
10004a26:	bf04      	itt	eq
10004a28:	eba2 0209 	subeq.w	r2, r2, r9
10004a2c:	fb06 8602 	mlaeq	r6, r6, r2, r8
10004a30:	f8d0 82b0 	ldr.w	r8, [r0, #688]	@ 0x2b0
10004a34:	bf1c      	itt	ne
10004a36:	113a      	asrne	r2, r7, #4
10004a38:	4356      	mulne	r6, r2
10004a3a:	f018 0f02 	tst.w	r8, #2
10004a3e:	bf0b      	itete	eq
10004a40:	eba3 030e 	subeq.w	r3, r3, lr
10004a44:	ea4f 1228 	movne.w	r2, r8, asr #4
10004a48:	fb05 c203 	mlaeq	r2, r5, r3, ip
10004a4c:	436a      	mulne	r2, r5
10004a4e:	f8d0 52b4 	ldr.w	r5, [r0, #692]	@ 0x2b4
10004a52:	07ab      	lsls	r3, r5, #30
10004a54:	f100 81c6 	bmi.w	10004de4 <_ZN5SID165clockEi+0x754>
10004a58:	f8d0 3270 	ldr.w	r3, [r0, #624]	@ 0x270
10004a5c:	1acb      	subs	r3, r1, r3
10004a5e:	f8d0 1274 	ldr.w	r1, [r0, #628]	@ 0x274
10004a62:	fb04 1303 	mla	r3, r4, r3, r1
10004a66:	f017 0101 	ands.w	r1, r7, #1
10004a6a:	bf1c      	itt	ne
10004a6c:	2600      	movne	r6, #0
10004a6e:	f027 0103 	bicne.w	r1, r7, #3
10004a72:	f018 0f01 	tst.w	r8, #1
10004a76:	f040 81b9 	bne.w	10004dec <_ZN5SID165clockEi+0x75c>
10004a7a:	f8c0 12a8 	str.w	r1, [r0, #680]	@ 0x2a8
10004a7e:	07ec      	lsls	r4, r5, #31
10004a80:	d505      	bpl.n	10004a8e <_ZN5SID165clockEi+0x3fe>
10004a82:	f025 0303 	bic.w	r3, r5, #3
10004a86:	440b      	add	r3, r1
10004a88:	f8c0 32a8 	str.w	r3, [r0, #680]	@ 0x2a8
10004a8c:	2300      	movs	r3, #0
10004a8e:	6905      	ldr	r5, [r0, #16]
10004a90:	f8d0 1288 	ldr.w	r1, [r0, #648]	@ 0x288
10004a94:	68c4      	ldr	r4, [r0, #12]
10004a96:	b11d      	cbz	r5, 10004aa0 <_ZN5SID165clockEi+0x410>
10004a98:	f014 0f04 	tst.w	r4, #4
10004a9c:	bf08      	it	eq
10004a9e:	2300      	moveq	r3, #0
10004aa0:	3c01      	subs	r4, #1
10004aa2:	2c0e      	cmp	r4, #14
10004aa4:	f200 8375 	bhi.w	10005192 <_ZN5SID165clockEi+0xb02>
10004aa8:	e8df f014 	tbh	[pc, r4, lsl #1]
10004aac:	02aa02a4 	.word	0x02aa02a4
10004ab0:	029201fd 	.word	0x029201fd
10004ab4:	029e0298 	.word	0x029e0298
10004ab8:	02b602b0 	.word	0x02b602b0
10004abc:	02c202bc 	.word	0x02c202bc
10004ac0:	02d502cf 	.word	0x02d502cf
10004ac4:	02ea02db 	.word	0x02ea02db
10004ac8:	02c8      	.short	0x02c8
10004aca:	2108      	movs	r1, #8
10004acc:	f893 410d 	ldrb.w	r4, [r3, #269]	@ 0x10d
10004ad0:	2c03      	cmp	r4, #3
10004ad2:	e9c3 1c35 	strd	r1, ip, [r3, #212]	@ 0xd4
10004ad6:	f47f ae56 	bne.w	10004786 <_ZN5SID165clockEi+0xf6>
10004ada:	f8c3 e0f0 	str.w	lr, [r3, #240]	@ 0xf0
10004ade:	e652      	b.n	10004786 <_ZN5SID165clockEi+0xf6>
10004ae0:	2110      	movs	r1, #16
10004ae2:	f893 410d 	ldrb.w	r4, [r3, #269]	@ 0x10d
10004ae6:	e7f3      	b.n	10004ad0 <_ZN5SID165clockEi+0x440>
10004ae8:	211e      	movs	r1, #30
10004aea:	f893 410d 	ldrb.w	r4, [r3, #269]	@ 0x10d
10004aee:	e7ef      	b.n	10004ad0 <_ZN5SID165clockEi+0x440>
10004af0:	f04f 0103 	mov.w	r1, #3
10004af4:	f883 110d 	strb.w	r1, [r3, #269]	@ 0x10d
10004af8:	2102      	movs	r1, #2
10004afa:	e9c3 ec35 	strd	lr, ip, [r3, #212]	@ 0xd4
10004afe:	f8c3 10ec 	str.w	r1, [r3, #236]	@ 0xec
10004b02:	f8c3 e0f0 	str.w	lr, [r3, #240]	@ 0xf0
10004b06:	e63e      	b.n	10004786 <_ZN5SID165clockEi+0xf6>
10004b08:	f8d3 70d0 	ldr.w	r7, [r3, #208]	@ 0xd0
10004b0c:	f8d3 00d4 	ldr.w	r0, [r3, #212]	@ 0xd4
10004b10:	3701      	adds	r7, #1
10004b12:	4287      	cmp	r7, r0
10004b14:	f8c3 70d0 	str.w	r7, [r3, #208]	@ 0xd0
10004b18:	f47f ae35 	bne.w	10004786 <_ZN5SID165clockEi+0xf6>
10004b1c:	f8d3 70f0 	ldr.w	r7, [r3, #240]	@ 0xf0
10004b20:	f8c3 c0d0 	str.w	ip, [r3, #208]	@ 0xd0
10004b24:	2f00      	cmp	r7, #0
10004b26:	f47f ae2e 	bne.w	10004786 <_ZN5SID165clockEi+0xf6>
10004b2a:	2c01      	cmp	r4, #1
10004b2c:	f000 80e9 	beq.w	10004d02 <_ZN5SID165clockEi+0x672>
10004b30:	2c02      	cmp	r4, #2
10004b32:	f000 80e1 	beq.w	10004cf8 <_ZN5SID165clockEi+0x668>
10004b36:	460c      	mov	r4, r1
10004b38:	2c1a      	cmp	r4, #26
10004b3a:	f67f adfb 	bls.w	10004734 <_ZN5SID165clockEi+0xa4>
10004b3e:	2c5d      	cmp	r4, #93	@ 0x5d
10004b40:	f000 811b 	beq.w	10004d7a <_ZN5SID165clockEi+0x6ea>
10004b44:	2cff      	cmp	r4, #255	@ 0xff
10004b46:	f000 8111 	beq.w	10004d6c <_ZN5SID165clockEi+0x6dc>
10004b4a:	2c36      	cmp	r4, #54	@ 0x36
10004b4c:	f47f ae16 	bne.w	1000477c <_ZN5SID165clockEi+0xec>
10004b50:	2104      	movs	r1, #4
10004b52:	f893 410d 	ldrb.w	r4, [r3, #269]	@ 0x10d
10004b56:	e7bb      	b.n	10004ad0 <_ZN5SID165clockEi+0x440>
10004b58:	007fffff 	.word	0x007fffff
10004b5c:	ffebb5da 	.word	0xffebb5da
10004b60:	00013fbf 	.word	0x00013fbf
10004b64:	6fe1      	ldr	r1, [r4, #124]	@ 0x7c
10004b66:	6f63      	ldr	r3, [r4, #116]	@ 0x74
10004b68:	fb01 f10c 	mul.w	r1, r1, ip
10004b6c:	18cf      	adds	r7, r1, r3
10004b6e:	f027 4e7f 	bic.w	lr, r7, #4278190080	@ 0xff000000
10004b72:	ea2e 0303 	bic.w	r3, lr, r3
10004b76:	0ddb      	lsrs	r3, r3, #23
10004b78:	f884 3078 	strb.w	r3, [r4, #120]	@ 0x78
10004b7c:	f8c4 e074 	str.w	lr, [r4, #116]	@ 0x74
10004b80:	2900      	cmp	r1, #0
10004b82:	f000 80ae 	beq.w	10004ce2 <_ZN5SID165clockEi+0x652>
10004b86:	f417 2f00 	tst.w	r7, #524288	@ 0x80000
10004b8a:	f8cd c004 	str.w	ip, [sp, #4]
10004b8e:	f44f 1780 	mov.w	r7, #1048576	@ 0x100000
10004b92:	d14f      	bne.n	10004c34 <_ZN5SID165clockEi+0x5a4>
10004b94:	e096      	b.n	10004cc4 <_ZN5SID165clockEi+0x634>
10004b96:	f5b1 2f00 	cmp.w	r1, #524288	@ 0x80000
10004b9a:	ebae 0301 	sub.w	r3, lr, r1
10004b9e:	d803      	bhi.n	10004ba8 <_ZN5SID165clockEi+0x518>
10004ba0:	f413 2300 	ands.w	r3, r3, #524288	@ 0x80000
10004ba4:	f040 809b 	bne.w	10004cde <_ZN5SID165clockEi+0x64e>
10004ba8:	460f      	mov	r7, r1
10004baa:	2100      	movs	r1, #0
10004bac:	f8d4 2084 	ldr.w	r2, [r4, #132]	@ 0x84
10004bb0:	f8b4 c094 	ldrh.w	ip, [r4, #148]	@ 0x94
10004bb4:	0d93      	lsrs	r3, r2, #22
10004bb6:	ea83 4352 	eor.w	r3, r3, r2, lsr #17
10004bba:	f003 0301 	and.w	r3, r3, #1
10004bbe:	ea43 0342 	orr.w	r3, r3, r2, lsl #1
10004bc2:	f3c3 0316 	ubfx	r3, r3, #0, #23
10004bc6:	005a      	lsls	r2, r3, #1
10004bc8:	ea4f 08c3 	mov.w	r8, r3, lsl #3
10004bcc:	f008 0820 	and.w	r8, r8, #32
10004bd0:	f002 0240 	and.w	r2, r2, #64	@ 0x40
10004bd4:	ea4f 1903 	mov.w	r9, r3, lsl #4
10004bd8:	ea42 0208 	orr.w	r2, r2, r8
10004bdc:	f009 0910 	and.w	r9, r9, #16
10004be0:	ea4f 2863 	mov.w	r8, r3, asr #9
10004be4:	ea42 0209 	orr.w	r2, r2, r9
10004be8:	f408 6800 	and.w	r8, r8, #2048	@ 0x800
10004bec:	ea4f 2923 	mov.w	r9, r3, asr #8
10004bf0:	ea42 0208 	orr.w	r2, r2, r8
10004bf4:	f409 6980 	and.w	r9, r9, #1024	@ 0x400
10004bf8:	ea4f 1863 	mov.w	r8, r3, asr #5
10004bfc:	ea42 0209 	orr.w	r2, r2, r9
10004c00:	f408 7800 	and.w	r8, r8, #512	@ 0x200
10004c04:	ea4f 09e3 	mov.w	r9, r3, asr #3
10004c08:	ea42 0208 	orr.w	r2, r2, r8
10004c0c:	f409 7980 	and.w	r9, r9, #256	@ 0x100
10004c10:	ea4f 08a3 	mov.w	r8, r3, asr #2
10004c14:	ea42 0909 	orr.w	r9, r2, r9
10004c18:	f008 0880 	and.w	r8, r8, #128	@ 0x80
10004c1c:	ea49 0808 	orr.w	r8, r9, r8
10004c20:	ea48 0c0c 	orr.w	ip, r8, ip
10004c24:	f8c4 3084 	str.w	r3, [r4, #132]	@ 0x84
10004c28:	f8a4 8096 	strh.w	r8, [r4, #150]	@ 0x96
10004c2c:	f8a4 c098 	strh.w	ip, [r4, #152]	@ 0x98
10004c30:	2900      	cmp	r1, #0
10004c32:	d054      	beq.n	10004cde <_ZN5SID165clockEi+0x64e>
10004c34:	42b9      	cmp	r1, r7
10004c36:	d3ae      	bcc.n	10004b96 <_ZN5SID165clockEi+0x506>
10004c38:	1bc9      	subs	r1, r1, r7
10004c3a:	e7b7      	b.n	10004bac <_ZN5SID165clockEi+0x51c>
10004c3c:	1bc9      	subs	r1, r1, r7
10004c3e:	f8d4 2084 	ldr.w	r2, [r4, #132]	@ 0x84
10004c42:	f8b4 c094 	ldrh.w	ip, [r4, #148]	@ 0x94
10004c46:	0c53      	lsrs	r3, r2, #17
10004c48:	ea83 5392 	eor.w	r3, r3, r2, lsr #22
10004c4c:	f003 0301 	and.w	r3, r3, #1
10004c50:	ea43 0342 	orr.w	r3, r3, r2, lsl #1
10004c54:	f3c3 0316 	ubfx	r3, r3, #0, #23
10004c58:	005a      	lsls	r2, r3, #1
10004c5a:	ea4f 08c3 	mov.w	r8, r3, lsl #3
10004c5e:	f008 0820 	and.w	r8, r8, #32
10004c62:	f002 0240 	and.w	r2, r2, #64	@ 0x40
10004c66:	ea4f 1903 	mov.w	r9, r3, lsl #4
10004c6a:	ea42 0208 	orr.w	r2, r2, r8
10004c6e:	f009 0910 	and.w	r9, r9, #16
10004c72:	ea4f 2863 	mov.w	r8, r3, asr #9
10004c76:	ea42 0209 	orr.w	r2, r2, r9
10004c7a:	f408 6800 	and.w	r8, r8, #2048	@ 0x800
10004c7e:	ea4f 2923 	mov.w	r9, r3, asr #8
10004c82:	ea42 0208 	orr.w	r2, r2, r8
10004c86:	f409 6980 	and.w	r9, r9, #1024	@ 0x400
10004c8a:	ea4f 1863 	mov.w	r8, r3, asr #5
10004c8e:	ea42 0209 	orr.w	r2, r2, r9
10004c92:	f408 7800 	and.w	r8, r8, #512	@ 0x200
10004c96:	ea4f 09e3 	mov.w	r9, r3, asr #3
10004c9a:	ea42 0208 	orr.w	r2, r2, r8
10004c9e:	f409 7980 	and.w	r9, r9, #256	@ 0x100
10004ca2:	ea4f 08a3 	mov.w	r8, r3, asr #2
10004ca6:	ea42 0909 	orr.w	r9, r2, r9
10004caa:	f008 0880 	and.w	r8, r8, #128	@ 0x80
10004cae:	ea49 0808 	orr.w	r8, r9, r8
10004cb2:	ea48 0c0c 	orr.w	ip, r8, ip
10004cb6:	f8c4 3084 	str.w	r3, [r4, #132]	@ 0x84
10004cba:	f8a4 8096 	strh.w	r8, [r4, #150]	@ 0x96
10004cbe:	f8a4 c098 	strh.w	ip, [r4, #152]	@ 0x98
10004cc2:	b161      	cbz	r1, 10004cde <_ZN5SID165clockEi+0x64e>
10004cc4:	42b9      	cmp	r1, r7
10004cc6:	d2b9      	bcs.n	10004c3c <_ZN5SID165clockEi+0x5ac>
10004cc8:	f5b1 2f00 	cmp.w	r1, #524288	@ 0x80000
10004ccc:	ebae 0301 	sub.w	r3, lr, r1
10004cd0:	d905      	bls.n	10004cde <_ZN5SID165clockEi+0x64e>
10004cd2:	f413 2300 	ands.w	r3, r3, #524288	@ 0x80000
10004cd6:	d102      	bne.n	10004cde <_ZN5SID165clockEi+0x64e>
10004cd8:	460f      	mov	r7, r1
10004cda:	4619      	mov	r1, r3
10004cdc:	e7af      	b.n	10004c3e <_ZN5SID165clockEi+0x5ae>
10004cde:	f8dd c004 	ldr.w	ip, [sp, #4]
10004ce2:	f8d4 3080 	ldr.w	r3, [r4, #128]	@ 0x80
10004ce6:	ebb3 3f1e 	cmp.w	r3, lr, lsr #12
10004cea:	f640 73ff 	movw	r3, #4095	@ 0xfff
10004cee:	bf88      	it	hi
10004cf0:	2300      	movhi	r3, #0
10004cf2:	e5d7      	b.n	100048a4 <_ZN5SID165clockEi+0x214>
10004cf4:	46bc      	mov	ip, r7
10004cf6:	e57e      	b.n	100047f6 <_ZN5SID165clockEi+0x166>
10004cf8:	3901      	subs	r1, #1
10004cfa:	b2cc      	uxtb	r4, r1
10004cfc:	f8c3 40dc 	str.w	r4, [r3, #220]	@ 0xdc
10004d00:	e71a      	b.n	10004b38 <_ZN5SID165clockEi+0x4a8>
10004d02:	f8d3 4100 	ldr.w	r4, [r3, #256]	@ 0x100
10004d06:	f859 4024 	ldr.w	r4, [r9, r4, lsl #2]
10004d0a:	42a1      	cmp	r1, r4
10004d0c:	f43f af14 	beq.w	10004b38 <_ZN5SID165clockEi+0x4a8>
10004d10:	1e4c      	subs	r4, r1, #1
10004d12:	f8c3 40dc 	str.w	r4, [r3, #220]	@ 0xdc
10004d16:	e70f      	b.n	10004b38 <_ZN5SID165clockEi+0x4a8>
10004d18:	f8d4 30bc 	ldr.w	r3, [r4, #188]	@ 0xbc
10004d1c:	2b00      	cmp	r3, #0
10004d1e:	f43f ae42 	beq.w	100049a6 <_ZN5SID165clockEi+0x316>
10004d22:	eba3 030b 	sub.w	r3, r3, fp
10004d26:	4293      	cmp	r3, r2
10004d28:	bfd4      	ite	le
10004d2a:	e9c4 222e 	strdle	r2, r2, [r4, #184]	@ 0xb8
10004d2e:	f8c4 30bc 	strgt.w	r3, [r4, #188]	@ 0xbc
10004d32:	34b0      	adds	r4, #176	@ 0xb0
10004d34:	4554      	cmp	r4, sl
10004d36:	f47f adeb 	bne.w	10004910 <_ZN5SID165clockEi+0x280>
10004d3a:	e637      	b.n	100049ac <_ZN5SID165clockEi+0x31c>
10004d3c:	4659      	mov	r1, fp
10004d3e:	eb04 0b02 	add.w	fp, r4, r2
10004d42:	f41b 4f00 	tst.w	fp, #32768	@ 0x8000
10004d46:	bf1c      	itt	ne
10004d48:	f10b 0b01 	addne.w	fp, fp, #1
10004d4c:	f3cb 0b0e 	ubfxne	fp, fp, #0, #15
10004d50:	460c      	mov	r4, r1
10004d52:	465a      	mov	r2, fp
10004d54:	9801      	ldr	r0, [sp, #4]
10004d56:	e51c      	b.n	10004792 <_ZN5SID165clockEi+0x102>
10004d58:	2101      	movs	r1, #1
10004d5a:	f8d3 40fc 	ldr.w	r4, [r3, #252]	@ 0xfc
10004d5e:	f883 110c 	strb.w	r1, [r3, #268]	@ 0x10c
10004d62:	49c3      	ldr	r1, [pc, #780]	@ (10005070 <_ZN5SID165clockEi+0x9e0>)
10004d64:	f851 5024 	ldr.w	r5, [r1, r4, lsl #2]
10004d68:	f8c3 50cc 	str.w	r5, [r3, #204]	@ 0xcc
10004d6c:	2101      	movs	r1, #1
10004d6e:	f893 410d 	ldrb.w	r4, [r3, #269]	@ 0x10d
10004d72:	e6ad      	b.n	10004ad0 <_ZN5SID165clockEi+0x440>
10004d74:	2c5d      	cmp	r4, #93	@ 0x5d
10004d76:	f47f aee8 	bne.w	10004b4a <_ZN5SID165clockEi+0x4ba>
10004d7a:	2102      	movs	r1, #2
10004d7c:	f893 410d 	ldrb.w	r4, [r3, #269]	@ 0x10d
10004d80:	e6a6      	b.n	10004ad0 <_ZN5SID165clockEi+0x440>
10004d82:	6ee3      	ldr	r3, [r4, #108]	@ 0x6c
10004d84:	2d01      	cmp	r5, #1
10004d86:	689e      	ldr	r6, [r3, #8]
10004d88:	f8d4 3090 	ldr.w	r3, [r4, #144]	@ 0x90
10004d8c:	ea23 0306 	bic.w	r3, r3, r6
10004d90:	6f66      	ldr	r6, [r4, #116]	@ 0x74
10004d92:	ea83 0306 	eor.w	r3, r3, r6
10004d96:	d03a      	beq.n	10004e0e <_ZN5SID165clockEi+0x77e>
10004d98:	2d02      	cmp	r5, #2
10004d9a:	ea4f 3313 	mov.w	r3, r3, lsr #12
10004d9e:	d03f      	beq.n	10004e20 <_ZN5SID165clockEi+0x790>
10004da0:	f8b4 509c 	ldrh.w	r5, [r4, #156]	@ 0x9c
10004da4:	f8b4 709a 	ldrh.w	r7, [r4, #154]	@ 0x9a
10004da8:	433d      	orrs	r5, r7
10004daa:	400d      	ands	r5, r1
10004dac:	f8d4 10c4 	ldr.w	r1, [r4, #196]	@ 0xc4
10004db0:	5ccb      	ldrb	r3, [r1, r3]
10004db2:	ea05 1303 	and.w	r3, r5, r3, lsl #4
10004db6:	f8c4 30b8 	str.w	r3, [r4, #184]	@ 0xb8
10004dba:	f8c4 30a8 	str.w	r3, [r4, #168]	@ 0xa8
10004dbe:	f894 10c0 	ldrb.w	r1, [r4, #192]	@ 0xc0
10004dc2:	2900      	cmp	r1, #0
10004dc4:	f47f adbb 	bne.w	1000493e <_ZN5SID165clockEi+0x2ae>
10004dc8:	49aa      	ldr	r1, [pc, #680]	@ (10005074 <_ZN5SID165clockEi+0x9e4>)
10004dca:	ea41 3103 	orr.w	r1, r1, r3, lsl #12
10004dce:	4031      	ands	r1, r6
10004dd0:	6761      	str	r1, [r4, #116]	@ 0x74
10004dd2:	e5b4      	b.n	1000493e <_ZN5SID165clockEi+0x2ae>
10004dd4:	2a02      	cmp	r2, #2
10004dd6:	d010      	beq.n	10004dfa <_ZN5SID165clockEi+0x76a>
10004dd8:	2a03      	cmp	r2, #3
10004dda:	bf04      	itt	eq
10004ddc:	2201      	moveq	r2, #1
10004dde:	f8c3 20f0 	streq.w	r2, [r3, #240]	@ 0xf0
10004de2:	e479      	b.n	100046d8 <_ZN5SID165clockEi+0x48>
10004de4:	112b      	asrs	r3, r5, #4
10004de6:	fb04 f303 	mul.w	r3, r4, r3
10004dea:	e63c      	b.n	10004a66 <_ZN5SID165clockEi+0x3d6>
10004dec:	f028 0803 	bic.w	r8, r8, #3
10004df0:	4441      	add	r1, r8
10004df2:	2200      	movs	r2, #0
10004df4:	f8c0 12a8 	str.w	r1, [r0, #680]	@ 0x2a8
10004df8:	e641      	b.n	10004a7e <_ZN5SID165clockEi+0x3ee>
10004dfa:	f8d3 1104 	ldr.w	r1, [r3, #260]	@ 0x104
10004dfe:	f883 210c 	strb.w	r2, [r3, #268]	@ 0x10c
10004e02:	4a9b      	ldr	r2, [pc, #620]	@ (10005070 <_ZN5SID165clockEi+0x9e0>)
10004e04:	f852 2021 	ldr.w	r2, [r2, r1, lsl #2]
10004e08:	f8c3 20cc 	str.w	r2, [r3, #204]	@ 0xcc
10004e0c:	e464      	b.n	100046d8 <_ZN5SID165clockEi+0x48>
10004e0e:	f640 77fe 	movw	r7, #4094	@ 0xffe
10004e12:	f343 55c0 	sbfx	r5, r3, #23, #1
10004e16:	f36f 030b 	bfc	r3, #0, #12
10004e1a:	406b      	eors	r3, r5
10004e1c:	ea07 23d3 	and.w	r3, r7, r3, lsr #11
10004e20:	f8b4 509a 	ldrh.w	r5, [r4, #154]	@ 0x9a
10004e24:	f8b4 709c 	ldrh.w	r7, [r4, #156]	@ 0x9c
10004e28:	433d      	orrs	r5, r7
10004e2a:	4029      	ands	r1, r5
10004e2c:	400b      	ands	r3, r1
10004e2e:	0791      	lsls	r1, r2, #30
10004e30:	f8c4 30b8 	str.w	r3, [r4, #184]	@ 0xb8
10004e34:	f8c4 30a8 	str.w	r3, [r4, #168]	@ 0xa8
10004e38:	f57f ad81 	bpl.w	1000493e <_ZN5SID165clockEi+0x2ae>
10004e3c:	f012 0f0d 	tst.w	r2, #13
10004e40:	f43f ad7d 	beq.w	1000493e <_ZN5SID165clockEi+0x2ae>
10004e44:	e7bb      	b.n	10004dbe <_ZN5SID165clockEi+0x72e>
10004e46:	4c8c      	ldr	r4, [pc, #560]	@ (10005078 <_ZN5SID165clockEi+0x9e8>)
10004e48:	f003 013f 	and.w	r1, r3, #63	@ 0x3f
10004e4c:	5c61      	ldrb	r1, [r4, r1]
10004e4e:	4f8b      	ldr	r7, [pc, #556]	@ (1000507c <_ZN5SID165clockEi+0x9ec>)
10004e50:	f3c3 1485 	ubfx	r4, r3, #6, #6
10004e54:	5d3c      	ldrb	r4, [r7, r4]
10004e56:	3990      	subs	r1, #144	@ 0x90
10004e58:	f403 637c 	and.w	r3, r3, #4032	@ 0xfc0
10004e5c:	440b      	add	r3, r1
10004e5e:	4423      	add	r3, r4
10004e60:	e5ca      	b.n	100049f8 <_ZN5SID165clockEi+0x368>
10004e62:	4c85      	ldr	r4, [pc, #532]	@ (10005078 <_ZN5SID165clockEi+0x9e8>)
10004e64:	f002 033f 	and.w	r3, r2, #63	@ 0x3f
10004e68:	5ce3      	ldrb	r3, [r4, r3]
10004e6a:	f3c2 1185 	ubfx	r1, r2, #6, #6
10004e6e:	3b90      	subs	r3, #144	@ 0x90
10004e70:	f402 627c 	and.w	r2, r2, #4032	@ 0xfc0
10004e74:	4413      	add	r3, r2
10004e76:	4a81      	ldr	r2, [pc, #516]	@ (1000507c <_ZN5SID165clockEi+0x9ec>)
10004e78:	5c52      	ldrb	r2, [r2, r1]
10004e7a:	441a      	add	r2, r3
10004e7c:	e5a7      	b.n	100049ce <_ZN5SID165clockEi+0x33e>
10004e7e:	f8df a1f8 	ldr.w	sl, [pc, #504]	@ 10005078 <_ZN5SID165clockEi+0x9e8>
10004e82:	f001 073f 	and.w	r7, r1, #63	@ 0x3f
10004e86:	f81a 7007 	ldrb.w	r7, [sl, r7]
10004e8a:	f3c1 1a85 	ubfx	sl, r1, #6, #6
10004e8e:	3f90      	subs	r7, #144	@ 0x90
10004e90:	9701      	str	r7, [sp, #4]
10004e92:	4f7a      	ldr	r7, [pc, #488]	@ (1000507c <_ZN5SID165clockEi+0x9ec>)
10004e94:	f401 617c 	and.w	r1, r1, #4032	@ 0xfc0
10004e98:	f817 a00a 	ldrb.w	sl, [r7, sl]
10004e9c:	9f01      	ldr	r7, [sp, #4]
10004e9e:	440f      	add	r7, r1
10004ea0:	eb0a 0107 	add.w	r1, sl, r7
10004ea4:	e5bb      	b.n	10004a1e <_ZN5SID165clockEi+0x38e>
10004ea6:	4432      	add	r2, r6
10004ea8:	4419      	add	r1, r3
10004eaa:	ea4f 18e2 	mov.w	r8, r2, asr #7
10004eae:	11cc      	asrs	r4, r1, #7
10004eb0:	62c4      	str	r4, [r0, #44]	@ 0x2c
10004eb2:	f1bb 0f00 	cmp.w	fp, #0
10004eb6:	d025      	beq.n	10004f04 <_ZN5SID165clockEi+0x874>
10004eb8:	e9d0 3108 	ldrd	r3, r1, [r0, #32]
10004ebc:	7802      	ldrb	r2, [r0, #0]
10004ebe:	f8d0 a03c 	ldr.w	sl, [r0, #60]	@ 0x3c
10004ec2:	6a86      	ldr	r6, [r0, #40]	@ 0x28
10004ec4:	2a00      	cmp	r2, #0
10004ec6:	f000 80e1 	beq.w	1000508c <_ZN5SID165clockEi+0x9fc>
10004eca:	465f      	mov	r7, fp
10004ecc:	2508      	movs	r5, #8
10004ece:	f8d0 c038 	ldr.w	ip, [r0, #56]	@ 0x38
10004ed2:	42bd      	cmp	r5, r7
10004ed4:	bfa8      	it	ge
10004ed6:	463d      	movge	r5, r7
10004ed8:	fb05 f20c 	mul.w	r2, r5, ip
10004edc:	1192      	asrs	r2, r2, #6
10004ede:	fb02 f303 	mul.w	r3, r2, r3
10004ee2:	fb01 f202 	mul.w	r2, r1, r2
10004ee6:	eba1 31a3 	sub.w	r1, r1, r3, asr #14
10004eea:	fb01 f30a 	mul.w	r3, r1, sl
10004eee:	eba6 36a2 	sub.w	r6, r6, r2, asr #14
10004ef2:	ebc6 23a3 	rsb	r3, r6, r3, asr #10
10004ef6:	1b7f      	subs	r7, r7, r5
10004ef8:	eba3 0308 	sub.w	r3, r3, r8
10004efc:	d1e9      	bne.n	10004ed2 <_ZN5SID165clockEi+0x842>
10004efe:	e9c0 1609 	strd	r1, r6, [r0, #36]	@ 0x24
10004f02:	6203      	str	r3, [r0, #32]
10004f04:	6943      	ldr	r3, [r0, #20]
10004f06:	3b01      	subs	r3, #1
10004f08:	2b06      	cmp	r3, #6
10004f0a:	d80b      	bhi.n	10004f24 <_ZN5SID165clockEi+0x894>
10004f0c:	e8df f003 	tbb	[pc, r3]
10004f10:	585b5255 	.word	0x585b5255
10004f14:	384d      	.short	0x384d
10004f16:	04          	.byte	0x04
10004f17:	00          	.byte	0x00
10004f18:	e9d0 2309 	ldrd	r2, r3, [r0, #36]	@ 0x24
10004f1c:	4413      	add	r3, r2
10004f1e:	6a02      	ldr	r2, [r0, #32]
10004f20:	4413      	add	r3, r2
10004f22:	441c      	add	r4, r3
10004f24:	e9d0 3206 	ldrd	r3, r2, [r0, #24]
10004f28:	4414      	add	r4, r2
10004f2a:	fb03 f504 	mul.w	r5, r3, r4
10004f2e:	f890 3050 	ldrb.w	r3, [r0, #80]	@ 0x50
10004f32:	b393      	cbz	r3, 10004f9a <_ZN5SID165clockEi+0x90a>
10004f34:	f1bb 0f00 	cmp.w	fp, #0
10004f38:	d01f      	beq.n	10004f7a <_ZN5SID165clockEi+0x8ea>
10004f3a:	2308      	movs	r3, #8
10004f3c:	f8d0 e064 	ldr.w	lr, [r0, #100]	@ 0x64
10004f40:	6d81      	ldr	r1, [r0, #88]	@ 0x58
10004f42:	f8d0 c068 	ldr.w	ip, [r0, #104]	@ 0x68
10004f46:	6dc6      	ldr	r6, [r0, #92]	@ 0x5c
10004f48:	455b      	cmp	r3, fp
10004f4a:	bfa8      	it	ge
10004f4c:	465b      	movge	r3, fp
10004f4e:	fb0e f203 	mul.w	r2, lr, r3
10004f52:	fb0c f403 	mul.w	r4, ip, r3
10004f56:	1b8f      	subs	r7, r1, r6
10004f58:	eba5 0801 	sub.w	r8, r5, r1
10004f5c:	1212      	asrs	r2, r2, #8
10004f5e:	fb08 f202 	mul.w	r2, r8, r2
10004f62:	fb07 f404 	mul.w	r4, r7, r4
10004f66:	ebbb 0b03 	subs.w	fp, fp, r3
10004f6a:	eb01 3122 	add.w	r1, r1, r2, asr #12
10004f6e:	eb06 5624 	add.w	r6, r6, r4, asr #20
10004f72:	d1e9      	bne.n	10004f48 <_ZN5SID165clockEi+0x8b8>
10004f74:	e9c0 1616 	strd	r1, r6, [r0, #88]	@ 0x58
10004f78:	6607      	str	r7, [r0, #96]	@ 0x60
10004f7a:	b009      	add	sp, #36	@ 0x24
10004f7c:	e8bd 8ff0 	ldmia.w	sp!, {r4, r5, r6, r7, r8, r9, sl, fp, pc}
10004f80:	e9d0 2308 	ldrd	r2, r3, [r0, #32]
10004f84:	4413      	add	r3, r2
10004f86:	441c      	add	r4, r3
10004f88:	e9d0 3206 	ldrd	r3, r2, [r0, #24]
10004f8c:	4414      	add	r4, r2
10004f8e:	fb03 f504 	mul.w	r5, r3, r4
10004f92:	f890 3050 	ldrb.w	r3, [r0, #80]	@ 0x50
10004f96:	2b00      	cmp	r3, #0
10004f98:	d1cc      	bne.n	10004f34 <_ZN5SID165clockEi+0x8a4>
10004f9a:	6d42      	ldr	r2, [r0, #84]	@ 0x54
10004f9c:	6583      	str	r3, [r0, #88]	@ 0x58
10004f9e:	1aaa      	subs	r2, r5, r2
10004fa0:	e9c0 3217 	strd	r3, r2, [r0, #92]	@ 0x5c
10004fa4:	b009      	add	sp, #36	@ 0x24
10004fa6:	e8bd 8ff0 	ldmia.w	sp!, {r4, r5, r6, r7, r8, r9, sl, fp, pc}
10004faa:	6a83      	ldr	r3, [r0, #40]	@ 0x28
10004fac:	6a02      	ldr	r2, [r0, #32]
10004fae:	4413      	add	r3, r2
10004fb0:	441c      	add	r4, r3
10004fb2:	e7b7      	b.n	10004f24 <_ZN5SID165clockEi+0x894>
10004fb4:	6a43      	ldr	r3, [r0, #36]	@ 0x24
10004fb6:	441c      	add	r4, r3
10004fb8:	e7b4      	b.n	10004f24 <_ZN5SID165clockEi+0x894>
10004fba:	6a83      	ldr	r3, [r0, #40]	@ 0x28
10004fbc:	441c      	add	r4, r3
10004fbe:	e7b1      	b.n	10004f24 <_ZN5SID165clockEi+0x894>
10004fc0:	6a03      	ldr	r3, [r0, #32]
10004fc2:	441c      	add	r4, r3
10004fc4:	e7ae      	b.n	10004f24 <_ZN5SID165clockEi+0x894>
10004fc6:	e9d0 2309 	ldrd	r2, r3, [r0, #36]	@ 0x24
10004fca:	4413      	add	r3, r2
10004fcc:	441c      	add	r4, r3
10004fce:	e7a9      	b.n	10004f24 <_ZN5SID165clockEi+0x894>
10004fd0:	18b4      	adds	r4, r6, r2
10004fd2:	440c      	add	r4, r1
10004fd4:	ea4f 18e3 	mov.w	r8, r3, asr #7
10004fd8:	11e4      	asrs	r4, r4, #7
10004fda:	e769      	b.n	10004eb0 <_ZN5SID165clockEi+0x820>
10004fdc:	4433      	add	r3, r6
10004fde:	4411      	add	r1, r2
10004fe0:	ea4f 18e3 	mov.w	r8, r3, asr #7
10004fe4:	11cc      	asrs	r4, r1, #7
10004fe6:	e763      	b.n	10004eb0 <_ZN5SID165clockEi+0x820>
10004fe8:	4413      	add	r3, r2
10004fea:	4431      	add	r1, r6
10004fec:	ea4f 18e3 	mov.w	r8, r3, asr #7
10004ff0:	11cc      	asrs	r4, r1, #7
10004ff2:	e75d      	b.n	10004eb0 <_ZN5SID165clockEi+0x820>
10004ff4:	4413      	add	r3, r2
10004ff6:	440b      	add	r3, r1
10004ff8:	ea4f 18e6 	mov.w	r8, r6, asr #7
10004ffc:	11dc      	asrs	r4, r3, #7
10004ffe:	e757      	b.n	10004eb0 <_ZN5SID165clockEi+0x820>
10005000:	4433      	add	r3, r6
10005002:	440b      	add	r3, r1
10005004:	ea4f 18e2 	mov.w	r8, r2, asr #7
10005008:	11dc      	asrs	r4, r3, #7
1000500a:	e751      	b.n	10004eb0 <_ZN5SID165clockEi+0x820>
1000500c:	4432      	add	r2, r6
1000500e:	4413      	add	r3, r2
10005010:	ea4f 18e3 	mov.w	r8, r3, asr #7
10005014:	11cc      	asrs	r4, r1, #7
10005016:	e74b      	b.n	10004eb0 <_ZN5SID165clockEi+0x820>
10005018:	18b4      	adds	r4, r6, r2
1000501a:	441c      	add	r4, r3
1000501c:	ea4f 18e1 	mov.w	r8, r1, asr #7
10005020:	11e4      	asrs	r4, r4, #7
10005022:	e745      	b.n	10004eb0 <_ZN5SID165clockEi+0x820>
10005024:	4431      	add	r1, r6
10005026:	4413      	add	r3, r2
10005028:	ea4f 18e1 	mov.w	r8, r1, asr #7
1000502c:	11dc      	asrs	r4, r3, #7
1000502e:	e73f      	b.n	10004eb0 <_ZN5SID165clockEi+0x820>
10005030:	4411      	add	r1, r2
10005032:	4433      	add	r3, r6
10005034:	ea4f 18e1 	mov.w	r8, r1, asr #7
10005038:	11dc      	asrs	r4, r3, #7
1000503a:	e739      	b.n	10004eb0 <_ZN5SID165clockEi+0x820>
1000503c:	4416      	add	r6, r2
1000503e:	4433      	add	r3, r6
10005040:	440b      	add	r3, r1
10005042:	2400      	movs	r4, #0
10005044:	ea4f 18e3 	mov.w	r8, r3, asr #7
10005048:	e732      	b.n	10004eb0 <_ZN5SID165clockEi+0x820>
1000504a:	4432      	add	r2, r6
1000504c:	440a      	add	r2, r1
1000504e:	ea4f 18e2 	mov.w	r8, r2, asr #7
10005052:	11dc      	asrs	r4, r3, #7
10005054:	e72c      	b.n	10004eb0 <_ZN5SID165clockEi+0x820>
10005056:	4419      	add	r1, r3
10005058:	18b4      	adds	r4, r6, r2
1000505a:	ea4f 18e1 	mov.w	r8, r1, asr #7
1000505e:	11e4      	asrs	r4, r4, #7
10005060:	e726      	b.n	10004eb0 <_ZN5SID165clockEi+0x820>
10005062:	4433      	add	r3, r6
10005064:	440b      	add	r3, r1
10005066:	ea4f 18e3 	mov.w	r8, r3, asr #7
1000506a:	11d4      	asrs	r4, r2, #7
1000506c:	e720      	b.n	10004eb0 <_ZN5SID165clockEi+0x820>
1000506e:	bf00      	nop
10005070:	20001160 	.word	0x20001160
10005074:	007fffff 	.word	0x007fffff
10005078:	10010240 	.word	0x10010240
1000507c:	10010200 	.word	0x10010200
10005080:	4413      	add	r3, r2
10005082:	440b      	add	r3, r1
10005084:	ea4f 18e3 	mov.w	r8, r3, asr #7
10005088:	11f4      	asrs	r4, r6, #7
1000508a:	e711      	b.n	10004eb0 <_ZN5SID165clockEi+0x820>
1000508c:	e9d0 5210 	ldrd	r5, r2, [r0, #64]	@ 0x40
10005090:	46de      	mov	lr, fp
10005092:	f8cd b00c 	str.w	fp, [sp, #12]
10005096:	2708      	movs	r7, #8
10005098:	4694      	mov	ip, r2
1000509a:	46ab      	mov	fp, r5
1000509c:	f8d0 9004 	ldr.w	r9, [r0, #4]
100050a0:	9402      	str	r4, [sp, #8]
100050a2:	e058      	b.n	10005156 <_ZN5SID165clockEi+0xac6>
100050a4:	2aff      	cmp	r2, #255	@ 0xff
100050a6:	bfa8      	it	ge
100050a8:	22ff      	movge	r2, #255	@ 0xff
100050aa:	f240 74ff 	movw	r4, #2047	@ 0x7ff
100050ae:	f240 5521 	movw	r5, #1313	@ 0x521
100050b2:	fb02 920b 	mla	r2, r2, fp, r9
100050b6:	42a2      	cmp	r2, r4
100050b8:	bfa8      	it	ge
100050ba:	4622      	movge	r2, r4
100050bc:	00cc      	lsls	r4, r1, #3
100050be:	f504 34aa 	add.w	r4, r4, #87040	@ 0x15400
100050c2:	34a0      	adds	r4, #160	@ 0xa0
100050c4:	fb05 f404 	mul.w	r4, r5, r4
100050c8:	eb09 4424 	add.w	r4, r9, r4, asr #16
100050cc:	0864      	lsrs	r4, r4, #1
100050ce:	f2a4 446e 	subw	r4, r4, #1134	@ 0x46e
100050d2:	10a5      	asrs	r5, r4, #2
100050d4:	9501      	str	r5, [sp, #4]
100050d6:	f24d 25d4 	movw	r5, #53972	@ 0xd2d4
100050da:	f85c 2022 	ldr.w	r2, [ip, r2, lsl #2]
100050de:	fb05 f202 	mul.w	r2, r5, r2
100050e2:	f246 65f1 	movw	r5, #26353	@ 0x66f1
100050e6:	1352      	asrs	r2, r2, #13
100050e8:	42aa      	cmp	r2, r5
100050ea:	bfa8      	it	ge
100050ec:	462a      	movge	r2, r5
100050ee:	fb07 f202 	mul.w	r2, r7, r2
100050f2:	2c00      	cmp	r4, #0
100050f4:	ea4f 12a2 	mov.w	r2, r2, asr #6
100050f8:	dd43      	ble.n	10005182 <_ZN5SID165clockEi+0xaf2>
100050fa:	9c01      	ldr	r4, [sp, #4]
100050fc:	2cff      	cmp	r4, #255	@ 0xff
100050fe:	bfa8      	it	ge
10005100:	24ff      	movge	r4, #255	@ 0xff
10005102:	fb0b 9504 	mla	r5, fp, r4, r9
10005106:	fb03 f202 	mul.w	r2, r3, r2
1000510a:	f240 73ff 	movw	r3, #2047	@ 0x7ff
1000510e:	429d      	cmp	r5, r3
10005110:	bfa8      	it	ge
10005112:	461d      	movge	r5, r3
10005114:	f24d 24d4 	movw	r4, #53972	@ 0xd2d4
10005118:	f85c 3025 	ldr.w	r3, [ip, r5, lsl #2]
1000511c:	fb04 f303 	mul.w	r3, r4, r3
10005120:	f246 64f1 	movw	r4, #26353	@ 0x66f1
10005124:	135b      	asrs	r3, r3, #13
10005126:	42a3      	cmp	r3, r4
10005128:	bfa8      	it	ge
1000512a:	4623      	movge	r3, r4
1000512c:	fb07 f303 	mul.w	r3, r7, r3
10005130:	119b      	asrs	r3, r3, #6
10005132:	fb01 f303 	mul.w	r3, r1, r3
10005136:	eba1 31a2 	sub.w	r1, r1, r2, asr #14
1000513a:	eba6 36a3 	sub.w	r6, r6, r3, asr #14
1000513e:	fb01 f30a 	mul.w	r3, r1, sl
10005142:	ebc6 23a3 	rsb	r3, r6, r3, asr #10
10005146:	eba3 0308 	sub.w	r3, r3, r8
1000514a:	ebbe 0e07 	subs.w	lr, lr, r7
1000514e:	e9c0 1609 	strd	r1, r6, [r0, #36]	@ 0x24
10005152:	6203      	str	r3, [r0, #32]
10005154:	d017      	beq.n	10005186 <_ZN5SID165clockEi+0xaf6>
10005156:	f240 5421 	movw	r4, #1313	@ 0x521
1000515a:	00da      	lsls	r2, r3, #3
1000515c:	f502 32aa 	add.w	r2, r2, #87040	@ 0x15400
10005160:	32a0      	adds	r2, #160	@ 0xa0
10005162:	fb04 f202 	mul.w	r2, r4, r2
10005166:	eb09 4222 	add.w	r2, r9, r2, asr #16
1000516a:	0852      	lsrs	r2, r2, #1
1000516c:	4577      	cmp	r7, lr
1000516e:	f2a2 426e 	subw	r2, r2, #1134	@ 0x46e
10005172:	bfa8      	it	ge
10005174:	4677      	movge	r7, lr
10005176:	2a00      	cmp	r2, #0
10005178:	ea4f 02a2 	mov.w	r2, r2, asr #2
1000517c:	dc92      	bgt.n	100050a4 <_ZN5SID165clockEi+0xa14>
1000517e:	2200      	movs	r2, #0
10005180:	e793      	b.n	100050aa <_ZN5SID165clockEi+0xa1a>
10005182:	464d      	mov	r5, r9
10005184:	e7bf      	b.n	10005106 <_ZN5SID165clockEi+0xa76>
10005186:	e9dd 4b02 	ldrd	r4, fp, [sp, #8]
1000518a:	e6bb      	b.n	10004f04 <_ZN5SID165clockEi+0x874>
1000518c:	f893 410d 	ldrb.w	r4, [r3, #269]	@ 0x10d
10005190:	e49e      	b.n	10004ad0 <_ZN5SID165clockEi+0x440>
10005192:	18b4      	adds	r4, r6, r2
10005194:	441c      	add	r4, r3
10005196:	440c      	add	r4, r1
10005198:	f04f 0800 	mov.w	r8, #0
1000519c:	11e4      	asrs	r4, r4, #7
1000519e:	e687      	b.n	10004eb0 <_ZN5SID165clockEi+0x820>

100051a0 <_ZN5VoiceC1Ev>:
100051a0:	b538      	push	{r3, r4, r5, lr}
100051a2:	4604      	mov	r4, r0
100051a4:	f000 f84a 	bl	1000523c <_ZN17WaveformGeneratorC1Ev>
100051a8:	f104 005c 	add.w	r0, r4, #92	@ 0x5c
100051ac:	f7fe f876 	bl	1000329c <_ZN17EnvelopeGeneratorC1Ev>
100051b0:	4620      	mov	r0, r4
100051b2:	2100      	movs	r1, #0
100051b4:	f000 f876 	bl	100052a4 <_ZN17WaveformGenerator14set_chip_modelE10chip_model>
100051b8:	f104 005c 	add.w	r0, r4, #92	@ 0x5c
100051bc:	2100      	movs	r1, #0
100051be:	f7fe f8af 	bl	10003320 <_ZN17EnvelopeGenerator14set_chip_modelE10chip_model>
100051c2:	f44f 7260 	mov.w	r2, #896	@ 0x380
100051c6:	f44f 23ff 	mov.w	r3, #522240	@ 0x7f800
100051ca:	4620      	mov	r0, r4
100051cc:	e9c4 2329 	strd	r2, r3, [r4, #164]	@ 0xa4
100051d0:	bd38      	pop	{r3, r4, r5, pc}
100051d2:	bf00      	nop

100051d4 <_ZN5Voice14set_chip_modelE10chip_model>:
100051d4:	b538      	push	{r3, r4, r5, lr}
100051d6:	460d      	mov	r5, r1
100051d8:	4604      	mov	r4, r0
100051da:	f000 f863 	bl	100052a4 <_ZN17WaveformGenerator14set_chip_modelE10chip_model>
100051de:	4629      	mov	r1, r5
100051e0:	f104 005c 	add.w	r0, r4, #92	@ 0x5c
100051e4:	f7fe f89c 	bl	10003320 <_ZN17EnvelopeGenerator14set_chip_modelE10chip_model>
100051e8:	b935      	cbnz	r5, 100051f8 <_ZN5Voice14set_chip_modelE10chip_model+0x24>
100051ea:	f44f 7260 	mov.w	r2, #896	@ 0x380
100051ee:	f44f 23ff 	mov.w	r3, #522240	@ 0x7f800
100051f2:	e9c4 2329 	strd	r2, r3, [r4, #164]	@ 0xa4
100051f6:	bd38      	pop	{r3, r4, r5, pc}
100051f8:	f44f 6200 	mov.w	r2, #2048	@ 0x800
100051fc:	2300      	movs	r3, #0
100051fe:	e9c4 2329 	strd	r2, r3, [r4, #164]	@ 0xa4
10005202:	bd38      	pop	{r3, r4, r5, pc}

10005204 <_ZN5Voice15set_sync_sourceEPS_>:
10005204:	f000 b84a 	b.w	1000529c <_ZN17WaveformGenerator15set_sync_sourceEPS_>

10005208 <_ZN5Voice16writeCONTROL_REGEj>:
10005208:	b500      	push	{lr}
1000520a:	b083      	sub	sp, #12
1000520c:	e9cd 1000 	strd	r1, r0, [sp]
10005210:	f000 f88e 	bl	10005330 <_ZN17WaveformGenerator16writeCONTROL_REGEj>
10005214:	e9dd 1000 	ldrd	r1, r0, [sp]
10005218:	305c      	adds	r0, #92	@ 0x5c
1000521a:	b003      	add	sp, #12
1000521c:	f85d eb04 	ldr.w	lr, [sp], #4
10005220:	f7fe b882 	b.w	10003328 <_ZN17EnvelopeGenerator16writeCONTROL_REGEj>

10005224 <_ZN5Voice5resetEv>:
10005224:	b500      	push	{lr}
10005226:	b083      	sub	sp, #12
10005228:	9001      	str	r0, [sp, #4]
1000522a:	f000 fa15 	bl	10005658 <_ZN17WaveformGenerator5resetEv>
1000522e:	9801      	ldr	r0, [sp, #4]
10005230:	305c      	adds	r0, #92	@ 0x5c
10005232:	b003      	add	sp, #12
10005234:	f85d eb04 	ldr.w	lr, [sp], #4
10005238:	f7fe b850 	b.w	100032dc <_ZN17EnvelopeGenerator5resetEv>

1000523c <_ZN17WaveformGeneratorC1Ev>:
1000523c:	f240 5255 	movw	r2, #1365	@ 0x555
10005240:	2300      	movs	r3, #0
10005242:	6382      	str	r2, [r0, #56]	@ 0x38
10005244:	4a11      	ldr	r2, [pc, #68]	@ (1000528c <_ZN17WaveformGeneratorC1Ev+0x50>)
10005246:	f640 71ff 	movw	r1, #4095	@ 0xfff
1000524a:	6582      	str	r2, [r0, #88]	@ 0x58
1000524c:	f06f 22f0 	mvn.w	r2, #4026593280	@ 0xf000f000
10005250:	f8df c040 	ldr.w	ip, [pc, #64]	@ 10005294 <_ZN17WaveformGeneratorC1Ev+0x58>
10005254:	e9c0 3304 	strd	r3, r3, [r0, #16]
10005258:	e9c0 3310 	strd	r3, r3, [r0, #64]	@ 0x40
1000525c:	e9c0 3307 	strd	r3, r3, [r0, #28]
10005260:	f8c0 c008 	str.w	ip, [r0, #8]
10005264:	f880 3054 	strb.w	r3, [r0, #84]	@ 0x54
10005268:	f8df c02c 	ldr.w	ip, [pc, #44]	@ 10005298 <_ZN17WaveformGeneratorC1Ev+0x5c>
1000526c:	7303      	strb	r3, [r0, #12]
1000526e:	6343      	str	r3, [r0, #52]	@ 0x34
10005270:	6483      	str	r3, [r0, #72]	@ 0x48
10005272:	6243      	str	r3, [r0, #36]	@ 0x24
10005274:	64c3      	str	r3, [r0, #76]	@ 0x4c
10005276:	63c3      	str	r3, [r0, #60]	@ 0x3c
10005278:	6503      	str	r3, [r0, #80]	@ 0x50
1000527a:	4b05      	ldr	r3, [pc, #20]	@ (10005290 <_ZN17WaveformGeneratorC1Ev+0x54>)
1000527c:	6000      	str	r0, [r0, #0]
1000527e:	f8c0 c018 	str.w	ip, [r0, #24]
10005282:	8601      	strh	r1, [r0, #48]	@ 0x30
10005284:	62c2      	str	r2, [r0, #44]	@ 0x2c
10005286:	6283      	str	r3, [r0, #40]	@ 0x28
10005288:	4770      	bx	lr
1000528a:	bf00      	nop
1000528c:	10010280 	.word	0x10010280
10005290:	0ff00fff 	.word	0x0ff00fff
10005294:	00555555 	.word	0x00555555
10005298:	007fffff 	.word	0x007fffff

1000529c <_ZN17WaveformGenerator15set_sync_sourceEPS_>:
1000529c:	6001      	str	r1, [r0, #0]
1000529e:	6048      	str	r0, [r1, #4]
100052a0:	4770      	bx	lr
100052a2:	bf00      	nop

100052a4 <_ZN17WaveformGenerator14set_chip_modelE10chip_model>:
100052a4:	6b43      	ldr	r3, [r0, #52]	@ 0x34
100052a6:	f880 1054 	strb.w	r1, [r0, #84]	@ 0x54
100052aa:	f003 0307 	and.w	r3, r3, #7
100052ae:	2b04      	cmp	r3, #4
100052b0:	d907      	bls.n	100052c2 <_ZN17WaveformGenerator14set_chip_modelE10chip_model+0x1e>
100052b2:	4a06      	ldr	r2, [pc, #24]	@ (100052cc <_ZN17WaveformGenerator14set_chip_modelE10chip_model+0x28>)
100052b4:	3b04      	subs	r3, #4
100052b6:	eb03 0381 	add.w	r3, r3, r1, lsl #2
100052ba:	eb02 3303 	add.w	r3, r2, r3, lsl #12
100052be:	6583      	str	r3, [r0, #88]	@ 0x58
100052c0:	4770      	bx	lr
100052c2:	4b02      	ldr	r3, [pc, #8]	@ (100052cc <_ZN17WaveformGenerator14set_chip_modelE10chip_model+0x28>)
100052c4:	eb03 3381 	add.w	r3, r3, r1, lsl #14
100052c8:	6583      	str	r3, [r0, #88]	@ 0x58
100052ca:	4770      	bx	lr
100052cc:	10010280 	.word	0x10010280

100052d0 <_ZN17WaveformGenerator12writeFREQ_LOEj>:
100052d0:	6903      	ldr	r3, [r0, #16]
100052d2:	b2c9      	uxtb	r1, r1
100052d4:	f403 437f 	and.w	r3, r3, #65280	@ 0xff00
100052d8:	430b      	orrs	r3, r1
100052da:	6103      	str	r3, [r0, #16]
100052dc:	4770      	bx	lr
100052de:	bf00      	nop

100052e0 <_ZN17WaveformGenerator12writeFREQ_HIEj>:
100052e0:	7c03      	ldrb	r3, [r0, #16]
100052e2:	0209      	lsls	r1, r1, #8
100052e4:	b289      	uxth	r1, r1
100052e6:	4319      	orrs	r1, r3
100052e8:	6101      	str	r1, [r0, #16]
100052ea:	4770      	bx	lr

100052ec <_ZN17WaveformGenerator10writePW_LOEj>:
100052ec:	6943      	ldr	r3, [r0, #20]
100052ee:	b2c9      	uxtb	r1, r1
100052f0:	f403 6370 	and.w	r3, r3, #3840	@ 0xf00
100052f4:	430b      	orrs	r3, r1
100052f6:	6881      	ldr	r1, [r0, #8]
100052f8:	f640 72ff 	movw	r2, #4095	@ 0xfff
100052fc:	ebb3 3f11 	cmp.w	r3, r1, lsr #12
10005300:	bf88      	it	hi
10005302:	2200      	movhi	r2, #0
10005304:	6143      	str	r3, [r0, #20]
10005306:	8602      	strh	r2, [r0, #48]	@ 0x30
10005308:	4770      	bx	lr
1000530a:	bf00      	nop

1000530c <_ZN17WaveformGenerator10writePW_HIEj>:
1000530c:	f890 c014 	ldrb.w	ip, [r0, #20]
10005310:	0209      	lsls	r1, r1, #8
10005312:	6882      	ldr	r2, [r0, #8]
10005314:	f401 6170 	and.w	r1, r1, #3840	@ 0xf00
10005318:	ea41 010c 	orr.w	r1, r1, ip
1000531c:	ebb1 3f12 	cmp.w	r1, r2, lsr #12
10005320:	f640 73ff 	movw	r3, #4095	@ 0xfff
10005324:	bf88      	it	hi
10005326:	2300      	movhi	r3, #0
10005328:	6141      	str	r1, [r0, #20]
1000532a:	8603      	strh	r3, [r0, #48]	@ 0x30
1000532c:	4770      	bx	lr
1000532e:	bf00      	nop

10005330 <_ZN17WaveformGenerator16writeCONTROL_REGEj>:
10005330:	460b      	mov	r3, r1
10005332:	e92d 4ff0 	stmdb	sp!, {r4, r5, r6, r7, r8, r9, sl, fp, lr}
10005336:	6b42      	ldr	r2, [r0, #52]	@ 0x34
10005338:	b083      	sub	sp, #12
1000533a:	4692      	mov	sl, r2
1000533c:	f003 0204 	and.w	r2, r3, #4
10005340:	6442      	str	r2, [r0, #68]	@ 0x44
10005342:	f003 0202 	and.w	r2, r3, #2
10005346:	6482      	str	r2, [r0, #72]	@ 0x48
10005348:	f3c3 1202 	ubfx	r2, r3, #4, #3
1000534c:	f3c1 1503 	ubfx	r5, r1, #4, #4
10005350:	ea4f 1c11 	mov.w	ip, r1, lsr #4
10005354:	2a04      	cmp	r2, #4
10005356:	f001 0108 	and.w	r1, r1, #8
1000535a:	6c07      	ldr	r7, [r0, #64]	@ 0x40
1000535c:	f890 6054 	ldrb.w	r6, [r0, #84]	@ 0x54
10005360:	6345      	str	r5, [r0, #52]	@ 0x34
10005362:	6401      	str	r1, [r0, #64]	@ 0x40
10005364:	d973      	bls.n	1000544e <_ZN17WaveformGenerator16writeCONTROL_REGEj+0x11e>
10005366:	4cb7      	ldr	r4, [pc, #732]	@ (10005644 <_ZN17WaveformGenerator16writeCONTROL_REGEj+0x314>)
10005368:	3a04      	subs	r2, #4
1000536a:	eb02 0286 	add.w	r2, r2, r6, lsl #2
1000536e:	eb04 3e02 	add.w	lr, r4, r2, lsl #12
10005372:	f640 72ff 	movw	r2, #4095	@ 0xfff
10005376:	43dc      	mvns	r4, r3
10005378:	f01c 0f08 	tst.w	ip, #8
1000537c:	bf0c      	ite	eq
1000537e:	4691      	moveq	r9, r2
10005380:	f04f 0900 	movne.w	r9, #0
10005384:	089b      	lsrs	r3, r3, #2
10005386:	f8b0 802a 	ldrh.w	r8, [r0, #42]	@ 0x2a
1000538a:	ea03 1354 	and.w	r3, r3, r4, lsr #5
1000538e:	05db      	lsls	r3, r3, #23
10005390:	f403 0300 	and.w	r3, r3, #8388608	@ 0x800000
10005394:	ea49 0808 	orr.w	r8, r9, r8
10005398:	f01c 0f04 	tst.w	ip, #4
1000539c:	f8c0 e058 	str.w	lr, [r0, #88]	@ 0x58
100053a0:	6243      	str	r3, [r0, #36]	@ 0x24
100053a2:	f8a0 9028 	strh.w	r9, [r0, #40]	@ 0x28
100053a6:	f8a0 802c 	strh.w	r8, [r0, #44]	@ 0x2c
100053aa:	d054      	beq.n	10005456 <_ZN17WaveformGenerator16writeCONTROL_REGEj+0x126>
100053ac:	2200      	movs	r2, #0
100053ae:	85c2      	strh	r2, [r0, #46]	@ 0x2e
100053b0:	2f00      	cmp	r7, #0
100053b2:	f040 80df 	bne.w	10005574 <_ZN17WaveformGenerator16writeCONTROL_REGEj+0x244>
100053b6:	2900      	cmp	r1, #0
100053b8:	f040 80e7 	bne.w	1000558a <_ZN17WaveformGenerator16writeCONTROL_REGEj+0x25a>
100053bc:	8e07      	ldrh	r7, [r0, #48]	@ 0x30
100053be:	433a      	orrs	r2, r7
100053c0:	ea08 0402 	and.w	r4, r8, r2
100053c4:	4692      	mov	sl, r2
100053c6:	f01c 0203 	ands.w	r2, ip, #3
100053ca:	6887      	ldr	r7, [r0, #8]
100053cc:	9401      	str	r4, [sp, #4]
100053ce:	f040 80e7 	bne.w	100055a0 <_ZN17WaveformGenerator16writeCONTROL_REGEj+0x270>
100053d2:	f3c4 020b 	ubfx	r2, r4, #0, #12
100053d6:	64c2      	str	r2, [r0, #76]	@ 0x4c
100053d8:	63c2      	str	r2, [r0, #60]	@ 0x3c
100053da:	2d08      	cmp	r5, #8
100053dc:	d92c      	bls.n	10005438 <_ZN17WaveformGenerator16writeCONTROL_REGEj+0x108>
100053de:	bb59      	cbnz	r1, 10005438 <_ZN17WaveformGenerator16writeCONTROL_REGEj+0x108>
100053e0:	6a03      	ldr	r3, [r0, #32]
100053e2:	2b01      	cmp	r3, #1
100053e4:	d028      	beq.n	10005438 <_ZN17WaveformGenerator16writeCONTROL_REGEj+0x108>
100053e6:	0253      	lsls	r3, r2, #9
100053e8:	0211      	lsls	r1, r2, #8
100053ea:	f401 2180 	and.w	r1, r1, #262144	@ 0x40000
100053ee:	f403 1380 	and.w	r3, r3, #1048576	@ 0x100000
100053f2:	430b      	orrs	r3, r1
100053f4:	f3c2 1100 	ubfx	r1, r2, #4, #1
100053f8:	430b      	orrs	r3, r1
100053fa:	0151      	lsls	r1, r2, #5
100053fc:	f401 4180 	and.w	r1, r1, #16384	@ 0x4000
10005400:	430b      	orrs	r3, r1
10005402:	00d1      	lsls	r1, r2, #3
10005404:	f401 6100 	and.w	r1, r1, #2048	@ 0x800
10005408:	430b      	orrs	r3, r1
1000540a:	0091      	lsls	r1, r2, #2
1000540c:	f401 7100 	and.w	r1, r1, #512	@ 0x200
10005410:	430b      	orrs	r3, r1
10005412:	0851      	lsrs	r1, r2, #1
10005414:	f001 0120 	and.w	r1, r1, #32
10005418:	430b      	orrs	r3, r1
1000541a:	08d1      	lsrs	r1, r2, #3
1000541c:	f001 0104 	and.w	r1, r1, #4
10005420:	430b      	orrs	r3, r1
10005422:	8d41      	ldrh	r1, [r0, #42]	@ 0x2a
10005424:	400a      	ands	r2, r1
10005426:	4988      	ldr	r1, [pc, #544]	@ (10005648 <_ZN17WaveformGenerator16writeCONTROL_REGEj+0x318>)
10005428:	ea49 0402 	orr.w	r4, r9, r2
1000542c:	8542      	strh	r2, [r0, #42]	@ 0x2a
1000542e:	6982      	ldr	r2, [r0, #24]
10005430:	430b      	orrs	r3, r1
10005432:	401a      	ands	r2, r3
10005434:	8584      	strh	r4, [r0, #44]	@ 0x2c
10005436:	6182      	str	r2, [r0, #24]
10005438:	6942      	ldr	r2, [r0, #20]
1000543a:	f640 73ff 	movw	r3, #4095	@ 0xfff
1000543e:	ebb2 3f17 	cmp.w	r2, r7, lsr #12
10005442:	bf88      	it	hi
10005444:	2300      	movhi	r3, #0
10005446:	8603      	strh	r3, [r0, #48]	@ 0x30
10005448:	b003      	add	sp, #12
1000544a:	e8bd 8ff0 	ldmia.w	sp!, {r4, r5, r6, r7, r8, r9, sl, fp, pc}
1000544e:	4a7d      	ldr	r2, [pc, #500]	@ (10005644 <_ZN17WaveformGenerator16writeCONTROL_REGEj+0x314>)
10005450:	eb02 3e86 	add.w	lr, r2, r6, lsl #14
10005454:	e78d      	b.n	10005372 <_ZN17WaveformGenerator16writeCONTROL_REGEj+0x42>
10005456:	85c2      	strh	r2, [r0, #46]	@ 0x2e
10005458:	b96f      	cbnz	r7, 10005476 <_ZN17WaveformGenerator16writeCONTROL_REGEj+0x146>
1000545a:	2900      	cmp	r1, #0
1000545c:	f040 8096 	bne.w	1000558c <_ZN17WaveformGenerator16writeCONTROL_REGEj+0x25c>
10005460:	2d00      	cmp	r5, #0
10005462:	d1ab      	bne.n	100053bc <_ZN17WaveformGenerator16writeCONTROL_REGEj+0x8c>
10005464:	f1ba 0f00 	cmp.w	sl, #0
10005468:	d002      	beq.n	10005470 <_ZN17WaveformGenerator16writeCONTROL_REGEj+0x140>
1000546a:	f44f 33a0 	mov.w	r3, #81920	@ 0x14000
1000546e:	6503      	str	r3, [r0, #80]	@ 0x50
10005470:	b003      	add	sp, #12
10005472:	e8bd 8ff0 	ldmia.w	sp!, {r4, r5, r6, r7, r8, r9, sl, fp, pc}
10005476:	2900      	cmp	r1, #0
10005478:	d1f2      	bne.n	10005460 <_ZN17WaveformGenerator16writeCONTROL_REGEj+0x130>
1000547a:	4657      	mov	r7, sl
1000547c:	2f08      	cmp	r7, #8
1000547e:	f8d0 8018 	ldr.w	r8, [r0, #24]
10005482:	d940      	bls.n	10005506 <_ZN17WaveformGenerator16writeCONTROL_REGEj+0x1d6>
10005484:	2d08      	cmp	r5, #8
10005486:	d03e      	beq.n	10005506 <_ZN17WaveformGenerator16writeCONTROL_REGEj+0x1d6>
10005488:	b956      	cbnz	r6, 100054a0 <_ZN17WaveformGenerator16writeCONTROL_REGEj+0x170>
1000548a:	f00a 0703 	and.w	r7, sl, #3
1000548e:	2f01      	cmp	r7, #1
10005490:	f000 80c9 	beq.w	10005626 <_ZN17WaveformGenerator16writeCONTROL_REGEj+0x2f6>
10005494:	2f02      	cmp	r7, #2
10005496:	d103      	bne.n	100054a0 <_ZN17WaveformGenerator16writeCONTROL_REGEj+0x170>
10005498:	f00c 0703 	and.w	r7, ip, #3
1000549c:	2f01      	cmp	r7, #1
1000549e:	d032      	beq.n	10005506 <_ZN17WaveformGenerator16writeCONTROL_REGEj+0x1d6>
100054a0:	f8d0 b04c 	ldr.w	fp, [r0, #76]	@ 0x4c
100054a4:	ea4f 244b 	mov.w	r4, fp, lsl #9
100054a8:	f404 1480 	and.w	r4, r4, #1048576	@ 0x100000
100054ac:	9401      	str	r4, [sp, #4]
100054ae:	ea4f 240b 	mov.w	r4, fp, lsl #8
100054b2:	f404 2780 	and.w	r7, r4, #262144	@ 0x40000
100054b6:	9c01      	ldr	r4, [sp, #4]
100054b8:	433c      	orrs	r4, r7
100054ba:	f3cb 1700 	ubfx	r7, fp, #4, #1
100054be:	433c      	orrs	r4, r7
100054c0:	ea4f 174b 	mov.w	r7, fp, lsl #5
100054c4:	f407 4780 	and.w	r7, r7, #16384	@ 0x4000
100054c8:	433c      	orrs	r4, r7
100054ca:	ea4f 07cb 	mov.w	r7, fp, lsl #3
100054ce:	f407 6700 	and.w	r7, r7, #2048	@ 0x800
100054d2:	433c      	orrs	r4, r7
100054d4:	ea4f 078b 	mov.w	r7, fp, lsl #2
100054d8:	f407 7700 	and.w	r7, r7, #512	@ 0x200
100054dc:	433c      	orrs	r4, r7
100054de:	f3cb 074e 	ubfx	r7, fp, #1, #15
100054e2:	f007 0720 	and.w	r7, r7, #32
100054e6:	433c      	orrs	r4, r7
100054e8:	f3cb 07cc 	ubfx	r7, fp, #3, #13
100054ec:	f007 0704 	and.w	r7, r7, #4
100054f0:	4327      	orrs	r7, r4
100054f2:	f047 477f 	orr.w	r7, r7, #4278190080	@ 0xff000000
100054f6:	f447 076b 	orr.w	r7, r7, #15400960	@ 0xeb0000
100054fa:	f447 4735 	orr.w	r7, r7, #46336	@ 0xb500
100054fe:	f047 07da 	orr.w	r7, r7, #218	@ 0xda
10005502:	ea08 0807 	and.w	r8, r8, r7
10005506:	ea6f 0708 	mvn.w	r7, r8
1000550a:	f3c7 4740 	ubfx	r7, r7, #17, #1
1000550e:	ea47 0748 	orr.w	r7, r7, r8, lsl #1
10005512:	f3c7 0716 	ubfx	r7, r7, #0, #23
10005516:	ea4f 0847 	mov.w	r8, r7, lsl #1
1000551a:	00fc      	lsls	r4, r7, #3
1000551c:	f004 0420 	and.w	r4, r4, #32
10005520:	f008 0840 	and.w	r8, r8, #64	@ 0x40
10005524:	ea48 0804 	orr.w	r8, r8, r4
10005528:	013c      	lsls	r4, r7, #4
1000552a:	f004 0410 	and.w	r4, r4, #16
1000552e:	ea48 0804 	orr.w	r8, r8, r4
10005532:	127c      	asrs	r4, r7, #9
10005534:	f404 6400 	and.w	r4, r4, #2048	@ 0x800
10005538:	ea48 0804 	orr.w	r8, r8, r4
1000553c:	123c      	asrs	r4, r7, #8
1000553e:	f404 6480 	and.w	r4, r4, #1024	@ 0x400
10005542:	ea48 0804 	orr.w	r8, r8, r4
10005546:	117c      	asrs	r4, r7, #5
10005548:	f404 7400 	and.w	r4, r4, #512	@ 0x200
1000554c:	ea48 0804 	orr.w	r8, r8, r4
10005550:	10fc      	asrs	r4, r7, #3
10005552:	6187      	str	r7, [r0, #24]
10005554:	f404 7480 	and.w	r4, r4, #256	@ 0x100
10005558:	10bf      	asrs	r7, r7, #2
1000555a:	ea48 0804 	orr.w	r8, r8, r4
1000555e:	f007 0780 	and.w	r7, r7, #128	@ 0x80
10005562:	ea48 0807 	orr.w	r8, r8, r7
10005566:	f8a0 802a 	strh.w	r8, [r0, #42]	@ 0x2a
1000556a:	ea49 0808 	orr.w	r8, r9, r8
1000556e:	f8a0 802c 	strh.w	r8, [r0, #44]	@ 0x2c
10005572:	e775      	b.n	10005460 <_ZN17WaveformGenerator16writeCONTROL_REGEj+0x130>
10005574:	2900      	cmp	r1, #0
10005576:	f47f af21 	bne.w	100053bc <_ZN17WaveformGenerator16writeCONTROL_REGEj+0x8c>
1000557a:	4657      	mov	r7, sl
1000557c:	2f08      	cmp	r7, #8
1000557e:	460a      	mov	r2, r1
10005580:	f8d0 8018 	ldr.w	r8, [r0, #24]
10005584:	f63f af7e 	bhi.w	10005484 <_ZN17WaveformGenerator16writeCONTROL_REGEj+0x154>
10005588:	e7bd      	b.n	10005506 <_ZN17WaveformGenerator16writeCONTROL_REGEj+0x1d6>
1000558a:	463a      	mov	r2, r7
1000558c:	2700      	movs	r7, #0
1000558e:	f44f 4400 	mov.w	r4, #32768	@ 0x8000
10005592:	6087      	str	r7, [r0, #8]
10005594:	6207      	str	r7, [r0, #32]
10005596:	f640 77ff 	movw	r7, #4095	@ 0xfff
1000559a:	61c4      	str	r4, [r0, #28]
1000559c:	8607      	strh	r7, [r0, #48]	@ 0x30
1000559e:	e75f      	b.n	10005460 <_ZN17WaveformGenerator16writeCONTROL_REGEj+0x130>
100055a0:	6804      	ldr	r4, [r0, #0]
100055a2:	2a01      	cmp	r2, #1
100055a4:	68a4      	ldr	r4, [r4, #8]
100055a6:	ea23 0304 	bic.w	r3, r3, r4
100055aa:	ea83 0307 	eor.w	r3, r3, r7
100055ae:	d019      	beq.n	100055e4 <_ZN17WaveformGenerator16writeCONTROL_REGEj+0x2b4>
100055b0:	2a02      	cmp	r2, #2
100055b2:	ea4f 3313 	mov.w	r3, r3, lsr #12
100055b6:	d02a      	beq.n	1000560e <_ZN17WaveformGenerator16writeCONTROL_REGEj+0x2de>
100055b8:	f81e 2003 	ldrb.w	r2, [lr, r3]
100055bc:	9c01      	ldr	r4, [sp, #4]
100055be:	2e01      	cmp	r6, #1
100055c0:	ea04 1202 	and.w	r2, r4, r2, lsl #4
100055c4:	64c2      	str	r2, [r0, #76]	@ 0x4c
100055c6:	d028      	beq.n	1000561a <_ZN17WaveformGenerator16writeCONTROL_REGEj+0x2ea>
100055c8:	63c2      	str	r2, [r0, #60]	@ 0x3c
100055ca:	f01c 0f0d 	tst.w	ip, #13
100055ce:	f43f af04 	beq.w	100053da <_ZN17WaveformGenerator16writeCONTROL_REGEj+0xaa>
100055d2:	2e00      	cmp	r6, #0
100055d4:	f47f af01 	bne.w	100053da <_ZN17WaveformGenerator16writeCONTROL_REGEj+0xaa>
100055d8:	4b1c      	ldr	r3, [pc, #112]	@ (1000564c <_ZN17WaveformGenerator16writeCONTROL_REGEj+0x31c>)
100055da:	ea43 3302 	orr.w	r3, r3, r2, lsl #12
100055de:	401f      	ands	r7, r3
100055e0:	6087      	str	r7, [r0, #8]
100055e2:	e6fa      	b.n	100053da <_ZN17WaveformGenerator16writeCONTROL_REGEj+0xaa>
100055e4:	f640 72fe 	movw	r2, #4094	@ 0xffe
100055e8:	f343 5ec0 	sbfx	lr, r3, #23, #1
100055ec:	f36f 030b 	bfc	r3, #0, #12
100055f0:	ea8e 0303 	eor.w	r3, lr, r3
100055f4:	ea02 23d3 	and.w	r3, r2, r3, lsr #11
100055f8:	9a01      	ldr	r2, [sp, #4]
100055fa:	2e01      	cmp	r6, #1
100055fc:	ea02 0203 	and.w	r2, r2, r3
10005600:	64c2      	str	r2, [r0, #76]	@ 0x4c
10005602:	d016      	beq.n	10005632 <_ZN17WaveformGenerator16writeCONTROL_REGEj+0x302>
10005604:	f01c 0f02 	tst.w	ip, #2
10005608:	63c2      	str	r2, [r0, #60]	@ 0x3c
1000560a:	d1de      	bne.n	100055ca <_ZN17WaveformGenerator16writeCONTROL_REGEj+0x29a>
1000560c:	e6e5      	b.n	100053da <_ZN17WaveformGenerator16writeCONTROL_REGEj+0xaa>
1000560e:	9a01      	ldr	r2, [sp, #4]
10005610:	2e01      	cmp	r6, #1
10005612:	ea03 0202 	and.w	r2, r3, r2
10005616:	64c2      	str	r2, [r0, #76]	@ 0x4c
10005618:	d1f4      	bne.n	10005604 <_ZN17WaveformGenerator16writeCONTROL_REGEj+0x2d4>
1000561a:	6b86      	ldr	r6, [r0, #56]	@ 0x38
1000561c:	6383      	str	r3, [r0, #56]	@ 0x38
1000561e:	9b01      	ldr	r3, [sp, #4]
10005620:	401e      	ands	r6, r3
10005622:	63c6      	str	r6, [r0, #60]	@ 0x3c
10005624:	e6d9      	b.n	100053da <_ZN17WaveformGenerator16writeCONTROL_REGEj+0xaa>
10005626:	f00c 0703 	and.w	r7, ip, #3
1000562a:	2f02      	cmp	r7, #2
1000562c:	f47f af38 	bne.w	100054a0 <_ZN17WaveformGenerator16writeCONTROL_REGEj+0x170>
10005630:	e769      	b.n	10005506 <_ZN17WaveformGenerator16writeCONTROL_REGEj+0x1d6>
10005632:	6b86      	ldr	r6, [r0, #56]	@ 0x38
10005634:	6383      	str	r3, [r0, #56]	@ 0x38
10005636:	ea0a 0306 	and.w	r3, sl, r6
1000563a:	ea03 0308 	and.w	r3, r3, r8
1000563e:	63c3      	str	r3, [r0, #60]	@ 0x3c
10005640:	e6cb      	b.n	100053da <_ZN17WaveformGenerator16writeCONTROL_REGEj+0xaa>
10005642:	bf00      	nop
10005644:	10010280 	.word	0x10010280
10005648:	ffebb5da 	.word	0xffebb5da
1000564c:	007fffff 	.word	0x007fffff

10005650 <_ZN17WaveformGenerator7readOSCEv>:
10005650:	6bc0      	ldr	r0, [r0, #60]	@ 0x3c
10005652:	0900      	lsrs	r0, r0, #4
10005654:	4770      	bx	lr
10005656:	bf00      	nop

10005658 <_ZN17WaveformGenerator5resetEv>:
10005658:	f06f 21f0 	mvn.w	r1, #4026593280	@ 0xf000f000
1000565c:	2300      	movs	r3, #0
1000565e:	f640 7cff 	movw	ip, #4095	@ 0xfff
10005662:	b500      	push	{lr}
10005664:	4a0e      	ldr	r2, [pc, #56]	@ (100056a0 <_ZN17WaveformGenerator5resetEv+0x48>)
10005666:	62c1      	str	r1, [r0, #44]	@ 0x2c
10005668:	f890 1054 	ldrb.w	r1, [r0, #84]	@ 0x54
1000566c:	f8df e038 	ldr.w	lr, [pc, #56]	@ 100056a8 <_ZN17WaveformGenerator5resetEv+0x50>
10005670:	eb02 3281 	add.w	r2, r2, r1, lsl #14
10005674:	490b      	ldr	r1, [pc, #44]	@ (100056a4 <_ZN17WaveformGenerator5resetEv+0x4c>)
10005676:	e9c0 3310 	strd	r3, r3, [r0, #64]	@ 0x40
1000567a:	f8c0 e018 	str.w	lr, [r0, #24]
1000567e:	6103      	str	r3, [r0, #16]
10005680:	6143      	str	r3, [r0, #20]
10005682:	7303      	strb	r3, [r0, #12]
10005684:	6343      	str	r3, [r0, #52]	@ 0x34
10005686:	6483      	str	r3, [r0, #72]	@ 0x48
10005688:	6582      	str	r2, [r0, #88]	@ 0x58
1000568a:	6243      	str	r3, [r0, #36]	@ 0x24
1000568c:	f8a0 c030 	strh.w	ip, [r0, #48]	@ 0x30
10005690:	61c3      	str	r3, [r0, #28]
10005692:	6281      	str	r1, [r0, #40]	@ 0x28
10005694:	6203      	str	r3, [r0, #32]
10005696:	64c3      	str	r3, [r0, #76]	@ 0x4c
10005698:	63c3      	str	r3, [r0, #60]	@ 0x3c
1000569a:	6503      	str	r3, [r0, #80]	@ 0x50
1000569c:	bd00      	pop	{pc}
1000569e:	bf00      	nop
100056a0:	10010280 	.word	0x10010280
100056a4:	0ff00fff 	.word	0x0ff00fff
100056a8:	007fffff 	.word	0x007fffff

100056ac <gpio_set_function>:
100056ac:	f44f 7c80 	mov.w	ip, #256	@ 0x100
100056b0:	4b0c      	ldr	r3, [pc, #48]	@ (100056e4 <gpio_set_function+0x38>)
100056b2:	b500      	push	{lr}
100056b4:	f853 2020 	ldr.w	r2, [r3, r0, lsl #2]
100056b8:	eb03 0380 	add.w	r3, r3, r0, lsl #2
100056bc:	00c0      	lsls	r0, r0, #3
100056be:	f082 0240 	eor.w	r2, r2, #64	@ 0x40
100056c2:	f100 4080 	add.w	r0, r0, #1073741824	@ 0x40000000
100056c6:	f503 5e80 	add.w	lr, r3, #4096	@ 0x1000
100056ca:	f002 02c0 	and.w	r2, r2, #192	@ 0xc0
100056ce:	f500 3020 	add.w	r0, r0, #163840	@ 0x28000
100056d2:	f503 5340 	add.w	r3, r3, #12288	@ 0x3000
100056d6:	f8ce 2000 	str.w	r2, [lr]
100056da:	6041      	str	r1, [r0, #4]
100056dc:	f8c3 c000 	str.w	ip, [r3]
100056e0:	bd00      	pop	{pc}
100056e2:	bf00      	nop
100056e4:	40038004 	.word	0x40038004

100056e8 <gpio_set_pulls>:
100056e8:	f8df c01c 	ldr.w	ip, [pc, #28]	@ 10005708 <gpio_set_pulls+0x20>
100056ec:	00c9      	lsls	r1, r1, #3
100056ee:	ea41 0182 	orr.w	r1, r1, r2, lsl #2
100056f2:	f85c 2020 	ldr.w	r2, [ip, r0, lsl #2]
100056f6:	eb0c 0380 	add.w	r3, ip, r0, lsl #2
100056fa:	4051      	eors	r1, r2
100056fc:	f503 5380 	add.w	r3, r3, #4096	@ 0x1000
10005700:	f001 010c 	and.w	r1, r1, #12
10005704:	6019      	str	r1, [r3, #0]
10005706:	4770      	bx	lr
10005708:	40038004 	.word	0x40038004

1000570c <gpio_set_drive_strength>:
1000570c:	4b06      	ldr	r3, [pc, #24]	@ (10005728 <gpio_set_drive_strength+0x1c>)
1000570e:	f853 2020 	ldr.w	r2, [r3, r0, lsl #2]
10005712:	eb03 0380 	add.w	r3, r3, r0, lsl #2
10005716:	ea82 1201 	eor.w	r2, r2, r1, lsl #4
1000571a:	f002 0230 	and.w	r2, r2, #48	@ 0x30
1000571e:	f503 5380 	add.w	r3, r3, #4096	@ 0x1000
10005722:	601a      	str	r2, [r3, #0]
10005724:	4770      	bx	lr
10005726:	bf00      	nop
10005728:	40038004 	.word	0x40038004

1000572c <gpio_set_input_enabled>:
1000572c:	4b06      	ldr	r3, [pc, #24]	@ (10005748 <gpio_set_input_enabled+0x1c>)
1000572e:	2240      	movs	r2, #64	@ 0x40
10005730:	eb03 0380 	add.w	r3, r3, r0, lsl #2
10005734:	b119      	cbz	r1, 1000573e <gpio_set_input_enabled+0x12>
10005736:	f503 5300 	add.w	r3, r3, #8192	@ 0x2000
1000573a:	601a      	str	r2, [r3, #0]
1000573c:	4770      	bx	lr
1000573e:	f503 5340 	add.w	r3, r3, #12288	@ 0x3000
10005742:	601a      	str	r2, [r3, #0]
10005744:	4770      	bx	lr
10005746:	bf00      	nop
10005748:	40038004 	.word	0x40038004

1000574c <gpio_init>:
1000574c:	f04f 0300 	mov.w	r3, #0
10005750:	b500      	push	{lr}
10005752:	ec43 0044 	gpioc_bit_oe_put r0, r3
10005756:	ec43 0040 	gpioc_bit_out_put r0, r3
1000575a:	f04f 0e05 	mov.w	lr, #5
1000575e:	f44f 7c80 	mov.w	ip, #256	@ 0x100
10005762:	4b0c      	ldr	r3, [pc, #48]	@ (10005794 <gpio_init+0x48>)
10005764:	00c2      	lsls	r2, r0, #3
10005766:	f853 1020 	ldr.w	r1, [r3, r0, lsl #2]
1000576a:	eb03 0080 	add.w	r0, r3, r0, lsl #2
1000576e:	f081 0140 	eor.w	r1, r1, #64	@ 0x40
10005772:	f102 4380 	add.w	r3, r2, #1073741824	@ 0x40000000
10005776:	f503 3320 	add.w	r3, r3, #163840	@ 0x28000
1000577a:	f001 02c0 	and.w	r2, r1, #192	@ 0xc0
1000577e:	f500 5180 	add.w	r1, r0, #4096	@ 0x1000
10005782:	f500 5040 	add.w	r0, r0, #12288	@ 0x3000
10005786:	600a      	str	r2, [r1, #0]
10005788:	f8c3 e004 	str.w	lr, [r3, #4]
1000578c:	f8c0 c000 	str.w	ip, [r0]
10005790:	bd00      	pop	{pc}
10005792:	bf00      	nop
10005794:	40038004 	.word	0x40038004

10005798 <panic>:
10005798:	b40f      	push	{r0, r1, r2, r3}
1000579a:	b500      	push	{lr}
1000579c:	4808      	ldr	r0, [pc, #32]	@ (100057c0 <panic+0x28>)
1000579e:	b083      	sub	sp, #12
100057a0:	f004 f9aa 	bl	10009af8 <__wrap_puts>
100057a4:	9b04      	ldr	r3, [sp, #16]
100057a6:	b13b      	cbz	r3, 100057b8 <panic+0x20>
100057a8:	a905      	add	r1, sp, #20
100057aa:	4618      	mov	r0, r3
100057ac:	9101      	str	r1, [sp, #4]
100057ae:	f004 f813 	bl	100097d8 <weak_raw_vprintf>
100057b2:	4804      	ldr	r0, [pc, #16]	@ (100057c4 <panic+0x2c>)
100057b4:	f004 f9a0 	bl	10009af8 <__wrap_puts>
100057b8:	2001      	movs	r0, #1
100057ba:	f004 f825 	bl	10009808 <_exit>
100057be:	bf00      	nop
100057c0:	1000c010 	.word	0x1000c010
100057c4:	1000c020 	.word	0x1000c020

100057c8 <hw_claim_lock>:
100057c8:	f3ef 8010 	mrs	r0, PRIMASK
100057cc:	b672      	cpsid	i
100057ce:	4b06      	ldr	r3, [pc, #24]	@ (100057e8 <hw_claim_lock+0x20>)
100057d0:	e8d3 1fcf 	ldaexb	r1, [r3]
100057d4:	2201      	movs	r2, #1
100057d6:	2900      	cmp	r1, #0
100057d8:	d1fa      	bne.n	100057d0 <hw_claim_lock+0x8>
100057da:	e8c3 2f41 	strexb	r1, r2, [r3]
100057de:	2900      	cmp	r1, #0
100057e0:	d1f6      	bne.n	100057d0 <hw_claim_lock+0x8>
100057e2:	f3bf 8f5f 	dmb	sy
100057e6:	4770      	bx	lr
100057e8:	2000843b 	.word	0x2000843b

100057ec <hw_claim_unlock>:
100057ec:	2300      	movs	r3, #0
100057ee:	4a03      	ldr	r2, [pc, #12]	@ (100057fc <hw_claim_unlock+0x10>)
100057f0:	e8c2 3f8f 	stlb	r3, [r2]
100057f4:	f380 8810 	msr	PRIMASK, r0
100057f8:	4770      	bx	lr
100057fa:	bf00      	nop
100057fc:	2000843b 	.word	0x2000843b

10005800 <hw_claim_or_assert>:
10005800:	b570      	push	{r4, r5, r6, lr}
10005802:	4616      	mov	r6, r2
10005804:	f3ef 8410 	mrs	r4, PRIMASK
10005808:	b672      	cpsid	i
1000580a:	f8df e048 	ldr.w	lr, [pc, #72]	@ 10005854 <hw_claim_or_assert+0x54>
1000580e:	e8de 2fcf 	ldaexb	r2, [lr]
10005812:	2301      	movs	r3, #1
10005814:	2a00      	cmp	r2, #0
10005816:	d1fa      	bne.n	1000580e <hw_claim_or_assert+0xe>
10005818:	e8ce 3f42 	strexb	r2, r3, [lr]
1000581c:	2a00      	cmp	r2, #0
1000581e:	d1f6      	bne.n	1000580e <hw_claim_or_assert+0xe>
10005820:	f3bf 8f5f 	dmb	sy
10005824:	2301      	movs	r3, #1
10005826:	f001 0c07 	and.w	ip, r1, #7
1000582a:	08ca      	lsrs	r2, r1, #3
1000582c:	fa03 f30c 	lsl.w	r3, r3, ip
10005830:	f810 c002 	ldrb.w	ip, [r0, r2]
10005834:	ea1c 0503 	ands.w	r5, ip, r3
10005838:	d108      	bne.n	1000584c <hw_claim_or_assert+0x4c>
1000583a:	ea4c 0c03 	orr.w	ip, ip, r3
1000583e:	f800 c002 	strb.w	ip, [r0, r2]
10005842:	e8ce 5f8f 	stlb	r5, [lr]
10005846:	f384 8810 	msr	PRIMASK, r4
1000584a:	bd70      	pop	{r4, r5, r6, pc}
1000584c:	4630      	mov	r0, r6
1000584e:	f7ff ffa3 	bl	10005798 <panic>
10005852:	bf00      	nop
10005854:	2000843b 	.word	0x2000843b

10005858 <next_striped_spin_lock_num>:
10005858:	4a04      	ldr	r2, [pc, #16]	@ (1000586c <next_striped_spin_lock_num+0x14>)
1000585a:	7810      	ldrb	r0, [r2, #0]
1000585c:	1c43      	adds	r3, r0, #1
1000585e:	b2db      	uxtb	r3, r3
10005860:	2b18      	cmp	r3, #24
10005862:	bf28      	it	cs
10005864:	2310      	movcs	r3, #16
10005866:	7013      	strb	r3, [r2, #0]
10005868:	4770      	bx	lr
1000586a:	bf00      	nop
1000586c:	20001330 	.word	0x20001330

10005870 <spinlock_set_extexclall>:
10005870:	f04f 22e0 	mov.w	r2, #3758153728	@ 0xe000e000
10005874:	6893      	ldr	r3, [r2, #8]
10005876:	f043 5300 	orr.w	r3, r3, #536870912	@ 0x20000000
1000587a:	6093      	str	r3, [r2, #8]
1000587c:	4770      	bx	lr
1000587e:	bf00      	nop

10005880 <spin_locks_reset>:
10005880:	2100      	movs	r1, #0
10005882:	4b04      	ldr	r3, [pc, #16]	@ (10005894 <spin_locks_reset+0x14>)
10005884:	f103 0220 	add.w	r2, r3, #32
10005888:	e8c3 1f8f 	stlb	r1, [r3]
1000588c:	3301      	adds	r3, #1
1000588e:	4293      	cmp	r3, r2
10005890:	d1fa      	bne.n	10005888 <spin_locks_reset+0x8>
10005892:	4770      	bx	lr
10005894:	20008430 	.word	0x20008430

10005898 <spin_lock_init>:
10005898:	4b02      	ldr	r3, [pc, #8]	@ (100058a4 <spin_lock_init+0xc>)
1000589a:	2200      	movs	r2, #0
1000589c:	4418      	add	r0, r3
1000589e:	e8c0 2f8f 	stlb	r2, [r0]
100058a2:	4770      	bx	lr
100058a4:	20008430 	.word	0x20008430

100058a8 <runtime_init_per_core_irq_priorities>:
100058a8:	f04f 23e0 	mov.w	r3, #3758153728	@ 0xe000e000
100058ac:	f04f 3280 	mov.w	r2, #2155905152	@ 0x80808080
100058b0:	f8c3 2400 	str.w	r2, [r3, #1024]	@ 0x400
100058b4:	f8c3 2404 	str.w	r2, [r3, #1028]	@ 0x404
100058b8:	f8c3 2408 	str.w	r2, [r3, #1032]	@ 0x408
100058bc:	f8c3 240c 	str.w	r2, [r3, #1036]	@ 0x40c
100058c0:	f8c3 2410 	str.w	r2, [r3, #1040]	@ 0x410
100058c4:	f8c3 2414 	str.w	r2, [r3, #1044]	@ 0x414
100058c8:	f8c3 2418 	str.w	r2, [r3, #1048]	@ 0x418
100058cc:	f8c3 241c 	str.w	r2, [r3, #1052]	@ 0x41c
100058d0:	f8c3 2420 	str.w	r2, [r3, #1056]	@ 0x420
100058d4:	f8c3 2424 	str.w	r2, [r3, #1060]	@ 0x424
100058d8:	f8c3 2428 	str.w	r2, [r3, #1064]	@ 0x428
100058dc:	f8c3 242c 	str.w	r2, [r3, #1068]	@ 0x42c
100058e0:	f8c3 2430 	str.w	r2, [r3, #1072]	@ 0x430
100058e4:	b662      	cpsie	i
100058e6:	4770      	bx	lr

100058e8 <irq_set_enabled>:
100058e8:	2301      	movs	r3, #1
100058ea:	f000 021f 	and.w	r2, r0, #31
100058ee:	4093      	lsls	r3, r2
100058f0:	0940      	lsrs	r0, r0, #5
100058f2:	b141      	cbz	r1, 10005906 <irq_set_enabled+0x1e>
100058f4:	0080      	lsls	r0, r0, #2
100058f6:	f100 4060 	add.w	r0, r0, #3758096384	@ 0xe0000000
100058fa:	f500 4061 	add.w	r0, r0, #57600	@ 0xe100
100058fe:	f8c0 3180 	str.w	r3, [r0, #384]	@ 0x180
10005902:	6003      	str	r3, [r0, #0]
10005904:	4770      	bx	lr
10005906:	4a02      	ldr	r2, [pc, #8]	@ (10005910 <irq_set_enabled+0x28>)
10005908:	3020      	adds	r0, #32
1000590a:	f842 3020 	str.w	r3, [r2, r0, lsl #2]
1000590e:	4770      	bx	lr
10005910:	e000e100 	.word	0xe000e100

10005914 <irq_is_enabled>:
10005914:	2301      	movs	r3, #1
10005916:	4a06      	ldr	r2, [pc, #24]	@ (10005930 <irq_is_enabled+0x1c>)
10005918:	0941      	lsrs	r1, r0, #5
1000591a:	f852 2021 	ldr.w	r2, [r2, r1, lsl #2]
1000591e:	f000 001f 	and.w	r0, r0, #31
10005922:	4083      	lsls	r3, r0
10005924:	4213      	tst	r3, r2
10005926:	bf14      	ite	ne
10005928:	2001      	movne	r0, #1
1000592a:	2000      	moveq	r0, #0
1000592c:	4770      	bx	lr
1000592e:	bf00      	nop
10005930:	e000e100 	.word	0xe000e100

10005934 <irq_set_mask_enabled>:
10005934:	4b04      	ldr	r3, [pc, #16]	@ (10005948 <irq_set_mask_enabled+0x14>)
10005936:	b119      	cbz	r1, 10005940 <irq_set_mask_enabled+0xc>
10005938:	f8c3 0180 	str.w	r0, [r3, #384]	@ 0x180
1000593c:	6018      	str	r0, [r3, #0]
1000593e:	4770      	bx	lr
10005940:	f8c3 0080 	str.w	r0, [r3, #128]	@ 0x80
10005944:	4770      	bx	lr
10005946:	bf00      	nop
10005948:	e000e100 	.word	0xe000e100

1000594c <irq_set_exclusive_handler>:
1000594c:	b510      	push	{r4, lr}
1000594e:	b082      	sub	sp, #8
10005950:	f3ef 8410 	mrs	r4, PRIMASK
10005954:	b672      	cpsid	i
10005956:	4b16      	ldr	r3, [pc, #88]	@ (100059b0 <irq_set_exclusive_handler+0x64>)
10005958:	e8d3 cfcf 	ldaexb	ip, [r3]
1000595c:	2201      	movs	r2, #1
1000595e:	f1bc 0f00 	cmp.w	ip, #0
10005962:	d1f9      	bne.n	10005958 <irq_set_exclusive_handler+0xc>
10005964:	e8c3 2f4c 	strexb	ip, r2, [r3]
10005968:	f1bc 0f00 	cmp.w	ip, #0
1000596c:	d1f4      	bne.n	10005958 <irq_set_exclusive_handler+0xc>
1000596e:	f3bf 8f5f 	dmb	sy
10005972:	4a10      	ldr	r2, [pc, #64]	@ (100059b4 <irq_set_exclusive_handler+0x68>)
10005974:	3010      	adds	r0, #16
10005976:	6892      	ldr	r2, [r2, #8]
10005978:	f8df c03c 	ldr.w	ip, [pc, #60]	@ 100059b8 <irq_set_exclusive_handler+0x6c>
1000597c:	f852 2020 	ldr.w	r2, [r2, r0, lsl #2]
10005980:	4562      	cmp	r2, ip
10005982:	d008      	beq.n	10005996 <irq_set_exclusive_handler+0x4a>
10005984:	4291      	cmp	r1, r2
10005986:	d006      	beq.n	10005996 <irq_set_exclusive_handler+0x4a>
10005988:	e9cd 0100 	strd	r0, r1, [sp]
1000598c:	f001 f868 	bl	10006a60 <hard_assertion_failure>
10005990:	9901      	ldr	r1, [sp, #4]
10005992:	4b07      	ldr	r3, [pc, #28]	@ (100059b0 <irq_set_exclusive_handler+0x64>)
10005994:	9800      	ldr	r0, [sp, #0]
10005996:	4a07      	ldr	r2, [pc, #28]	@ (100059b4 <irq_set_exclusive_handler+0x68>)
10005998:	6892      	ldr	r2, [r2, #8]
1000599a:	f842 1020 	str.w	r1, [r2, r0, lsl #2]
1000599e:	f3bf 8f5f 	dmb	sy
100059a2:	2200      	movs	r2, #0
100059a4:	e8c3 2f8f 	stlb	r2, [r3]
100059a8:	f384 8810 	msr	PRIMASK, r4
100059ac:	b002      	add	sp, #8
100059ae:	bd10      	pop	{r4, pc}
100059b0:	20008439 	.word	0x20008439
100059b4:	e000ed00 	.word	0xe000ed00
100059b8:	10000111 	.word	0x10000111

100059bc <irq_add_shared_handler>:
100059bc:	e92d 4ff0 	stmdb	sp!, {r4, r5, r6, r7, r8, r9, sl, fp, lr}
100059c0:	4606      	mov	r6, r0
100059c2:	468a      	mov	sl, r1
100059c4:	4615      	mov	r5, r2
100059c6:	b083      	sub	sp, #12
100059c8:	f3ef 8810 	mrs	r8, PRIMASK
100059cc:	b672      	cpsid	i
100059ce:	4f71      	ldr	r7, [pc, #452]	@ (10005b94 <irq_add_shared_handler+0x1d8>)
100059d0:	e8d7 2fcf 	ldaexb	r2, [r7]
100059d4:	2301      	movs	r3, #1
100059d6:	2a00      	cmp	r2, #0
100059d8:	d1fa      	bne.n	100059d0 <irq_add_shared_handler+0x14>
100059da:	e8c7 3f42 	strexb	r2, r3, [r7]
100059de:	2a00      	cmp	r2, #0
100059e0:	d1f6      	bne.n	100059d0 <irq_add_shared_handler+0x14>
100059e2:	f3bf 8f5f 	dmb	sy
100059e6:	496c      	ldr	r1, [pc, #432]	@ (10005b98 <irq_add_shared_handler+0x1dc>)
100059e8:	f991 2000 	ldrsb.w	r2, [r1]
100059ec:	2a00      	cmp	r2, #0
100059ee:	db7b      	blt.n	10005ae8 <irq_add_shared_handler+0x12c>
100059f0:	486a      	ldr	r0, [pc, #424]	@ (10005b9c <irq_add_shared_handler+0x1e0>)
100059f2:	eb02 0442 	add.w	r4, r2, r2, lsl #1
100059f6:	eb00 0384 	add.w	r3, r0, r4, lsl #2
100059fa:	f893 c006 	ldrb.w	ip, [r3, #6]
100059fe:	3610      	adds	r6, #16
10005a00:	f881 c000 	strb.w	ip, [r1]
10005a04:	4966      	ldr	r1, [pc, #408]	@ (10005ba0 <irq_add_shared_handler+0x1e4>)
10005a06:	00a4      	lsls	r4, r4, #2
10005a08:	6889      	ldr	r1, [r1, #8]
10005a0a:	ea4f 0b42 	mov.w	fp, r2, lsl #1
10005a0e:	f851 e026 	ldr.w	lr, [r1, r6, lsl #2]
10005a12:	ebae 0100 	sub.w	r1, lr, r0
10005a16:	292f      	cmp	r1, #47	@ 0x2f
10005a18:	d92e      	bls.n	10005a78 <irq_add_shared_handler+0xbc>
10005a1a:	4962      	ldr	r1, [pc, #392]	@ (10005ba4 <irq_add_shared_handler+0x1e8>)
10005a1c:	458e      	cmp	lr, r1
10005a1e:	f040 8084 	bne.w	10005b2a <irq_add_shared_handler+0x16e>
10005a22:	f043 0e01 	orr.w	lr, r3, #1
10005a26:	4b60      	ldr	r3, [pc, #384]	@ (10005ba8 <irq_add_shared_handler+0x1ec>)
10005a28:	3402      	adds	r4, #2
10005a2a:	4404      	add	r4, r0
10005a2c:	3b04      	subs	r3, #4
10005a2e:	1b1b      	subs	r3, r3, r4
10005a30:	f3c3 034a 	ubfx	r3, r3, #1, #11
10005a34:	ea6f 43c3 	mvn.w	r3, r3, lsl #19
10005a38:	f44f 4121 	mov.w	r1, #41216	@ 0xa100
10005a3c:	ea6f 43d3 	mvn.w	r3, r3, lsr #19
10005a40:	445a      	add	r2, fp
10005a42:	f820 1022 	strh.w	r1, [r0, r2, lsl #2]
10005a46:	eb00 0282 	add.w	r2, r0, r2, lsl #2
10005a4a:	8053      	strh	r3, [r2, #2]
10005a4c:	f64b 5301 	movw	r3, #48385	@ 0xbd01
10005a50:	8093      	strh	r3, [r2, #4]
10005a52:	23ff      	movs	r3, #255	@ 0xff
10005a54:	71d5      	strb	r5, [r2, #7]
10005a56:	f8c2 a008 	str.w	sl, [r2, #8]
10005a5a:	7193      	strb	r3, [r2, #6]
10005a5c:	4b50      	ldr	r3, [pc, #320]	@ (10005ba0 <irq_add_shared_handler+0x1e4>)
10005a5e:	689b      	ldr	r3, [r3, #8]
10005a60:	f843 e026 	str.w	lr, [r3, r6, lsl #2]
10005a64:	f3bf 8f5f 	dmb	sy
10005a68:	2300      	movs	r3, #0
10005a6a:	e8c7 3f8f 	stlb	r3, [r7]
10005a6e:	f388 8810 	msr	PRIMASK, r8
10005a72:	b003      	add	sp, #12
10005a74:	e8bd 8ff0 	ldmia.w	sp!, {r4, r5, r6, r7, r8, r9, sl, fp, pc}
10005a78:	f02e 0c01 	bic.w	ip, lr, #1
10005a7c:	f89c 1007 	ldrb.w	r1, [ip, #7]
10005a80:	42a9      	cmp	r1, r5
10005a82:	d95a      	bls.n	10005b3a <irq_add_shared_handler+0x17e>
10005a84:	46b1      	mov	r9, r6
10005a86:	9401      	str	r4, [sp, #4]
10005a88:	461e      	mov	r6, r3
10005a8a:	e003      	b.n	10005a94 <irq_add_shared_handler+0xd8>
10005a8c:	79cb      	ldrb	r3, [r1, #7]
10005a8e:	42ab      	cmp	r3, r5
10005a90:	d930      	bls.n	10005af4 <irq_add_shared_handler+0x138>
10005a92:	468c      	mov	ip, r1
10005a94:	f99c 4006 	ldrsb.w	r4, [ip, #6]
10005a98:	eb04 0144 	add.w	r1, r4, r4, lsl #1
10005a9c:	2c00      	cmp	r4, #0
10005a9e:	eb00 0181 	add.w	r1, r0, r1, lsl #2
10005aa2:	daf3      	bge.n	10005a8c <irq_add_shared_handler+0xd0>
10005aa4:	9400      	str	r4, [sp, #0]
10005aa6:	f64b 5401 	movw	r4, #48385	@ 0xbd01
10005aaa:	4633      	mov	r3, r6
10005aac:	464e      	mov	r6, r9
10005aae:	f10c 0904 	add.w	r9, ip, #4
10005ab2:	3b04      	subs	r3, #4
10005ab4:	eba3 0309 	sub.w	r3, r3, r9
10005ab8:	f3c3 034a 	ubfx	r3, r3, #1, #11
10005abc:	ea6f 43c3 	mvn.w	r3, r3, lsl #19
10005ac0:	ea6f 43d3 	mvn.w	r3, r3, lsr #19
10005ac4:	f8ac 3004 	strh.w	r3, [ip, #4]
10005ac8:	4b38      	ldr	r3, [pc, #224]	@ (10005bac <irq_add_shared_handler+0x1f0>)
10005aca:	eb0b 0102 	add.w	r1, fp, r2
10005ace:	f88c 2006 	strb.w	r2, [ip, #6]
10005ad2:	f840 3021 	str.w	r3, [r0, r1, lsl #2]
10005ad6:	9b00      	ldr	r3, [sp, #0]
10005ad8:	eb00 0281 	add.w	r2, r0, r1, lsl #2
10005adc:	8094      	strh	r4, [r2, #4]
10005ade:	7193      	strb	r3, [r2, #6]
10005ae0:	71d5      	strb	r5, [r2, #7]
10005ae2:	f8c2 a008 	str.w	sl, [r2, #8]
10005ae6:	e7b9      	b.n	10005a5c <irq_add_shared_handler+0xa0>
10005ae8:	f000 ffba 	bl	10006a60 <hard_assertion_failure>
10005aec:	492a      	ldr	r1, [pc, #168]	@ (10005b98 <irq_add_shared_handler+0x1dc>)
10005aee:	f991 2000 	ldrsb.w	r2, [r1]
10005af2:	e77d      	b.n	100059f0 <irq_add_shared_handler+0x34>
10005af4:	f06f 0107 	mvn.w	r1, #7
10005af8:	9400      	str	r4, [sp, #0]
10005afa:	9c01      	ldr	r4, [sp, #4]
10005afc:	4633      	mov	r3, r6
10005afe:	1b0c      	subs	r4, r1, r4
10005b00:	4661      	mov	r1, ip
10005b02:	1a24      	subs	r4, r4, r0
10005b04:	9401      	str	r4, [sp, #4]
10005b06:	f831 4f04 	ldrh.w	r4, [r1, #4]!
10005b0a:	464e      	mov	r6, r9
10005b0c:	f344 040a 	sbfx	r4, r4, #0, #11
10005b10:	3402      	adds	r4, #2
10005b12:	eb01 0444 	add.w	r4, r1, r4, lsl #1
10005b16:	4689      	mov	r9, r1
10005b18:	9901      	ldr	r1, [sp, #4]
10005b1a:	440c      	add	r4, r1
10005b1c:	f3c4 044a 	ubfx	r4, r4, #1, #11
10005b20:	ea6f 44c4 	mvn.w	r4, r4, lsl #19
10005b24:	ea6f 44d4 	mvn.w	r4, r4, lsr #19
10005b28:	e7c3      	b.n	10005ab2 <irq_add_shared_handler+0xf6>
10005b2a:	e9cd 2300 	strd	r2, r3, [sp]
10005b2e:	f000 ff97 	bl	10006a60 <hard_assertion_failure>
10005b32:	e9dd 2300 	ldrd	r2, r3, [sp]
10005b36:	4819      	ldr	r0, [pc, #100]	@ (10005b9c <irq_add_shared_handler+0x1e0>)
10005b38:	e773      	b.n	10005a22 <irq_add_shared_handler+0x66>
10005b3a:	4a1b      	ldr	r2, [pc, #108]	@ (10005ba8 <irq_add_shared_handler+0x1ec>)
10005b3c:	1ca1      	adds	r1, r4, #2
10005b3e:	71dd      	strb	r5, [r3, #7]
10005b40:	4401      	add	r1, r0
10005b42:	3a04      	subs	r2, #4
10005b44:	1d25      	adds	r5, r4, #4
10005b46:	1a52      	subs	r2, r2, r1
10005b48:	4405      	add	r5, r0
10005b4a:	f1ac 0104 	sub.w	r1, ip, #4
10005b4e:	1b49      	subs	r1, r1, r5
10005b50:	f3c1 014a 	ubfx	r1, r1, #1, #11
10005b54:	ea6f 41c1 	mvn.w	r1, r1, lsl #19
10005b58:	f3c2 024a 	ubfx	r2, r2, #1, #11
10005b5c:	ea6f 42c2 	mvn.w	r2, r2, lsl #19
10005b60:	ea6f 41d1 	mvn.w	r1, r1, lsr #19
10005b64:	f44f 4e21 	mov.w	lr, #41216	@ 0xa100
10005b68:	ea6f 42d2 	mvn.w	r2, r2, lsr #19
10005b6c:	8099      	strh	r1, [r3, #4]
10005b6e:	490f      	ldr	r1, [pc, #60]	@ (10005bac <irq_add_shared_handler+0x1f0>)
10005b70:	f820 e004 	strh.w	lr, [r0, r4]
10005b74:	805a      	strh	r2, [r3, #2]
10005b76:	f64a 25aa 	movw	r5, #43690	@ 0xaaaa
10005b7a:	4662      	mov	r2, ip
10005b7c:	1a12      	subs	r2, r2, r0
10005b7e:	4152      	adcs	r2, r2
10005b80:	4355      	muls	r5, r2
10005b82:	0d2d      	lsrs	r5, r5, #20
10005b84:	f8c3 a008 	str.w	sl, [r3, #8]
10005b88:	719d      	strb	r5, [r3, #6]
10005b8a:	f043 0e01 	orr.w	lr, r3, #1
10005b8e:	f8cc 1000 	str.w	r1, [ip]
10005b92:	e763      	b.n	10005a5c <irq_add_shared_handler+0xa0>
10005b94:	20008439 	.word	0x20008439
10005b98:	2001f3ca 	.word	0x2001f3ca
10005b9c:	20001334 	.word	0x20001334
10005ba0:	e000ed00 	.word	0xe000ed00
10005ba4:	10000111 	.word	0x10000111
10005ba8:	20001364 	.word	0x20001364
10005bac:	47804801 	.word	0x47804801

10005bb0 <irq_add_tail_to_free_list>:
10005bb0:	e92d 41f0 	stmdb	sp!, {r4, r5, r6, r7, r8, lr}
10005bb4:	f3ef 8305 	mrs	r3, IPSR
10005bb8:	b2db      	uxtb	r3, r3
10005bba:	469e      	mov	lr, r3
10005bbc:	f3ef 8510 	mrs	r5, PRIMASK
10005bc0:	b672      	cpsid	i
10005bc2:	4929      	ldr	r1, [pc, #164]	@ (10005c68 <irq_add_tail_to_free_list+0xb8>)
10005bc4:	e8d1 2fcf 	ldaexb	r2, [r1]
10005bc8:	2301      	movs	r3, #1
10005bca:	2a00      	cmp	r2, #0
10005bcc:	d1fa      	bne.n	10005bc4 <irq_add_tail_to_free_list+0x14>
10005bce:	e8c1 3f42 	strexb	r2, r3, [r1]
10005bd2:	2a00      	cmp	r2, #0
10005bd4:	d1f6      	bne.n	10005bc4 <irq_add_tail_to_free_list+0x14>
10005bd6:	f3bf 8f5f 	dmb	sy
10005bda:	f8df 809c 	ldr.w	r8, [pc, #156]	@ 10005c78 <irq_add_tail_to_free_list+0xc8>
10005bde:	f040 0601 	orr.w	r6, r0, #1
10005be2:	f8d8 7008 	ldr.w	r7, [r8, #8]
10005be6:	f64a 23aa 	movw	r3, #43690	@ 0xaaaa
10005bea:	f857 702e 	ldr.w	r7, [r7, lr, lsl #2]
10005bee:	4604      	mov	r4, r0
10005bf0:	4a1e      	ldr	r2, [pc, #120]	@ (10005c6c <irq_add_tail_to_free_list+0xbc>)
10005bf2:	1aa4      	subs	r4, r4, r2
10005bf4:	4164      	adcs	r4, r4
10005bf6:	4363      	muls	r3, r4
10005bf8:	0d1b      	lsrs	r3, r3, #20
10005bfa:	42b7      	cmp	r7, r6
10005bfc:	b25b      	sxtb	r3, r3
10005bfe:	d01e      	beq.n	10005c3e <irq_add_tail_to_free_list+0x8e>
10005c00:	f992 4006 	ldrsb.w	r4, [r2, #6]
10005c04:	429c      	cmp	r4, r3
10005c06:	d020      	beq.n	10005c4a <irq_add_tail_to_free_list+0x9a>
10005c08:	f992 4012 	ldrsb.w	r4, [r2, #18]
10005c0c:	429c      	cmp	r4, r3
10005c0e:	d027      	beq.n	10005c60 <irq_add_tail_to_free_list+0xb0>
10005c10:	f992 401e 	ldrsb.w	r4, [r2, #30]
10005c14:	429c      	cmp	r4, r3
10005c16:	d025      	beq.n	10005c64 <irq_add_tail_to_free_list+0xb4>
10005c18:	f992 402a 	ldrsb.w	r4, [r2, #42]	@ 0x2a
10005c1c:	429c      	cmp	r4, r3
10005c1e:	bf08      	it	eq
10005c20:	2403      	moveq	r4, #3
10005c22:	d013      	beq.n	10005c4c <irq_add_tail_to_free_list+0x9c>
10005c24:	4a12      	ldr	r2, [pc, #72]	@ (10005c70 <irq_add_tail_to_free_list+0xc0>)
10005c26:	2400      	movs	r4, #0
10005c28:	f892 c000 	ldrb.w	ip, [r2]
10005c2c:	7013      	strb	r3, [r2, #0]
10005c2e:	f880 c006 	strb.w	ip, [r0, #6]
10005c32:	e8c1 4f8f 	stlb	r4, [r1]
10005c36:	f385 8810 	msr	PRIMASK, r5
10005c3a:	e8bd 81f0 	ldmia.w	sp!, {r4, r5, r6, r7, r8, pc}
10005c3e:	f8d8 2008 	ldr.w	r2, [r8, #8]
10005c42:	4c0c      	ldr	r4, [pc, #48]	@ (10005c74 <irq_add_tail_to_free_list+0xc4>)
10005c44:	f842 402e 	str.w	r4, [r2, lr, lsl #2]
10005c48:	e7ec      	b.n	10005c24 <irq_add_tail_to_free_list+0x74>
10005c4a:	2400      	movs	r4, #0
10005c4c:	eb04 0444 	add.w	r4, r4, r4, lsl #1
10005c50:	eb02 0284 	add.w	r2, r2, r4, lsl #2
10005c54:	24ff      	movs	r4, #255	@ 0xff
10005c56:	7194      	strb	r4, [r2, #6]
10005c58:	f64b 5401 	movw	r4, #48385	@ 0xbd01
10005c5c:	8094      	strh	r4, [r2, #4]
10005c5e:	e7e1      	b.n	10005c24 <irq_add_tail_to_free_list+0x74>
10005c60:	2401      	movs	r4, #1
10005c62:	e7f3      	b.n	10005c4c <irq_add_tail_to_free_list+0x9c>
10005c64:	2402      	movs	r4, #2
10005c66:	e7f1      	b.n	10005c4c <irq_add_tail_to_free_list+0x9c>
10005c68:	20008439 	.word	0x20008439
10005c6c:	20001334 	.word	0x20001334
10005c70:	2001f3ca 	.word	0x2001f3ca
10005c74:	10000111 	.word	0x10000111
10005c78:	e000ed00 	.word	0xe000ed00

10005c7c <lock_init>:
10005c7c:	4b01      	ldr	r3, [pc, #4]	@ (10005c84 <lock_init+0x8>)
10005c7e:	440b      	add	r3, r1
10005c80:	6003      	str	r3, [r0, #0]
10005c82:	4770      	bx	lr
10005c84:	20008430 	.word	0x20008430

10005c88 <runtime_init_mutex>:
10005c88:	b570      	push	{r4, r5, r6, lr}
10005c8a:	4c10      	ldr	r4, [pc, #64]	@ (10005ccc <runtime_init_mutex+0x44>)
10005c8c:	4d10      	ldr	r5, [pc, #64]	@ (10005cd0 <runtime_init_mutex+0x48>)
10005c8e:	42ac      	cmp	r4, r5
10005c90:	d20e      	bcs.n	10005cb0 <runtime_init_mutex+0x28>
10005c92:	26ff      	movs	r6, #255	@ 0xff
10005c94:	6823      	ldr	r3, [r4, #0]
10005c96:	b163      	cbz	r3, 10005cb2 <runtime_init_mutex+0x2a>
10005c98:	f7ff fdde 	bl	10005858 <next_striped_spin_lock_num>
10005c9c:	4601      	mov	r1, r0
10005c9e:	4620      	mov	r0, r4
10005ca0:	f7ff ffec 	bl	10005c7c <lock_init>
10005ca4:	80a6      	strh	r6, [r4, #4]
10005ca6:	f3bf 8f5f 	dmb	sy
10005caa:	3408      	adds	r4, #8
10005cac:	42ac      	cmp	r4, r5
10005cae:	d3f1      	bcc.n	10005c94 <runtime_init_mutex+0xc>
10005cb0:	bd70      	pop	{r4, r5, r6, pc}
10005cb2:	f7ff fdd1 	bl	10005858 <next_striped_spin_lock_num>
10005cb6:	4601      	mov	r1, r0
10005cb8:	4620      	mov	r0, r4
10005cba:	f7ff ffdf 	bl	10005c7c <lock_init>
10005cbe:	7126      	strb	r6, [r4, #4]
10005cc0:	f3bf 8f5f 	dmb	sy
10005cc4:	3408      	adds	r4, #8
10005cc6:	42ac      	cmp	r4, r5
10005cc8:	d3e4      	bcc.n	10005c94 <runtime_init_mutex+0xc>
10005cca:	bd70      	pop	{r4, r5, r6, pc}
10005ccc:	200019f0 	.word	0x200019f0
10005cd0:	20001a00 	.word	0x20001a00

10005cd4 <sleep_until_callback>:
10005cd4:	4b0d      	ldr	r3, [pc, #52]	@ (10005d0c <sleep_until_callback+0x38>)
10005cd6:	681a      	ldr	r2, [r3, #0]
10005cd8:	f3ef 8110 	mrs	r1, PRIMASK
10005cdc:	b672      	cpsid	i
10005cde:	e8d2 cfcf 	ldaexb	ip, [r2]
10005ce2:	2001      	movs	r0, #1
10005ce4:	f1bc 0f00 	cmp.w	ip, #0
10005ce8:	d1f9      	bne.n	10005cde <sleep_until_callback+0xa>
10005cea:	e8c2 0f4c 	strexb	ip, r0, [r2]
10005cee:	f1bc 0f00 	cmp.w	ip, #0
10005cf2:	d1f4      	bne.n	10005cde <sleep_until_callback+0xa>
10005cf4:	f3bf 8f5f 	dmb	sy
10005cf8:	2200      	movs	r2, #0
10005cfa:	681b      	ldr	r3, [r3, #0]
10005cfc:	e8c3 2f8f 	stlb	r2, [r3]
10005d00:	f381 8810 	msr	PRIMASK, r1
10005d04:	bf40      	sev
10005d06:	2000      	movs	r0, #0
10005d08:	2100      	movs	r1, #0
10005d0a:	4770      	bx	lr
10005d0c:	2001f1a4 	.word	0x2001f1a4

10005d10 <alarm_pool_irq_handler>:
10005d10:	e92d 4ff0 	stmdb	sp!, {r4, r5, r6, r7, r8, r9, sl, fp, lr}
10005d14:	ed2d 8b02 	vpush	{d8}
10005d18:	b085      	sub	sp, #20
10005d1a:	f3ef 8305 	mrs	r3, IPSR
10005d1e:	b2db      	uxtb	r3, r3
10005d20:	3b10      	subs	r3, #16
10005d22:	089a      	lsrs	r2, r3, #2
10005d24:	bf18      	it	ne
10005d26:	2201      	movne	r2, #1
10005d28:	f04f 0101 	mov.w	r1, #1
10005d2c:	f003 0b03 	and.w	fp, r3, #3
10005d30:	bf18      	it	ne
10005d32:	4ca9      	ldrne	r4, [pc, #676]	@ (10005fd8 <alarm_pool_irq_handler+0x2c8>)
10005d34:	4ba9      	ldr	r3, [pc, #676]	@ (10005fdc <alarm_pool_irq_handler+0x2cc>)
10005d36:	bf08      	it	eq
10005d38:	4ca9      	ldreq	r4, [pc, #676]	@ (10005fe0 <alarm_pool_irq_handler+0x2d0>)
10005d3a:	eb0b 0282 	add.w	r2, fp, r2, lsl #2
10005d3e:	f853 5022 	ldr.w	r5, [r3, r2, lsl #2]
10005d42:	fa01 f20b 	lsl.w	r2, r1, fp
10005d46:	f504 5341 	add.w	r3, r4, #12352	@ 0x3040
10005d4a:	ed9f 8ba1 	vldr	d8, [pc, #644]	@ 10005fd0 <alarm_pool_irq_handler+0x2c0>
10005d4e:	9202      	str	r2, [sp, #8]
10005d50:	605a      	str	r2, [r3, #4]
10005d52:	e02f      	b.n	10005db4 <alarm_pool_irq_handler+0xa4>
10005d54:	88ab      	ldrh	r3, [r5, #4]
10005d56:	0419      	lsls	r1, r3, #16
10005d58:	f140 8094 	bpl.w	10005e84 <alarm_pool_irq_handler+0x174>
10005d5c:	79ab      	ldrb	r3, [r5, #6]
10005d5e:	2b00      	cmp	r3, #0
10005d60:	f040 80de 	bne.w	10005f20 <alarm_pool_irq_handler+0x210>
10005d64:	f9b5 6008 	ldrsh.w	r6, [r5, #8]
10005d68:	2e00      	cmp	r6, #0
10005d6a:	f2c0 811c 	blt.w	10005fa6 <alarm_pool_irq_handler+0x296>
10005d6e:	696b      	ldr	r3, [r5, #20]
10005d70:	eb06 0646 	add.w	r6, r6, r6, lsl #1
10005d74:	eb03 03c6 	add.w	r3, r3, r6, lsl #3
10005d78:	e9d3 6702 	ldrd	r6, r7, [r3, #8]
10005d7c:	f1b7 3fff 	cmp.w	r7, #4294967295	@ 0xffffffff
10005d80:	bf08      	it	eq
10005d82:	f1b6 3fff 	cmpeq.w	r6, #4294967295	@ 0xffffffff
10005d86:	d00e      	beq.n	10005da6 <alarm_pool_irq_handler+0x96>
10005d88:	eb04 018b 	add.w	r1, r4, fp, lsl #2
10005d8c:	6aa3      	ldr	r3, [r4, #40]	@ 0x28
10005d8e:	690a      	ldr	r2, [r1, #16]
10005d90:	1ad2      	subs	r2, r2, r3
10005d92:	1af3      	subs	r3, r6, r3
10005d94:	4293      	cmp	r3, r2
10005d96:	d305      	bcc.n	10005da4 <alarm_pool_irq_handler+0x94>
10005d98:	2301      	movs	r3, #1
10005d9a:	6a22      	ldr	r2, [r4, #32]
10005d9c:	fa03 f30b 	lsl.w	r3, r3, fp
10005da0:	4213      	tst	r3, r2
10005da2:	d100      	bne.n	10005da6 <alarm_pool_irq_handler+0x96>
10005da4:	610e      	str	r6, [r1, #16]
10005da6:	4620      	mov	r0, r4
10005da8:	f000 fae0 	bl	1000636c <timer_time_us_64>
10005dac:	42b0      	cmp	r0, r6
10005dae:	41b9      	sbcs	r1, r7
10005db0:	f2c0 80f9 	blt.w	10005fa6 <alarm_pool_irq_handler+0x296>
10005db4:	f9b5 6008 	ldrsh.w	r6, [r5, #8]
10005db8:	9b02      	ldr	r3, [sp, #8]
10005dba:	2e00      	cmp	r6, #0
10005dbc:	63e3      	str	r3, [r4, #60]	@ 0x3c
10005dbe:	dbc9      	blt.n	10005d54 <alarm_pool_irq_handler+0x44>
10005dc0:	f8d5 9014 	ldr.w	r9, [r5, #20]
10005dc4:	eb06 0a46 	add.w	sl, r6, r6, lsl #1
10005dc8:	eb09 07ca 	add.w	r7, r9, sl, lsl #3
10005dcc:	68bb      	ldr	r3, [r7, #8]
10005dce:	4620      	mov	r0, r4
10005dd0:	f8d7 800c 	ldr.w	r8, [r7, #12]
10005dd4:	9301      	str	r3, [sp, #4]
10005dd6:	f000 fac9 	bl	1000636c <timer_time_us_64>
10005dda:	9b01      	ldr	r3, [sp, #4]
10005ddc:	4298      	cmp	r0, r3
10005dde:	eb71 0108 	sbcs.w	r1, r1, r8
10005de2:	dbb7      	blt.n	10005d54 <alarm_pool_irq_handler+0x44>
10005de4:	f1b8 0f00 	cmp.w	r8, #0
10005de8:	f2c0 80c0 	blt.w	10005f6c <alarm_pool_irq_handler+0x25c>
10005dec:	e9d7 3104 	ldrd	r3, r1, [r7, #16]
10005df0:	4a7c      	ldr	r2, [pc, #496]	@ (10005fe4 <alarm_pool_irq_handler+0x2d4>)
10005df2:	4293      	cmp	r3, r2
10005df4:	f000 80f8 	beq.w	10005fe8 <alarm_pool_irq_handler+0x2d8>
10005df8:	887a      	ldrh	r2, [r7, #2]
10005dfa:	f9b5 0008 	ldrsh.w	r0, [r5, #8]
10005dfe:	b292      	uxth	r2, r2
10005e00:	ea42 4000 	orr.w	r0, r2, r0, lsl #16
10005e04:	4798      	blx	r3
10005e06:	4602      	mov	r2, r0
10005e08:	460b      	mov	r3, r1
10005e0a:	ea52 0103 	orrs.w	r1, r2, r3
10005e0e:	f000 80ad 	beq.w	10005f6c <alarm_pool_irq_handler+0x25c>
10005e12:	2b00      	cmp	r3, #0
10005e14:	f280 80cd 	bge.w	10005fb2 <alarm_pool_irq_handler+0x2a2>
10005e18:	9901      	ldr	r1, [sp, #4]
10005e1a:	ebb1 0e02 	subs.w	lr, r1, r2
10005e1e:	eb68 0803 	sbc.w	r8, r8, r3
10005e22:	f939 303a 	ldrsh.w	r3, [r9, sl, lsl #3]
10005e26:	e9c7 e802 	strd	lr, r8, [r7, #8]
10005e2a:	2b00      	cmp	r3, #0
10005e2c:	db92      	blt.n	10005d54 <alarm_pool_irq_handler+0x44>
10005e2e:	6968      	ldr	r0, [r5, #20]
10005e30:	eb03 0243 	add.w	r2, r3, r3, lsl #1
10005e34:	eb00 02c2 	add.w	r2, r0, r2, lsl #3
10005e38:	e9d2 7102 	ldrd	r7, r1, [r2, #8]
10005e3c:	45be      	cmp	lr, r7
10005e3e:	eb78 0c01 	sbcs.w	ip, r8, r1
10005e42:	ea4f 0243 	mov.w	r2, r3, lsl #1
10005e46:	db85      	blt.n	10005d54 <alarm_pool_irq_handler+0x44>
10005e48:	46ac      	mov	ip, r5
10005e4a:	f82c 3f08 	strh.w	r3, [ip, #8]!
10005e4e:	e006      	b.n	10005e5e <alarm_pool_irq_handler+0x14e>
10005e50:	eb03 0143 	add.w	r1, r3, r3, lsl #1
10005e54:	eb00 01c1 	add.w	r1, r0, r1, lsl #3
10005e58:	005a      	lsls	r2, r3, #1
10005e5a:	e9d1 7102 	ldrd	r7, r1, [r1, #8]
10005e5e:	45be      	cmp	lr, r7
10005e60:	eb78 0101 	sbcs.w	r1, r8, r1
10005e64:	441a      	add	r2, r3
10005e66:	db05      	blt.n	10005e74 <alarm_pool_irq_handler+0x164>
10005e68:	f930 3032 	ldrsh.w	r3, [r0, r2, lsl #3]
10005e6c:	eb00 0cc2 	add.w	ip, r0, r2, lsl #3
10005e70:	2b00      	cmp	r3, #0
10005e72:	daed      	bge.n	10005e50 <alarm_pool_irq_handler+0x140>
10005e74:	f829 303a 	strh.w	r3, [r9, sl, lsl #3]
10005e78:	f8ac 6000 	strh.w	r6, [ip]
10005e7c:	88ab      	ldrh	r3, [r5, #4]
10005e7e:	0419      	lsls	r1, r3, #16
10005e80:	f53f af6c 	bmi.w	10005d5c <alarm_pool_irq_handler+0x4c>
10005e84:	692b      	ldr	r3, [r5, #16]
10005e86:	f3ef 8210 	mrs	r2, PRIMASK
10005e8a:	b672      	cpsid	i
10005e8c:	e8d3 0fcf 	ldaexb	r0, [r3]
10005e90:	2101      	movs	r1, #1
10005e92:	2800      	cmp	r0, #0
10005e94:	d1fa      	bne.n	10005e8c <alarm_pool_irq_handler+0x17c>
10005e96:	e8c3 1f40 	strexb	r0, r1, [r3]
10005e9a:	2800      	cmp	r0, #0
10005e9c:	d1f6      	bne.n	10005e8c <alarm_pool_irq_handler+0x17c>
10005e9e:	f3bf 8f5f 	dmb	sy
10005ea2:	f64f 76ff 	movw	r6, #65535	@ 0xffff
10005ea6:	88a8      	ldrh	r0, [r5, #4]
10005ea8:	2300      	movs	r3, #0
10005eaa:	6929      	ldr	r1, [r5, #16]
10005eac:	b200      	sxth	r0, r0
10005eae:	80ae      	strh	r6, [r5, #4]
10005eb0:	e8c1 3f8f 	stlb	r3, [r1]
10005eb4:	f382 8810 	msr	PRIMASK, r2
10005eb8:	4298      	cmp	r0, r3
10005eba:	f6ff af4f 	blt.w	10005d5c <alarm_pool_irq_handler+0x4c>
10005ebe:	4607      	mov	r7, r0
10005ec0:	46a1      	mov	r9, r4
10005ec2:	696e      	ldr	r6, [r5, #20]
10005ec4:	f105 0808 	add.w	r8, r5, #8
10005ec8:	f9b5 3008 	ldrsh.w	r3, [r5, #8]
10005ecc:	eb07 0e47 	add.w	lr, r7, r7, lsl #1
10005ed0:	2b00      	cmp	r3, #0
10005ed2:	46c4      	mov	ip, r8
10005ed4:	eb06 02ce 	add.w	r2, r6, lr, lsl #3
10005ed8:	db15      	blt.n	10005f06 <alarm_pool_irq_handler+0x1f6>
10005eda:	e9d2 4002 	ldrd	r4, r0, [r2, #8]
10005ede:	46aa      	mov	sl, r5
10005ee0:	9701      	str	r7, [sp, #4]
10005ee2:	e004      	b.n	10005eee <alarm_pool_irq_handler+0x1de>
10005ee4:	f936 3035 	ldrsh.w	r3, [r6, r5, lsl #3]
10005ee8:	4694      	mov	ip, r2
10005eea:	2b00      	cmp	r3, #0
10005eec:	db09      	blt.n	10005f02 <alarm_pool_irq_handler+0x1f2>
10005eee:	eb03 0543 	add.w	r5, r3, r3, lsl #1
10005ef2:	eb06 02c5 	add.w	r2, r6, r5, lsl #3
10005ef6:	e9d2 7102 	ldrd	r7, r1, [r2, #8]
10005efa:	42bc      	cmp	r4, r7
10005efc:	eb70 0101 	sbcs.w	r1, r0, r1
10005f00:	daf0      	bge.n	10005ee4 <alarm_pool_irq_handler+0x1d4>
10005f02:	4655      	mov	r5, sl
10005f04:	9f01      	ldr	r7, [sp, #4]
10005f06:	f8ac 7000 	strh.w	r7, [ip]
10005f0a:	f936 703e 	ldrsh.w	r7, [r6, lr, lsl #3]
10005f0e:	f826 303e 	strh.w	r3, [r6, lr, lsl #3]
10005f12:	2f00      	cmp	r7, #0
10005f14:	dad8      	bge.n	10005ec8 <alarm_pool_irq_handler+0x1b8>
10005f16:	79ab      	ldrb	r3, [r5, #6]
10005f18:	464c      	mov	r4, r9
10005f1a:	2b00      	cmp	r3, #0
10005f1c:	f43f af22 	beq.w	10005d64 <alarm_pool_irq_handler+0x54>
10005f20:	2300      	movs	r3, #0
10005f22:	71ab      	strb	r3, [r5, #6]
10005f24:	f9b5 6008 	ldrsh.w	r6, [r5, #8]
10005f28:	1c72      	adds	r2, r6, #1
10005f2a:	4633      	mov	r3, r6
10005f2c:	d03b      	beq.n	10005fa6 <alarm_pool_irq_handler+0x296>
10005f2e:	6968      	ldr	r0, [r5, #20]
10005f30:	f105 0e08 	add.w	lr, r5, #8
10005f34:	e003      	b.n	10005f3e <alarm_pool_irq_handler+0x22e>
10005f36:	468e      	mov	lr, r1
10005f38:	1c5a      	adds	r2, r3, #1
10005f3a:	f43f af15 	beq.w	10005d68 <alarm_pool_irq_handler+0x58>
10005f3e:	eb03 0243 	add.w	r2, r3, r3, lsl #1
10005f42:	eb00 01c2 	add.w	r1, r0, r2, lsl #3
10005f46:	884f      	ldrh	r7, [r1, #2]
10005f48:	469c      	mov	ip, r3
10005f4a:	043f      	lsls	r7, r7, #16
10005f4c:	f930 3032 	ldrsh.w	r3, [r0, r2, lsl #3]
10005f50:	d5f1      	bpl.n	10005f36 <alarm_pool_irq_handler+0x226>
10005f52:	4566      	cmp	r6, ip
10005f54:	ed81 8b02 	vstr	d8, [r1, #8]
10005f58:	d0ee      	beq.n	10005f38 <alarm_pool_irq_handler+0x228>
10005f5a:	f8ae 3000 	strh.w	r3, [lr]
10005f5e:	8929      	ldrh	r1, [r5, #8]
10005f60:	4666      	mov	r6, ip
10005f62:	f820 1032 	strh.w	r1, [r0, r2, lsl #3]
10005f66:	f8a5 c008 	strh.w	ip, [r5, #8]
10005f6a:	e7e5      	b.n	10005f38 <alarm_pool_irq_handler+0x228>
10005f6c:	f839 303a 	ldrh.w	r3, [r9, sl, lsl #3]
10005f70:	812b      	strh	r3, [r5, #8]
10005f72:	692b      	ldr	r3, [r5, #16]
10005f74:	f3ef 8210 	mrs	r2, PRIMASK
10005f78:	b672      	cpsid	i
10005f7a:	e8d3 0fcf 	ldaexb	r0, [r3]
10005f7e:	2101      	movs	r1, #1
10005f80:	2800      	cmp	r0, #0
10005f82:	d1fa      	bne.n	10005f7a <alarm_pool_irq_handler+0x26a>
10005f84:	e8c3 1f40 	strexb	r0, r1, [r3]
10005f88:	2800      	cmp	r0, #0
10005f8a:	d1f6      	bne.n	10005f7a <alarm_pool_irq_handler+0x26a>
10005f8c:	f3bf 8f5f 	dmb	sy
10005f90:	886b      	ldrh	r3, [r5, #2]
10005f92:	6929      	ldr	r1, [r5, #16]
10005f94:	f829 303a 	strh.w	r3, [r9, sl, lsl #3]
10005f98:	2300      	movs	r3, #0
10005f9a:	806e      	strh	r6, [r5, #2]
10005f9c:	e8c1 3f8f 	stlb	r3, [r1]
10005fa0:	f382 8810 	msr	PRIMASK, r2
10005fa4:	e6d6      	b.n	10005d54 <alarm_pool_irq_handler+0x44>
10005fa6:	bf40      	sev
10005fa8:	b005      	add	sp, #20
10005faa:	ecbd 8b02 	vpop	{d8}
10005fae:	e8bd 8ff0 	ldmia.w	sp!, {r4, r5, r6, r7, r8, r9, sl, fp, pc}
10005fb2:	4620      	mov	r0, r4
10005fb4:	9303      	str	r3, [sp, #12]
10005fb6:	9201      	str	r2, [sp, #4]
10005fb8:	f000 f9d8 	bl	1000636c <timer_time_us_64>
10005fbc:	9a01      	ldr	r2, [sp, #4]
10005fbe:	9b03      	ldr	r3, [sp, #12]
10005fc0:	eb10 0e02 	adds.w	lr, r0, r2
10005fc4:	eb43 0801 	adc.w	r8, r3, r1
10005fc8:	e72b      	b.n	10005e22 <alarm_pool_irq_handler+0x112>
10005fca:	bf00      	nop
10005fcc:	f3af 8000 	nop.w
10005fd0:	ffffffff 	.word	0xffffffff
10005fd4:	ffffffff 	.word	0xffffffff
10005fd8:	400b8000 	.word	0x400b8000
10005fdc:	20008b58 	.word	0x20008b58
10005fe0:	400b0000 	.word	0x400b0000
10005fe4:	10005d11 	.word	0x10005d11
10005fe8:	4608      	mov	r0, r1
10005fea:	690b      	ldr	r3, [r1, #16]
10005fec:	9103      	str	r1, [sp, #12]
10005fee:	4798      	blx	r3
10005ff0:	2800      	cmp	r0, #0
10005ff2:	d0bb      	beq.n	10005f6c <alarm_pool_irq_handler+0x25c>
10005ff4:	9903      	ldr	r1, [sp, #12]
10005ff6:	e9d1 2300 	ldrd	r2, r3, [r1]
10005ffa:	e706      	b.n	10005e0a <alarm_pool_irq_handler+0xfa>

10005ffc <runtime_init_default_alarm_pool>:
10005ffc:	b538      	push	{r3, r4, r5, lr}
10005ffe:	4b38      	ldr	r3, [pc, #224]	@ (100060e0 <runtime_init_default_alarm_pool+0xe4>)
10006000:	691c      	ldr	r4, [r3, #16]
10006002:	b12c      	cbz	r4, 10006010 <runtime_init_default_alarm_pool+0x14>
10006004:	e8bd 4038 	ldmia.w	sp!, {r3, r4, r5, lr}
10006008:	210a      	movs	r1, #10
1000600a:	4836      	ldr	r0, [pc, #216]	@ (100060e4 <runtime_init_default_alarm_pool+0xe8>)
1000600c:	f7ff be36 	b.w	10005c7c <lock_init>
10006010:	2103      	movs	r1, #3
10006012:	4835      	ldr	r0, [pc, #212]	@ (100060e8 <runtime_init_default_alarm_pool+0xec>)
10006014:	f000 f998 	bl	10006348 <timer_hardware_alarm_claim>
10006018:	4d33      	ldr	r5, [pc, #204]	@ (100060e8 <runtime_init_default_alarm_pool+0xec>)
1000601a:	4b31      	ldr	r3, [pc, #196]	@ (100060e0 <runtime_init_default_alarm_pool+0xe4>)
1000601c:	60dd      	str	r5, [r3, #12]
1000601e:	f7ff fc1b 	bl	10005858 <next_striped_spin_lock_num>
10006022:	4a32      	ldr	r2, [pc, #200]	@ (100060ec <runtime_init_default_alarm_pool+0xf0>)
10006024:	f04f 4e50 	mov.w	lr, #3489660928	@ 0xd0000000
10006028:	4402      	add	r2, r0
1000602a:	2003      	movs	r0, #3
1000602c:	4b2c      	ldr	r3, [pc, #176]	@ (100060e0 <runtime_init_default_alarm_pool+0xe4>)
1000602e:	f04f 0c0f 	mov.w	ip, #15
10006032:	7018      	strb	r0, [r3, #0]
10006034:	611a      	str	r2, [r3, #16]
10006036:	f8de 2000 	ldr.w	r2, [lr]
1000603a:	f64f 71ff 	movw	r1, #65535	@ 0xffff
1000603e:	705a      	strb	r2, [r3, #1]
10006040:	695a      	ldr	r2, [r3, #20]
10006042:	f8a3 c002 	strh.w	ip, [r3, #2]
10006046:	8314      	strh	r4, [r2, #24]
10006048:	f04f 0402 	mov.w	r4, #2
1000604c:	f8a2 4048 	strh.w	r4, [r2, #72]	@ 0x48
10006050:	f04f 0404 	mov.w	r4, #4
10006054:	f8a2 4078 	strh.w	r4, [r2, #120]	@ 0x78
10006058:	f04f 0405 	mov.w	r4, #5
1000605c:	f8a2 4090 	strh.w	r4, [r2, #144]	@ 0x90
10006060:	f04f 0406 	mov.w	r4, #6
10006064:	f8a2 40a8 	strh.w	r4, [r2, #168]	@ 0xa8
10006068:	f04f 0407 	mov.w	r4, #7
1000606c:	f8a2 40c0 	strh.w	r4, [r2, #192]	@ 0xc0
10006070:	f04f 0409 	mov.w	r4, #9
10006074:	f8a2 40f0 	strh.w	r4, [r2, #240]	@ 0xf0
10006078:	f04f 040a 	mov.w	r4, #10
1000607c:	f8a2 4108 	strh.w	r4, [r2, #264]	@ 0x108
10006080:	f04f 040b 	mov.w	r4, #11
10006084:	f8a2 4120 	strh.w	r4, [r2, #288]	@ 0x120
10006088:	f04f 040c 	mov.w	r4, #12
1000608c:	f8a2 4138 	strh.w	r4, [r2, #312]	@ 0x138
10006090:	f04f 0401 	mov.w	r4, #1
10006094:	8614      	strh	r4, [r2, #48]	@ 0x30
10006096:	f04f 0408 	mov.w	r4, #8
1000609a:	f8a2 40d8 	strh.w	r4, [r2, #216]	@ 0xd8
1000609e:	4c14      	ldr	r4, [pc, #80]	@ (100060f0 <runtime_init_default_alarm_pool+0xf4>)
100060a0:	f04f 0e0d 	mov.w	lr, #13
100060a4:	f04f 0c0e 	mov.w	ip, #14
100060a8:	609c      	str	r4, [r3, #8]
100060aa:	2408      	movs	r4, #8
100060ac:	8099      	strh	r1, [r3, #4]
100060ae:	f8a2 e150 	strh.w	lr, [r2, #336]	@ 0x150
100060b2:	f8a2 c168 	strh.w	ip, [r2, #360]	@ 0x168
100060b6:	f8a2 0060 	strh.w	r0, [r2, #96]	@ 0x60
100060ba:	8011      	strh	r1, [r2, #0]
100060bc:	4a0d      	ldr	r2, [pc, #52]	@ (100060f4 <runtime_init_default_alarm_pool+0xf8>)
100060be:	622c      	str	r4, [r5, #32]
100060c0:	490d      	ldr	r1, [pc, #52]	@ (100060f8 <runtime_init_default_alarm_pool+0xfc>)
100060c2:	60d3      	str	r3, [r2, #12]
100060c4:	f7ff fc42 	bl	1000594c <irq_set_exclusive_handler>
100060c8:	2101      	movs	r1, #1
100060ca:	2003      	movs	r0, #3
100060cc:	f7ff fc0c 	bl	100058e8 <irq_set_enabled>
100060d0:	4b0a      	ldr	r3, [pc, #40]	@ (100060fc <runtime_init_default_alarm_pool+0x100>)
100060d2:	210a      	movs	r1, #10
100060d4:	641c      	str	r4, [r3, #64]	@ 0x40
100060d6:	4803      	ldr	r0, [pc, #12]	@ (100060e4 <runtime_init_default_alarm_pool+0xe8>)
100060d8:	e8bd 4038 	ldmia.w	sp!, {r3, r4, r5, lr}
100060dc:	f7ff bdce 	b.w	10005c7c <lock_init>
100060e0:	2000137c 	.word	0x2000137c
100060e4:	2001f1a4 	.word	0x2001f1a4
100060e8:	400b0000 	.word	0x400b0000
100060ec:	20008430 	.word	0x20008430
100060f0:	0010ffff 	.word	0x0010ffff
100060f4:	20008b58 	.word	0x20008b58
100060f8:	10005d11 	.word	0x10005d11
100060fc:	400b2000 	.word	0x400b2000

10006100 <alarm_pool_add_alarm_at_force_in_context>:
10006100:	b5f0      	push	{r4, r5, r6, r7, lr}
10006102:	4616      	mov	r6, r2
10006104:	461f      	mov	r7, r3
10006106:	6902      	ldr	r2, [r0, #16]
10006108:	4603      	mov	r3, r0
1000610a:	f3ef 8010 	mrs	r0, PRIMASK
1000610e:	b672      	cpsid	i
10006110:	e8d2 4fcf 	ldaexb	r4, [r2]
10006114:	2101      	movs	r1, #1
10006116:	2c00      	cmp	r4, #0
10006118:	d1fa      	bne.n	10006110 <alarm_pool_add_alarm_at_force_in_context+0x10>
1000611a:	e8c2 1f44 	strexb	r4, r1, [r2]
1000611e:	2c00      	cmp	r4, #0
10006120:	d1f6      	bne.n	10006110 <alarm_pool_add_alarm_at_force_in_context+0x10>
10006122:	f3bf 8f5f 	dmb	sy
10006126:	f9b3 1002 	ldrsh.w	r1, [r3, #2]
1000612a:	691d      	ldr	r5, [r3, #16]
1000612c:	2900      	cmp	r1, #0
1000612e:	db45      	blt.n	100061bc <alarm_pool_add_alarm_at_force_in_context+0xbc>
10006130:	f8d3 e014 	ldr.w	lr, [r3, #20]
10006134:	eb01 0241 	add.w	r2, r1, r1, lsl #1
10006138:	f83e 4032 	ldrh.w	r4, [lr, r2, lsl #3]
1000613c:	eb0e 0cc2 	add.w	ip, lr, r2, lsl #3
10006140:	805c      	strh	r4, [r3, #2]
10006142:	2400      	movs	r4, #0
10006144:	e8c5 4f8f 	stlb	r4, [r5]
10006148:	f380 8810 	msr	PRIMASK, r0
1000614c:	9805      	ldr	r0, [sp, #20]
1000614e:	4635      	mov	r5, r6
10006150:	f8cc 0010 	str.w	r0, [ip, #16]
10006154:	9806      	ldr	r0, [sp, #24]
10006156:	463e      	mov	r6, r7
10006158:	f8cc 0014 	str.w	r0, [ip, #20]
1000615c:	f8bc 0002 	ldrh.w	r0, [ip, #2]
10006160:	e9cc 5602 	strd	r5, r6, [ip, #8]
10006164:	3001      	adds	r0, #1
10006166:	f3c0 000e 	ubfx	r0, r0, #0, #15
1000616a:	2801      	cmp	r0, #1
1000616c:	bf38      	it	cc
1000616e:	2001      	movcc	r0, #1
10006170:	f8ac 0002 	strh.w	r0, [ip, #2]
10006174:	ea40 4001 	orr.w	r0, r0, r1, lsl #16
10006178:	f8d3 c010 	ldr.w	ip, [r3, #16]
1000617c:	f3ef 8510 	mrs	r5, PRIMASK
10006180:	b672      	cpsid	i
10006182:	e8dc 7fcf 	ldaexb	r7, [ip]
10006186:	2601      	movs	r6, #1
10006188:	2f00      	cmp	r7, #0
1000618a:	d1fa      	bne.n	10006182 <alarm_pool_add_alarm_at_force_in_context+0x82>
1000618c:	e8cc 6f47 	strexb	r7, r6, [ip]
10006190:	2f00      	cmp	r7, #0
10006192:	d1f6      	bne.n	10006182 <alarm_pool_add_alarm_at_force_in_context+0x82>
10006194:	f3bf 8f5f 	dmb	sy
10006198:	f8b3 c004 	ldrh.w	ip, [r3, #4]
1000619c:	f82e c032 	strh.w	ip, [lr, r2, lsl #3]
100061a0:	8099      	strh	r1, [r3, #4]
100061a2:	691a      	ldr	r2, [r3, #16]
100061a4:	e8c2 4f8f 	stlb	r4, [r2]
100061a8:	f385 8810 	msr	PRIMASK, r5
100061ac:	2101      	movs	r1, #1
100061ae:	781c      	ldrb	r4, [r3, #0]
100061b0:	68da      	ldr	r2, [r3, #12]
100061b2:	40a1      	lsls	r1, r4
100061b4:	f502 5301 	add.w	r3, r2, #8256	@ 0x2040
100061b8:	6059      	str	r1, [r3, #4]
100061ba:	bdf0      	pop	{r4, r5, r6, r7, pc}
100061bc:	2300      	movs	r3, #0
100061be:	e8c5 3f8f 	stlb	r3, [r5]
100061c2:	f380 8810 	msr	PRIMASK, r0
100061c6:	f04f 30ff 	mov.w	r0, #4294967295	@ 0xffffffff
100061ca:	bdf0      	pop	{r4, r5, r6, r7, pc}

100061cc <alarm_pool_cancel_alarm>:
100061cc:	4603      	mov	r3, r0
100061ce:	8940      	ldrh	r0, [r0, #10]
100061d0:	ebb0 4f21 	cmp.w	r0, r1, asr #16
100061d4:	dd3a      	ble.n	1000624c <alarm_pool_cancel_alarm+0x80>
100061d6:	6958      	ldr	r0, [r3, #20]
100061d8:	140a      	asrs	r2, r1, #16
100061da:	eb02 0242 	add.w	r2, r2, r2, lsl #1
100061de:	b510      	push	{r4, lr}
100061e0:	f8d3 c010 	ldr.w	ip, [r3, #16]
100061e4:	eb00 00c2 	add.w	r0, r0, r2, lsl #3
100061e8:	f3ef 8e10 	mrs	lr, PRIMASK
100061ec:	b672      	cpsid	i
100061ee:	e8dc 4fcf 	ldaexb	r4, [ip]
100061f2:	2201      	movs	r2, #1
100061f4:	2c00      	cmp	r4, #0
100061f6:	d1fa      	bne.n	100061ee <alarm_pool_cancel_alarm+0x22>
100061f8:	e8cc 2f44 	strexb	r4, r2, [ip]
100061fc:	2c00      	cmp	r4, #0
100061fe:	d1f6      	bne.n	100061ee <alarm_pool_cancel_alarm+0x22>
10006200:	f3bf 8f5f 	dmb	sy
10006204:	8842      	ldrh	r2, [r0, #2]
10006206:	b289      	uxth	r1, r1
10006208:	b292      	uxth	r2, r2
1000620a:	428a      	cmp	r2, r1
1000620c:	d007      	beq.n	1000621e <alarm_pool_cancel_alarm+0x52>
1000620e:	2200      	movs	r2, #0
10006210:	691b      	ldr	r3, [r3, #16]
10006212:	e8c3 2f8f 	stlb	r2, [r3]
10006216:	f38e 8810 	msr	PRIMASK, lr
1000621a:	2000      	movs	r0, #0
1000621c:	bd10      	pop	{r4, pc}
1000621e:	ea6f 4242 	mvn.w	r2, r2, lsl #17
10006222:	ea6f 4252 	mvn.w	r2, r2, lsr #17
10006226:	8042      	strh	r2, [r0, #2]
10006228:	2101      	movs	r1, #1
1000622a:	2200      	movs	r2, #0
1000622c:	6918      	ldr	r0, [r3, #16]
1000622e:	7199      	strb	r1, [r3, #6]
10006230:	e8c0 2f8f 	stlb	r2, [r0]
10006234:	f38e 8810 	msr	PRIMASK, lr
10006238:	f893 c000 	ldrb.w	ip, [r3]
1000623c:	68da      	ldr	r2, [r3, #12]
1000623e:	4608      	mov	r0, r1
10006240:	f502 5301 	add.w	r3, r2, #8256	@ 0x2040
10006244:	fa01 f10c 	lsl.w	r1, r1, ip
10006248:	6059      	str	r1, [r3, #4]
1000624a:	bd10      	pop	{r4, pc}
1000624c:	2000      	movs	r0, #0
1000624e:	4770      	bx	lr

10006250 <best_effort_wfe_or_timeout>:
10006250:	f3ef 8205 	mrs	r2, IPSR
10006254:	b2d2      	uxtb	r2, r2
10006256:	b182      	cbz	r2, 1000627a <best_effort_wfe_or_timeout+0x2a>
10006258:	4b38      	ldr	r3, [pc, #224]	@ (1000633c <best_effort_wfe_or_timeout+0xec>)
1000625a:	6a5a      	ldr	r2, [r3, #36]	@ 0x24
1000625c:	428a      	cmp	r2, r1
1000625e:	d202      	bcs.n	10006266 <best_effort_wfe_or_timeout+0x16>
10006260:	2200      	movs	r2, #0
10006262:	4610      	mov	r0, r2
10006264:	4770      	bx	lr
10006266:	bf14      	ite	ne
10006268:	2201      	movne	r2, #1
1000626a:	2200      	moveq	r2, #0
1000626c:	6a9b      	ldr	r3, [r3, #40]	@ 0x28
1000626e:	4283      	cmp	r3, r0
10006270:	bf28      	it	cs
10006272:	f042 0201 	orrcs.w	r2, r2, #1
10006276:	4610      	mov	r0, r2
10006278:	4770      	bx	lr
1000627a:	b570      	push	{r4, r5, r6, lr}
1000627c:	b084      	sub	sp, #16
1000627e:	9203      	str	r2, [sp, #12]
10006280:	4a2f      	ldr	r2, [pc, #188]	@ (10006340 <best_effort_wfe_or_timeout+0xf0>)
10006282:	4606      	mov	r6, r0
10006284:	68d3      	ldr	r3, [r2, #12]
10006286:	7815      	ldrb	r5, [r2, #0]
10006288:	4618      	mov	r0, r3
1000628a:	460c      	mov	r4, r1
1000628c:	9302      	str	r3, [sp, #8]
1000628e:	f000 f86d 	bl	1000636c <timer_time_us_64>
10006292:	9b02      	ldr	r3, [sp, #8]
10006294:	f105 0c04 	add.w	ip, r5, #4
10006298:	f853 c02c 	ldr.w	ip, [r3, ip, lsl #2]
1000629c:	9a03      	ldr	r2, [sp, #12]
1000629e:	ebac 0c00 	sub.w	ip, ip, r0
100062a2:	1a30      	subs	r0, r6, r0
100062a4:	eb64 0101 	sbc.w	r1, r4, r1
100062a8:	4560      	cmp	r0, ip
100062aa:	f171 0100 	sbcs.w	r1, r1, #0
100062ae:	db0f      	blt.n	100062d0 <best_effort_wfe_or_timeout+0x80>
100062b0:	bf20      	wfe
100062b2:	4b22      	ldr	r3, [pc, #136]	@ (1000633c <best_effort_wfe_or_timeout+0xec>)
100062b4:	6a59      	ldr	r1, [r3, #36]	@ 0x24
100062b6:	42a1      	cmp	r1, r4
100062b8:	d307      	bcc.n	100062ca <best_effort_wfe_or_timeout+0x7a>
100062ba:	bf14      	ite	ne
100062bc:	2201      	movne	r2, #1
100062be:	2200      	moveq	r2, #0
100062c0:	6a9b      	ldr	r3, [r3, #40]	@ 0x28
100062c2:	42b3      	cmp	r3, r6
100062c4:	bf28      	it	cs
100062c6:	f042 0201 	orrcs.w	r2, r2, #1
100062ca:	4610      	mov	r0, r2
100062cc:	b004      	add	sp, #16
100062ce:	bd70      	pop	{r4, r5, r6, pc}
100062d0:	9202      	str	r2, [sp, #8]
100062d2:	f000 f853 	bl	1000637c <time_us_64>
100062d6:	4286      	cmp	r6, r0
100062d8:	eb64 0101 	sbc.w	r1, r4, r1
100062dc:	2900      	cmp	r1, #0
100062de:	9a02      	ldr	r2, [sp, #8]
100062e0:	db1b      	blt.n	1000631a <best_effort_wfe_or_timeout+0xca>
100062e2:	4918      	ldr	r1, [pc, #96]	@ (10006344 <best_effort_wfe_or_timeout+0xf4>)
100062e4:	4623      	mov	r3, r4
100062e6:	e9cd 1200 	strd	r1, r2, [sp]
100062ea:	4815      	ldr	r0, [pc, #84]	@ (10006340 <best_effort_wfe_or_timeout+0xf0>)
100062ec:	4632      	mov	r2, r6
100062ee:	f7ff ff07 	bl	10006100 <alarm_pool_add_alarm_at_force_in_context>
100062f2:	1e01      	subs	r1, r0, #0
100062f4:	dd11      	ble.n	1000631a <best_effort_wfe_or_timeout+0xca>
100062f6:	4b11      	ldr	r3, [pc, #68]	@ (1000633c <best_effort_wfe_or_timeout+0xec>)
100062f8:	6a5a      	ldr	r2, [r3, #36]	@ 0x24
100062fa:	42a2      	cmp	r2, r4
100062fc:	d31c      	bcc.n	10006338 <best_effort_wfe_or_timeout+0xe8>
100062fe:	6a9b      	ldr	r3, [r3, #40]	@ 0x28
10006300:	42b3      	cmp	r3, r6
10006302:	d317      	bcc.n	10006334 <best_effort_wfe_or_timeout+0xe4>
10006304:	480e      	ldr	r0, [pc, #56]	@ (10006340 <best_effort_wfe_or_timeout+0xf0>)
10006306:	f7ff ff61 	bl	100061cc <alarm_pool_cancel_alarm>
1000630a:	4b0c      	ldr	r3, [pc, #48]	@ (1000633c <best_effort_wfe_or_timeout+0xec>)
1000630c:	6a5a      	ldr	r2, [r3, #36]	@ 0x24
1000630e:	42a2      	cmp	r2, r4
10006310:	d2d3      	bcs.n	100062ba <best_effort_wfe_or_timeout+0x6a>
10006312:	2200      	movs	r2, #0
10006314:	4610      	mov	r0, r2
10006316:	b004      	add	sp, #16
10006318:	bd70      	pop	{r4, r5, r6, pc}
1000631a:	4b08      	ldr	r3, [pc, #32]	@ (1000633c <best_effort_wfe_or_timeout+0xec>)
1000631c:	6a5a      	ldr	r2, [r3, #36]	@ 0x24
1000631e:	42a2      	cmp	r2, r4
10006320:	d3f7      	bcc.n	10006312 <best_effort_wfe_or_timeout+0xc2>
10006322:	1b12      	subs	r2, r2, r4
10006324:	bf18      	it	ne
10006326:	2201      	movne	r2, #1
10006328:	6a9b      	ldr	r3, [r3, #40]	@ 0x28
1000632a:	42b3      	cmp	r3, r6
1000632c:	bf28      	it	cs
1000632e:	f042 0201 	orrcs.w	r2, r2, #1
10006332:	e7ca      	b.n	100062ca <best_effort_wfe_or_timeout+0x7a>
10006334:	42a2      	cmp	r2, r4
10006336:	d1e5      	bne.n	10006304 <best_effort_wfe_or_timeout+0xb4>
10006338:	bf20      	wfe
1000633a:	e7e3      	b.n	10006304 <best_effort_wfe_or_timeout+0xb4>
1000633c:	400b0000 	.word	0x400b0000
10006340:	2000137c 	.word	0x2000137c
10006344:	10005cd5 	.word	0x10005cd5

10006348 <timer_hardware_alarm_claim>:
10006348:	b410      	push	{r4}
1000634a:	4b05      	ldr	r3, [pc, #20]	@ (10006360 <timer_hardware_alarm_claim+0x18>)
1000634c:	4c05      	ldr	r4, [pc, #20]	@ (10006364 <timer_hardware_alarm_claim+0x1c>)
1000634e:	4a06      	ldr	r2, [pc, #24]	@ (10006368 <timer_hardware_alarm_claim+0x20>)
10006350:	42a0      	cmp	r0, r4
10006352:	bf14      	ite	ne
10006354:	4618      	movne	r0, r3
10006356:	1c58      	addeq	r0, r3, #1
10006358:	bc10      	pop	{r4}
1000635a:	f7ff ba51 	b.w	10005800 <hw_claim_or_assert>
1000635e:	bf00      	nop
10006360:	20008a00 	.word	0x20008a00
10006364:	400b8000 	.word	0x400b8000
10006368:	1000c024 	.word	0x1000c024

1000636c <timer_time_us_64>:
1000636c:	4603      	mov	r3, r0
1000636e:	6a41      	ldr	r1, [r0, #36]	@ 0x24
10006370:	460a      	mov	r2, r1
10006372:	6a98      	ldr	r0, [r3, #40]	@ 0x28
10006374:	6a59      	ldr	r1, [r3, #36]	@ 0x24
10006376:	428a      	cmp	r2, r1
10006378:	d1fa      	bne.n	10006370 <timer_time_us_64+0x4>
1000637a:	4770      	bx	lr

1000637c <time_us_64>:
1000637c:	4b03      	ldr	r3, [pc, #12]	@ (1000638c <time_us_64+0x10>)
1000637e:	6a59      	ldr	r1, [r3, #36]	@ 0x24
10006380:	460a      	mov	r2, r1
10006382:	6a98      	ldr	r0, [r3, #40]	@ 0x28
10006384:	6a59      	ldr	r1, [r3, #36]	@ 0x24
10006386:	4291      	cmp	r1, r2
10006388:	d1fa      	bne.n	10006380 <time_us_64+0x4>
1000638a:	4770      	bx	lr
1000638c:	400b0000 	.word	0x400b0000

10006390 <busy_wait_us>:
10006390:	b500      	push	{lr}
10006392:	468e      	mov	lr, r1
10006394:	4a15      	ldr	r2, [pc, #84]	@ (100063ec <busy_wait_us+0x5c>)
10006396:	6a53      	ldr	r3, [r2, #36]	@ 0x24
10006398:	469c      	mov	ip, r3
1000639a:	6a91      	ldr	r1, [r2, #40]	@ 0x28
1000639c:	6a53      	ldr	r3, [r2, #36]	@ 0x24
1000639e:	4563      	cmp	r3, ip
100063a0:	d1fa      	bne.n	10006398 <busy_wait_us+0x8>
100063a2:	1840      	adds	r0, r0, r1
100063a4:	eb53 030e 	adcs.w	r3, r3, lr
100063a8:	f04f 0200 	mov.w	r2, #0
100063ac:	bf28      	it	cs
100063ae:	2201      	movcs	r2, #1
100063b0:	b1ba      	cbz	r2, 100063e2 <busy_wait_us+0x52>
100063b2:	4b0e      	ldr	r3, [pc, #56]	@ (100063ec <busy_wait_us+0x5c>)
100063b4:	6a5a      	ldr	r2, [r3, #36]	@ 0x24
100063b6:	1c53      	adds	r3, r2, #1
100063b8:	bf08      	it	eq
100063ba:	4610      	moveq	r0, r2
100063bc:	d008      	beq.n	100063d0 <busy_wait_us+0x40>
100063be:	f04f 33ff 	mov.w	r3, #4294967295	@ 0xffffffff
100063c2:	4618      	mov	r0, r3
100063c4:	4909      	ldr	r1, [pc, #36]	@ (100063ec <busy_wait_us+0x5c>)
100063c6:	6a4a      	ldr	r2, [r1, #36]	@ 0x24
100063c8:	429a      	cmp	r2, r3
100063ca:	d3fc      	bcc.n	100063c6 <busy_wait_us+0x36>
100063cc:	429a      	cmp	r2, r3
100063ce:	d107      	bne.n	100063e0 <busy_wait_us+0x50>
100063d0:	4b06      	ldr	r3, [pc, #24]	@ (100063ec <busy_wait_us+0x5c>)
100063d2:	e002      	b.n	100063da <busy_wait_us+0x4a>
100063d4:	6a59      	ldr	r1, [r3, #36]	@ 0x24
100063d6:	4291      	cmp	r1, r2
100063d8:	d102      	bne.n	100063e0 <busy_wait_us+0x50>
100063da:	6a99      	ldr	r1, [r3, #40]	@ 0x28
100063dc:	4281      	cmp	r1, r0
100063de:	d3f9      	bcc.n	100063d4 <busy_wait_us+0x44>
100063e0:	bd00      	pop	{pc}
100063e2:	4a02      	ldr	r2, [pc, #8]	@ (100063ec <busy_wait_us+0x5c>)
100063e4:	6a52      	ldr	r2, [r2, #36]	@ 0x24
100063e6:	4293      	cmp	r3, r2
100063e8:	d8ec      	bhi.n	100063c4 <busy_wait_us+0x34>
100063ea:	e7ef      	b.n	100063cc <busy_wait_us+0x3c>
100063ec:	400b0000 	.word	0x400b0000

100063f0 <uart_init>:
100063f0:	b570      	push	{r4, r5, r6, lr}
100063f2:	4604      	mov	r4, r0
100063f4:	b082      	sub	sp, #8
100063f6:	2006      	movs	r0, #6
100063f8:	460e      	mov	r6, r1
100063fa:	f000 f95f 	bl	100066bc <clock_get_hz>
100063fe:	2800      	cmp	r0, #0
10006400:	d044      	beq.n	1000648c <uart_init+0x9c>
10006402:	4a38      	ldr	r2, [pc, #224]	@ (100064e4 <uart_init+0xf4>)
10006404:	4838      	ldr	r0, [pc, #224]	@ (100064e8 <uart_init+0xf8>)
10006406:	4294      	cmp	r4, r2
10006408:	bf14      	ite	ne
1000640a:	f04f 6280 	movne.w	r2, #67108864	@ 0x4000000
1000640e:	f04f 6200 	moveq.w	r2, #134217728	@ 0x8000000
10006412:	4b36      	ldr	r3, [pc, #216]	@ (100064ec <uart_init+0xfc>)
10006414:	4936      	ldr	r1, [pc, #216]	@ (100064f0 <uart_init+0x100>)
10006416:	6002      	str	r2, [r0, #0]
10006418:	601a      	str	r2, [r3, #0]
1000641a:	688d      	ldr	r5, [r1, #8]
1000641c:	ea32 0505 	bics.w	r5, r2, r5
10006420:	d1fb      	bne.n	1000641a <uart_init+0x2a>
10006422:	4a30      	ldr	r2, [pc, #192]	@ (100064e4 <uart_init+0xf4>)
10006424:	f44f 7080 	mov.w	r0, #256	@ 0x100
10006428:	1aa2      	subs	r2, r4, r2
1000642a:	fab2 f282 	clz	r2, r2
1000642e:	4931      	ldr	r1, [pc, #196]	@ (100064f4 <uart_init+0x104>)
10006430:	0952      	lsrs	r2, r2, #5
10006432:	f821 0012 	strh.w	r0, [r1, r2, lsl #1]
10006436:	2006      	movs	r0, #6
10006438:	f000 f940 	bl	100066bc <clock_get_hz>
1000643c:	00c2      	lsls	r2, r0, #3
1000643e:	fbb2 f2f6 	udiv	r2, r2, r6
10006442:	3201      	adds	r2, #1
10006444:	09d1      	lsrs	r1, r2, #7
10006446:	d123      	bne.n	10006490 <uart_init+0xa0>
10006448:	2640      	movs	r6, #64	@ 0x40
1000644a:	2301      	movs	r3, #1
1000644c:	6263      	str	r3, [r4, #36]	@ 0x24
1000644e:	62a1      	str	r1, [r4, #40]	@ 0x28
10006450:	6b25      	ldr	r5, [r4, #48]	@ 0x30
10006452:	07eb      	lsls	r3, r5, #31
10006454:	d425      	bmi.n	100064a2 <uart_init+0xb2>
10006456:	4623      	mov	r3, r4
10006458:	2100      	movs	r1, #0
1000645a:	f853 2f2c 	ldr.w	r2, [r3, #44]!
1000645e:	2006      	movs	r0, #6
10006460:	f503 5280 	add.w	r2, r3, #4096	@ 0x1000
10006464:	6011      	str	r1, [r2, #0]
10006466:	6325      	str	r5, [r4, #48]	@ 0x30
10006468:	9201      	str	r2, [sp, #4]
1000646a:	f000 f927 	bl	100066bc <clock_get_hz>
1000646e:	f240 3501 	movw	r5, #769	@ 0x301
10006472:	2103      	movs	r1, #3
10006474:	0080      	lsls	r0, r0, #2
10006476:	fbb0 f0f6 	udiv	r0, r0, r6
1000647a:	6ae3      	ldr	r3, [r4, #44]	@ 0x2c
1000647c:	9a01      	ldr	r2, [sp, #4]
1000647e:	f083 0370 	eor.w	r3, r3, #112	@ 0x70
10006482:	f003 037e 	and.w	r3, r3, #126	@ 0x7e
10006486:	6013      	str	r3, [r2, #0]
10006488:	6325      	str	r5, [r4, #48]	@ 0x30
1000648a:	64a1      	str	r1, [r4, #72]	@ 0x48
1000648c:	b002      	add	sp, #8
1000648e:	bd70      	pop	{r4, r5, r6, pc}
10006490:	f64f 70fe 	movw	r0, #65534	@ 0xfffe
10006494:	4281      	cmp	r1, r0
10006496:	d91d      	bls.n	100064d4 <uart_init+0xe4>
10006498:	4629      	mov	r1, r5
1000649a:	f64f 73ff 	movw	r3, #65535	@ 0xffff
1000649e:	4e16      	ldr	r6, [pc, #88]	@ (100064f8 <uart_init+0x108>)
100064a0:	e7d4      	b.n	1000644c <uart_init+0x5c>
100064a2:	f240 3201 	movw	r2, #769	@ 0x301
100064a6:	f504 5340 	add.w	r3, r4, #12288	@ 0x3000
100064aa:	631a      	str	r2, [r3, #48]	@ 0x30
100064ac:	6a63      	ldr	r3, [r4, #36]	@ 0x24
100064ae:	6aa2      	ldr	r2, [r4, #40]	@ 0x28
100064b0:	2006      	movs	r0, #6
100064b2:	eb02 1283 	add.w	r2, r2, r3, lsl #6
100064b6:	9201      	str	r2, [sp, #4]
100064b8:	f000 f900 	bl	100066bc <clock_get_hz>
100064bc:	4b0f      	ldr	r3, [pc, #60]	@ (100064fc <uart_init+0x10c>)
100064be:	9a01      	ldr	r2, [sp, #4]
100064c0:	fba3 1300 	umull	r1, r3, r3, r0
100064c4:	0290      	lsls	r0, r2, #10
100064c6:	0adb      	lsrs	r3, r3, #11
100064c8:	fbb0 f0f3 	udiv	r0, r0, r3
100064cc:	2100      	movs	r1, #0
100064ce:	f7ff ff5f 	bl	10006390 <busy_wait_us>
100064d2:	e7c0      	b.n	10006456 <uart_init+0x66>
100064d4:	f3c2 0245 	ubfx	r2, r2, #1, #6
100064d8:	460b      	mov	r3, r1
100064da:	eb02 1681 	add.w	r6, r2, r1, lsl #6
100064de:	4611      	mov	r1, r2
100064e0:	e7b4      	b.n	1000644c <uart_init+0x5c>
100064e2:	bf00      	nop
100064e4:	40078000 	.word	0x40078000
100064e8:	40022000 	.word	0x40022000
100064ec:	40023000 	.word	0x40023000
100064f0:	40020000 	.word	0x40020000
100064f4:	2001f3a8 	.word	0x2001f3a8
100064f8:	003fffc0 	.word	0x003fffc0
100064fc:	8f2b7b75 	.word	0x8f2b7b75

10006500 <uart_set_format>:
10006500:	b530      	push	{r4, r5, lr}
10006502:	3a01      	subs	r2, #1
10006504:	3905      	subs	r1, #5
10006506:	00d2      	lsls	r2, r2, #3
10006508:	4604      	mov	r4, r0
1000650a:	b083      	sub	sp, #12
1000650c:	ea42 1241 	orr.w	r2, r2, r1, lsl #5
10006510:	b143      	cbz	r3, 10006524 <uart_set_format+0x24>
10006512:	f1a3 0301 	sub.w	r3, r3, #1
10006516:	fab3 f383 	clz	r3, r3
1000651a:	095b      	lsrs	r3, r3, #5
1000651c:	ea42 0383 	orr.w	r3, r2, r3, lsl #2
10006520:	f043 0202 	orr.w	r2, r3, #2
10006524:	6b25      	ldr	r5, [r4, #48]	@ 0x30
10006526:	07eb      	lsls	r3, r5, #31
10006528:	d40b      	bmi.n	10006542 <uart_set_format+0x42>
1000652a:	4623      	mov	r3, r4
1000652c:	f853 1f2c 	ldr.w	r1, [r3, #44]!
10006530:	404a      	eors	r2, r1
10006532:	f002 026e 	and.w	r2, r2, #110	@ 0x6e
10006536:	f503 5380 	add.w	r3, r3, #4096	@ 0x1000
1000653a:	601a      	str	r2, [r3, #0]
1000653c:	6325      	str	r5, [r4, #48]	@ 0x30
1000653e:	b003      	add	sp, #12
10006540:	bd30      	pop	{r4, r5, pc}
10006542:	f240 3101 	movw	r1, #769	@ 0x301
10006546:	f504 5340 	add.w	r3, r4, #12288	@ 0x3000
1000654a:	6319      	str	r1, [r3, #48]	@ 0x30
1000654c:	6a61      	ldr	r1, [r4, #36]	@ 0x24
1000654e:	6aa3      	ldr	r3, [r4, #40]	@ 0x28
10006550:	2006      	movs	r0, #6
10006552:	eb03 1381 	add.w	r3, r3, r1, lsl #6
10006556:	9201      	str	r2, [sp, #4]
10006558:	9300      	str	r3, [sp, #0]
1000655a:	f000 f8af 	bl	100066bc <clock_get_hz>
1000655e:	4906      	ldr	r1, [pc, #24]	@ (10006578 <uart_set_format+0x78>)
10006560:	9b00      	ldr	r3, [sp, #0]
10006562:	fba1 1000 	umull	r1, r0, r1, r0
10006566:	029b      	lsls	r3, r3, #10
10006568:	0ac0      	lsrs	r0, r0, #11
1000656a:	fbb3 f0f0 	udiv	r0, r3, r0
1000656e:	2100      	movs	r1, #0
10006570:	f7ff ff0e 	bl	10006390 <busy_wait_us>
10006574:	9a01      	ldr	r2, [sp, #4]
10006576:	e7d8      	b.n	1000652a <uart_set_format+0x2a>
10006578:	8f2b7b75 	.word	0x8f2b7b75

1000657c <uart_set_fifo_enabled>:
1000657c:	b530      	push	{r4, r5, lr}
1000657e:	6b04      	ldr	r4, [r0, #48]	@ 0x30
10006580:	460d      	mov	r5, r1
10006582:	07e2      	lsls	r2, r4, #31
10006584:	4603      	mov	r3, r0
10006586:	b083      	sub	sp, #12
10006588:	d40c      	bmi.n	100065a4 <uart_set_fifo_enabled+0x28>
1000658a:	461a      	mov	r2, r3
1000658c:	f852 1f2c 	ldr.w	r1, [r2, #44]!
10006590:	ea81 1105 	eor.w	r1, r1, r5, lsl #4
10006594:	f001 0110 	and.w	r1, r1, #16
10006598:	f502 5280 	add.w	r2, r2, #4096	@ 0x1000
1000659c:	6011      	str	r1, [r2, #0]
1000659e:	631c      	str	r4, [r3, #48]	@ 0x30
100065a0:	b003      	add	sp, #12
100065a2:	bd30      	pop	{r4, r5, pc}
100065a4:	f240 3101 	movw	r1, #769	@ 0x301
100065a8:	f500 5240 	add.w	r2, r0, #12288	@ 0x3000
100065ac:	6311      	str	r1, [r2, #48]	@ 0x30
100065ae:	6a59      	ldr	r1, [r3, #36]	@ 0x24
100065b0:	6a9a      	ldr	r2, [r3, #40]	@ 0x28
100065b2:	2006      	movs	r0, #6
100065b4:	eb02 1281 	add.w	r2, r2, r1, lsl #6
100065b8:	9301      	str	r3, [sp, #4]
100065ba:	9200      	str	r2, [sp, #0]
100065bc:	f000 f87e 	bl	100066bc <clock_get_hz>
100065c0:	4906      	ldr	r1, [pc, #24]	@ (100065dc <uart_set_fifo_enabled+0x60>)
100065c2:	9a00      	ldr	r2, [sp, #0]
100065c4:	fba1 1000 	umull	r1, r0, r1, r0
100065c8:	0292      	lsls	r2, r2, #10
100065ca:	0ac0      	lsrs	r0, r0, #11
100065cc:	fbb2 f0f0 	udiv	r0, r2, r0
100065d0:	2100      	movs	r1, #0
100065d2:	f7ff fedd 	bl	10006390 <busy_wait_us>
100065d6:	9b01      	ldr	r3, [sp, #4]
100065d8:	e7d7      	b.n	1000658a <uart_set_fifo_enabled+0xe>
100065da:	bf00      	nop
100065dc:	8f2b7b75 	.word	0x8f2b7b75

100065e0 <clock_configure_undivided>:
100065e0:	eb00 0c40 	add.w	ip, r0, r0, lsl #1
100065e4:	ea4f 0c8c 	mov.w	ip, ip, lsl #2
100065e8:	f10c 4c80 	add.w	ip, ip, #1073741824	@ 0x40000000
100065ec:	f50c 3c80 	add.w	ip, ip, #65536	@ 0x10000
100065f0:	b570      	push	{r4, r5, r6, lr}
100065f2:	461e      	mov	r6, r3
100065f4:	f8dc 3004 	ldr.w	r3, [ip, #4]
100065f8:	1f04      	subs	r4, r0, #4
100065fa:	f5b3 3f80 	cmp.w	r3, #65536	@ 0x10000
100065fe:	bf38      	it	cc
10006600:	f44f 3380 	movcc.w	r3, #65536	@ 0x10000
10006604:	b2e4      	uxtb	r4, r4
10006606:	bf38      	it	cc
10006608:	f8cc 3004 	strcc.w	r3, [ip, #4]
1000660c:	2c01      	cmp	r4, #1
1000660e:	d92e      	bls.n	1000666e <clock_configure_undivided+0x8e>
10006610:	f44f 6500 	mov.w	r5, #2048	@ 0x800
10006614:	4b28      	ldr	r3, [pc, #160]	@ (100066b8 <clock_configure_undivided+0xd8>)
10006616:	f50c 5e40 	add.w	lr, ip, #12288	@ 0x3000
1000661a:	f8ce 5000 	str.w	r5, [lr]
1000661e:	f853 e020 	ldr.w	lr, [r3, r0, lsl #2]
10006622:	f1be 0f00 	cmp.w	lr, #0
10006626:	d117      	bne.n	10006658 <clock_configure_undivided+0x78>
10006628:	f8dc e000 	ldr.w	lr, [ip]
1000662c:	2c01      	cmp	r4, #1
1000662e:	ea8e 1242 	eor.w	r2, lr, r2, lsl #5
10006632:	f002 02e0 	and.w	r2, r2, #224	@ 0xe0
10006636:	f50c 5e80 	add.w	lr, ip, #4096	@ 0x1000
1000663a:	f8ce 2000 	str.w	r2, [lr]
1000663e:	d92b      	bls.n	10006698 <clock_configure_undivided+0xb8>
10006640:	f44f 6100 	mov.w	r1, #2048	@ 0x800
10006644:	f843 6020 	str.w	r6, [r3, r0, lsl #2]
10006648:	f44f 3380 	mov.w	r3, #65536	@ 0x10000
1000664c:	f50c 5200 	add.w	r2, ip, #8192	@ 0x2000
10006650:	6011      	str	r1, [r2, #0]
10006652:	f8cc 3004 	str.w	r3, [ip, #4]
10006656:	bd70      	pop	{r4, r5, r6, pc}
10006658:	695d      	ldr	r5, [r3, #20]
1000665a:	fbb5 fefe 	udiv	lr, r5, lr
1000665e:	f10e 0e01 	add.w	lr, lr, #1
10006662:	eb0e 0e4e 	add.w	lr, lr, lr, lsl #1
10006666:	f1be 0e03 	subs.w	lr, lr, #3
1000666a:	d2fc      	bcs.n	10006666 <clock_configure_undivided+0x86>
1000666c:	e7dc      	b.n	10006628 <clock_configure_undivided+0x48>
1000666e:	2901      	cmp	r1, #1
10006670:	d1ce      	bne.n	10006610 <clock_configure_undivided+0x30>
10006672:	2403      	movs	r4, #3
10006674:	f50c 5340 	add.w	r3, ip, #12288	@ 0x3000
10006678:	601c      	str	r4, [r3, #0]
1000667a:	f8dc 3008 	ldr.w	r3, [ip, #8]
1000667e:	07db      	lsls	r3, r3, #31
10006680:	d5fb      	bpl.n	1000667a <clock_configure_undivided+0x9a>
10006682:	f8dc 3000 	ldr.w	r3, [ip]
10006686:	f50c 5e80 	add.w	lr, ip, #4096	@ 0x1000
1000668a:	ea83 1342 	eor.w	r3, r3, r2, lsl #5
1000668e:	f003 03e0 	and.w	r3, r3, #224	@ 0xe0
10006692:	f8ce 3000 	str.w	r3, [lr]
10006696:	4b08      	ldr	r3, [pc, #32]	@ (100066b8 <clock_configure_undivided+0xd8>)
10006698:	2201      	movs	r2, #1
1000669a:	f8dc 4000 	ldr.w	r4, [ip]
1000669e:	404c      	eors	r4, r1
100066a0:	f004 0403 	and.w	r4, r4, #3
100066a4:	f8ce 4000 	str.w	r4, [lr]
100066a8:	fa02 f101 	lsl.w	r1, r2, r1
100066ac:	f8dc 2008 	ldr.w	r2, [ip, #8]
100066b0:	420a      	tst	r2, r1
100066b2:	d0fb      	beq.n	100066ac <clock_configure_undivided+0xcc>
100066b4:	e7c4      	b.n	10006640 <clock_configure_undivided+0x60>
100066b6:	bf00      	nop
100066b8:	20008a88 	.word	0x20008a88

100066bc <clock_get_hz>:
100066bc:	4b01      	ldr	r3, [pc, #4]	@ (100066c4 <clock_get_hz+0x8>)
100066be:	f853 0020 	ldr.w	r0, [r3, r0, lsl #2]
100066c2:	4770      	bx	lr
100066c4:	20008a88 	.word	0x20008a88

100066c8 <set_sys_clock_pll>:
100066c8:	e92d 41f0 	stmdb	sp!, {r4, r5, r6, r7, r8, lr}
100066cc:	4c58      	ldr	r4, [pc, #352]	@ (10006830 <set_sys_clock_pll+0x168>)
100066ce:	4606      	mov	r6, r0
100066d0:	6c20      	ldr	r0, [r4, #64]	@ 0x40
100066d2:	4617      	mov	r7, r2
100066d4:	f5b0 3f80 	cmp.w	r0, #65536	@ 0x10000
100066d8:	bf38      	it	cc
100066da:	f44f 3280 	movcc.w	r2, #65536	@ 0x10000
100066de:	460b      	mov	r3, r1
100066e0:	f04f 0103 	mov.w	r1, #3
100066e4:	b084      	sub	sp, #16
100066e6:	bf38      	it	cc
100066e8:	6422      	strcc	r2, [r4, #64]	@ 0x40
100066ea:	4a52      	ldr	r2, [pc, #328]	@ (10006834 <set_sys_clock_pll+0x16c>)
100066ec:	4c50      	ldr	r4, [pc, #320]	@ (10006830 <set_sys_clock_pll+0x168>)
100066ee:	63d1      	str	r1, [r2, #60]	@ 0x3c
100066f0:	6c62      	ldr	r2, [r4, #68]	@ 0x44
100066f2:	07d2      	lsls	r2, r2, #31
100066f4:	d5fc      	bpl.n	100066f0 <set_sys_clock_pll+0x28>
100066f6:	6be2      	ldr	r2, [r4, #60]	@ 0x3c
100066f8:	494f      	ldr	r1, [pc, #316]	@ (10006838 <set_sys_clock_pll+0x170>)
100066fa:	f082 0220 	eor.w	r2, r2, #32
100066fe:	f002 02e0 	and.w	r2, r2, #224	@ 0xe0
10006702:	63ca      	str	r2, [r1, #60]	@ 0x3c
10006704:	6be2      	ldr	r2, [r4, #60]	@ 0x3c
10006706:	4c4a      	ldr	r4, [pc, #296]	@ (10006830 <set_sys_clock_pll+0x168>)
10006708:	f082 0201 	eor.w	r2, r2, #1
1000670c:	f002 0203 	and.w	r2, r2, #3
10006710:	63ca      	str	r2, [r1, #60]	@ 0x3c
10006712:	6c62      	ldr	r2, [r4, #68]	@ 0x44
10006714:	0795      	lsls	r5, r2, #30
10006716:	d5fc      	bpl.n	10006712 <set_sys_clock_pll+0x4a>
10006718:	f44f 6100 	mov.w	r1, #2048	@ 0x800
1000671c:	f44f 3880 	mov.w	r8, #65536	@ 0x10000
10006720:	4a46      	ldr	r2, [pc, #280]	@ (1000683c <set_sys_clock_pll+0x174>)
10006722:	4d47      	ldr	r5, [pc, #284]	@ (10006840 <set_sys_clock_pll+0x178>)
10006724:	63d1      	str	r1, [r2, #60]	@ 0x3c
10006726:	4a47      	ldr	r2, [pc, #284]	@ (10006844 <set_sys_clock_pll+0x17c>)
10006728:	9303      	str	r3, [sp, #12]
1000672a:	616a      	str	r2, [r5, #20]
1000672c:	2101      	movs	r1, #1
1000672e:	4632      	mov	r2, r6
10006730:	f8c4 8040 	str.w	r8, [r4, #64]	@ 0x40
10006734:	4844      	ldr	r0, [pc, #272]	@ (10006848 <set_sys_clock_pll+0x180>)
10006736:	9700      	str	r7, [sp, #0]
10006738:	f000 f88a 	bl	10006850 <pll_init>
1000673c:	f44f 6100 	mov.w	r1, #2048	@ 0x800
10006740:	9b03      	ldr	r3, [sp, #12]
10006742:	fb07 f303 	mul.w	r3, r7, r3
10006746:	fbb6 f6f3 	udiv	r6, r6, r3
1000674a:	6b63      	ldr	r3, [r4, #52]	@ 0x34
1000674c:	4543      	cmp	r3, r8
1000674e:	bf38      	it	cc
10006750:	f8c4 8034 	strcc.w	r8, [r4, #52]	@ 0x34
10006754:	4b37      	ldr	r3, [pc, #220]	@ (10006834 <set_sys_clock_pll+0x16c>)
10006756:	692a      	ldr	r2, [r5, #16]
10006758:	6319      	str	r1, [r3, #48]	@ 0x30
1000675a:	b13a      	cbz	r2, 1000676c <set_sys_clock_pll+0xa4>
1000675c:	696b      	ldr	r3, [r5, #20]
1000675e:	fbb3 f3f2 	udiv	r3, r3, r2
10006762:	3301      	adds	r3, #1
10006764:	eb03 0343 	add.w	r3, r3, r3, lsl #1
10006768:	3b03      	subs	r3, #3
1000676a:	d2fd      	bcs.n	10006768 <set_sys_clock_pll+0xa0>
1000676c:	4930      	ldr	r1, [pc, #192]	@ (10006830 <set_sys_clock_pll+0x168>)
1000676e:	4a32      	ldr	r2, [pc, #200]	@ (10006838 <set_sys_clock_pll+0x170>)
10006770:	6b0b      	ldr	r3, [r1, #48]	@ 0x30
10006772:	f003 03e0 	and.w	r3, r3, #224	@ 0xe0
10006776:	6313      	str	r3, [r2, #48]	@ 0x30
10006778:	6b0b      	ldr	r3, [r1, #48]	@ 0x30
1000677a:	f083 0302 	eor.w	r3, r3, #2
1000677e:	f003 0303 	and.w	r3, r3, #3
10006782:	6313      	str	r3, [r2, #48]	@ 0x30
10006784:	6b8b      	ldr	r3, [r1, #56]	@ 0x38
10006786:	0758      	lsls	r0, r3, #29
10006788:	d5fc      	bpl.n	10006784 <set_sys_clock_pll+0xbc>
1000678a:	f44f 6400 	mov.w	r4, #2048	@ 0x800
1000678e:	f44f 3380 	mov.w	r3, #65536	@ 0x10000
10006792:	4a2a      	ldr	r2, [pc, #168]	@ (1000683c <set_sys_clock_pll+0x174>)
10006794:	6314      	str	r4, [r2, #48]	@ 0x30
10006796:	4a2d      	ldr	r2, [pc, #180]	@ (1000684c <set_sys_clock_pll+0x184>)
10006798:	634b      	str	r3, [r1, #52]	@ 0x34
1000679a:	612a      	str	r2, [r5, #16]
1000679c:	6c0a      	ldr	r2, [r1, #64]	@ 0x40
1000679e:	4c24      	ldr	r4, [pc, #144]	@ (10006830 <set_sys_clock_pll+0x168>)
100067a0:	429a      	cmp	r2, r3
100067a2:	f04f 0203 	mov.w	r2, #3
100067a6:	bf38      	it	cc
100067a8:	640b      	strcc	r3, [r1, #64]	@ 0x40
100067aa:	4b22      	ldr	r3, [pc, #136]	@ (10006834 <set_sys_clock_pll+0x16c>)
100067ac:	63da      	str	r2, [r3, #60]	@ 0x3c
100067ae:	6c63      	ldr	r3, [r4, #68]	@ 0x44
100067b0:	07da      	lsls	r2, r3, #31
100067b2:	d5fc      	bpl.n	100067ae <set_sys_clock_pll+0xe6>
100067b4:	6be3      	ldr	r3, [r4, #60]	@ 0x3c
100067b6:	4a20      	ldr	r2, [pc, #128]	@ (10006838 <set_sys_clock_pll+0x170>)
100067b8:	f003 03e0 	and.w	r3, r3, #224	@ 0xe0
100067bc:	63d3      	str	r3, [r2, #60]	@ 0x3c
100067be:	6be3      	ldr	r3, [r4, #60]	@ 0x3c
100067c0:	491b      	ldr	r1, [pc, #108]	@ (10006830 <set_sys_clock_pll+0x168>)
100067c2:	f083 0301 	eor.w	r3, r3, #1
100067c6:	f003 0303 	and.w	r3, r3, #3
100067ca:	63d3      	str	r3, [r2, #60]	@ 0x3c
100067cc:	6c4b      	ldr	r3, [r1, #68]	@ 0x44
100067ce:	079b      	lsls	r3, r3, #30
100067d0:	d5fc      	bpl.n	100067cc <set_sys_clock_pll+0x104>
100067d2:	f44f 3380 	mov.w	r3, #65536	@ 0x10000
100067d6:	f44f 6400 	mov.w	r4, #2048	@ 0x800
100067da:	4a18      	ldr	r2, [pc, #96]	@ (1000683c <set_sys_clock_pll+0x174>)
100067dc:	616e      	str	r6, [r5, #20]
100067de:	63d4      	str	r4, [r2, #60]	@ 0x3c
100067e0:	640b      	str	r3, [r1, #64]	@ 0x40
100067e2:	6cca      	ldr	r2, [r1, #76]	@ 0x4c
100067e4:	429a      	cmp	r2, r3
100067e6:	bf38      	it	cc
100067e8:	64cb      	strcc	r3, [r1, #76]	@ 0x4c
100067ea:	f44f 6100 	mov.w	r1, #2048	@ 0x800
100067ee:	4b11      	ldr	r3, [pc, #68]	@ (10006834 <set_sys_clock_pll+0x16c>)
100067f0:	69aa      	ldr	r2, [r5, #24]
100067f2:	6499      	str	r1, [r3, #72]	@ 0x48
100067f4:	b13a      	cbz	r2, 10006806 <set_sys_clock_pll+0x13e>
100067f6:	696b      	ldr	r3, [r5, #20]
100067f8:	fbb3 f3f2 	udiv	r3, r3, r2
100067fc:	3301      	adds	r3, #1
100067fe:	eb03 0343 	add.w	r3, r3, r3, lsl #1
10006802:	3b03      	subs	r3, #3
10006804:	d2fd      	bcs.n	10006802 <set_sys_clock_pll+0x13a>
10006806:	f44f 6000 	mov.w	r0, #2048	@ 0x800
1000680a:	f44f 3180 	mov.w	r1, #65536	@ 0x10000
1000680e:	4a08      	ldr	r2, [pc, #32]	@ (10006830 <set_sys_clock_pll+0x168>)
10006810:	4c09      	ldr	r4, [pc, #36]	@ (10006838 <set_sys_clock_pll+0x170>)
10006812:	6c93      	ldr	r3, [r2, #72]	@ 0x48
10006814:	f083 0340 	eor.w	r3, r3, #64	@ 0x40
10006818:	f003 03e0 	and.w	r3, r3, #224	@ 0xe0
1000681c:	64a3      	str	r3, [r4, #72]	@ 0x48
1000681e:	4b07      	ldr	r3, [pc, #28]	@ (1000683c <set_sys_clock_pll+0x174>)
10006820:	4c08      	ldr	r4, [pc, #32]	@ (10006844 <set_sys_clock_pll+0x17c>)
10006822:	61ac      	str	r4, [r5, #24]
10006824:	6498      	str	r0, [r3, #72]	@ 0x48
10006826:	64d1      	str	r1, [r2, #76]	@ 0x4c
10006828:	b004      	add	sp, #16
1000682a:	e8bd 81f0 	ldmia.w	sp!, {r4, r5, r6, r7, r8, pc}
1000682e:	bf00      	nop
10006830:	40010000 	.word	0x40010000
10006834:	40013000 	.word	0x40013000
10006838:	40011000 	.word	0x40011000
1000683c:	40012000 	.word	0x40012000
10006840:	20008a88 	.word	0x20008a88
10006844:	02dc6c00 	.word	0x02dc6c00
10006848:	40050000 	.word	0x40050000
1000684c:	00b71b00 	.word	0x00b71b00

10006850 <pll_init>:
10006850:	b510      	push	{r4, lr}
10006852:	9c02      	ldr	r4, [sp, #8]
10006854:	468e      	mov	lr, r1
10006856:	ea4f 3c04 	mov.w	ip, r4, lsl #12
1000685a:	ea4c 4c03 	orr.w	ip, ip, r3, lsl #16
1000685e:	4b1c      	ldr	r3, [pc, #112]	@ (100068d0 <pll_init+0x80>)
10006860:	fbb3 f3f1 	udiv	r3, r3, r1
10006864:	6801      	ldr	r1, [r0, #0]
10006866:	fbb2 f4f3 	udiv	r4, r2, r3
1000686a:	2900      	cmp	r1, #0
1000686c:	db20      	blt.n	100068b0 <pll_init+0x60>
1000686e:	4a19      	ldr	r2, [pc, #100]	@ (100068d4 <pll_init+0x84>)
10006870:	4b19      	ldr	r3, [pc, #100]	@ (100068d8 <pll_init+0x88>)
10006872:	4290      	cmp	r0, r2
10006874:	bf14      	ite	ne
10006876:	f44f 4280 	movne.w	r2, #16384	@ 0x4000
1000687a:	f44f 4200 	moveq.w	r2, #32768	@ 0x8000
1000687e:	4917      	ldr	r1, [pc, #92]	@ (100068dc <pll_init+0x8c>)
10006880:	601a      	str	r2, [r3, #0]
10006882:	f503 5380 	add.w	r3, r3, #4096	@ 0x1000
10006886:	601a      	str	r2, [r3, #0]
10006888:	688b      	ldr	r3, [r1, #8]
1000688a:	ea32 0303 	bics.w	r3, r2, r3
1000688e:	d1fb      	bne.n	10006888 <pll_init+0x38>
10006890:	2221      	movs	r2, #33	@ 0x21
10006892:	f500 5340 	add.w	r3, r0, #12288	@ 0x3000
10006896:	3304      	adds	r3, #4
10006898:	f8c0 e000 	str.w	lr, [r0]
1000689c:	6084      	str	r4, [r0, #8]
1000689e:	601a      	str	r2, [r3, #0]
100068a0:	6802      	ldr	r2, [r0, #0]
100068a2:	2a00      	cmp	r2, #0
100068a4:	dafc      	bge.n	100068a0 <pll_init+0x50>
100068a6:	2208      	movs	r2, #8
100068a8:	f8c0 c00c 	str.w	ip, [r0, #12]
100068ac:	601a      	str	r2, [r3, #0]
100068ae:	bd10      	pop	{r4, pc}
100068b0:	6803      	ldr	r3, [r0, #0]
100068b2:	f003 033f 	and.w	r3, r3, #63	@ 0x3f
100068b6:	4573      	cmp	r3, lr
100068b8:	d1d9      	bne.n	1000686e <pll_init+0x1e>
100068ba:	6883      	ldr	r3, [r0, #8]
100068bc:	f3c3 030b 	ubfx	r3, r3, #0, #12
100068c0:	42a3      	cmp	r3, r4
100068c2:	d1d4      	bne.n	1000686e <pll_init+0x1e>
100068c4:	68c3      	ldr	r3, [r0, #12]
100068c6:	f403 23ee 	and.w	r3, r3, #487424	@ 0x77000
100068ca:	4563      	cmp	r3, ip
100068cc:	d1cf      	bne.n	1000686e <pll_init+0x1e>
100068ce:	bd10      	pop	{r4, pc}
100068d0:	00b71b00 	.word	0x00b71b00
100068d4:	40058000 	.word	0x40058000
100068d8:	40022000 	.word	0x40022000
100068dc:	40020000 	.word	0x40020000

100068e0 <vreg_set_voltage>:
100068e0:	4b0a      	ldr	r3, [pc, #40]	@ (1000690c <vreg_set_voltage+0x2c>)
100068e2:	490b      	ldr	r1, [pc, #44]	@ (10006910 <vreg_set_voltage+0x30>)
100068e4:	4a0b      	ldr	r2, [pc, #44]	@ (10006914 <vreg_set_voltage+0x34>)
100068e6:	6059      	str	r1, [r3, #4]
100068e8:	68d3      	ldr	r3, [r2, #12]
100068ea:	0419      	lsls	r1, r3, #16
100068ec:	d4fc      	bmi.n	100068e8 <vreg_set_voltage+0x8>
100068ee:	4b0a      	ldr	r3, [pc, #40]	@ (10006918 <vreg_set_voltage+0x38>)
100068f0:	68d2      	ldr	r2, [r2, #12]
100068f2:	ea43 1300 	orr.w	r3, r3, r0, lsl #4
100068f6:	4909      	ldr	r1, [pc, #36]	@ (1000691c <vreg_set_voltage+0x3c>)
100068f8:	4053      	eors	r3, r2
100068fa:	4809      	ldr	r0, [pc, #36]	@ (10006920 <vreg_set_voltage+0x40>)
100068fc:	4019      	ands	r1, r3
100068fe:	4a05      	ldr	r2, [pc, #20]	@ (10006914 <vreg_set_voltage+0x34>)
10006900:	60c1      	str	r1, [r0, #12]
10006902:	68d3      	ldr	r3, [r2, #12]
10006904:	041b      	lsls	r3, r3, #16
10006906:	d4fc      	bmi.n	10006902 <vreg_set_voltage+0x22>
10006908:	4770      	bx	lr
1000690a:	bf00      	nop
1000690c:	40102000 	.word	0x40102000
10006910:	5afe2000 	.word	0x5afe2000
10006914:	40100000 	.word	0x40100000
10006918:	5afe0000 	.word	0x5afe0000
1000691c:	5afe01f0 	.word	0x5afe01f0
10006920:	40101000 	.word	0x40101000

10006924 <watchdog_reboot>:
10006924:	f04f 4c80 	mov.w	ip, #1073741824	@ 0x40000000
10006928:	4b21      	ldr	r3, [pc, #132]	@ (100069b0 <watchdog_reboot+0x8c>)
1000692a:	b500      	push	{lr}
1000692c:	f8c3 c000 	str.w	ip, [r3]
10006930:	2800      	cmp	r0, #0
10006932:	d039      	beq.n	100069a8 <watchdog_reboot+0x84>
10006934:	f8df c088 	ldr.w	ip, [pc, #136]	@ 100069c0 <watchdog_reboot+0x9c>
10006938:	f5a3 5340 	sub.w	r3, r3, #12288	@ 0x3000
1000693c:	f8c3 c01c 	str.w	ip, [r3, #28]
10006940:	f8df c080 	ldr.w	ip, [pc, #128]	@ 100069c4 <watchdog_reboot+0xa0>
10006944:	f040 0001 	orr.w	r0, r0, #1
10006948:	ea80 0c0c 	eor.w	ip, r0, ip
1000694c:	f8c3 c020 	str.w	ip, [r3, #32]
10006950:	6259      	str	r1, [r3, #36]	@ 0x24
10006952:	6298      	str	r0, [r3, #40]	@ 0x28
10006954:	f04f 4e80 	mov.w	lr, #1073741824	@ 0x40000000
10006958:	f04f 61e0 	mov.w	r1, #117440512	@ 0x7000000
1000695c:	4b14      	ldr	r3, [pc, #80]	@ (100069b0 <watchdog_reboot+0x8c>)
1000695e:	4815      	ldr	r0, [pc, #84]	@ (100069b4 <watchdog_reboot+0x90>)
10006960:	f8df c064 	ldr.w	ip, [pc, #100]	@ 100069c8 <watchdog_reboot+0xa4>
10006964:	f8c3 e000 	str.w	lr, [r3]
10006968:	f8c0 c008 	str.w	ip, [r0, #8]
1000696c:	6019      	str	r1, [r3, #0]
1000696e:	b92a      	cbnz	r2, 1000697c <watchdog_reboot+0x58>
10006970:	f04f 4200 	mov.w	r2, #2147483648	@ 0x80000000
10006974:	f5a3 5380 	sub.w	r3, r3, #4096	@ 0x1000
10006978:	601a      	str	r2, [r3, #0]
1000697a:	bd00      	pop	{pc}
1000697c:	f44f 737a 	mov.w	r3, #1000	@ 0x3e8
10006980:	fb03 f202 	mul.w	r2, r3, r2
10006984:	f1b2 7f80 	cmp.w	r2, #16777216	@ 0x1000000
10006988:	bf2a      	itet	cs
1000698a:	f06f 437f 	mvncs.w	r3, #4278190080	@ 0xff000000
1000698e:	4613      	movcc	r3, r2
10006990:	461a      	movcs	r2, r3
10006992:	f04f 4180 	mov.w	r1, #1073741824	@ 0x40000000
10006996:	f8df c034 	ldr.w	ip, [pc, #52]	@ 100069cc <watchdog_reboot+0xa8>
1000699a:	4807      	ldr	r0, [pc, #28]	@ (100069b8 <watchdog_reboot+0x94>)
1000699c:	f8cc 3000 	str.w	r3, [ip]
100069a0:	4b06      	ldr	r3, [pc, #24]	@ (100069bc <watchdog_reboot+0x98>)
100069a2:	6042      	str	r2, [r0, #4]
100069a4:	6019      	str	r1, [r3, #0]
100069a6:	bd00      	pop	{pc}
100069a8:	4b03      	ldr	r3, [pc, #12]	@ (100069b8 <watchdog_reboot+0x94>)
100069aa:	61d8      	str	r0, [r3, #28]
100069ac:	e7d2      	b.n	10006954 <watchdog_reboot+0x30>
100069ae:	bf00      	nop
100069b0:	400db000 	.word	0x400db000
100069b4:	4001a000 	.word	0x4001a000
100069b8:	400d8000 	.word	0x400d8000
100069bc:	400da000 	.word	0x400da000
100069c0:	b007c0d3 	.word	0xb007c0d3
100069c4:	4ff83f2d 	.word	0x4ff83f2d
100069c8:	01fffff3 	.word	0x01fffff3
100069cc:	20008ae4 	.word	0x20008ae4

100069d0 <tick_start>:
100069d0:	2301      	movs	r3, #1
100069d2:	eb00 0040 	add.w	r0, r0, r0, lsl #1
100069d6:	0080      	lsls	r0, r0, #2
100069d8:	f100 4080 	add.w	r0, r0, #1073741824	@ 0x40000000
100069dc:	f500 1084 	add.w	r0, r0, #1081344	@ 0x108000
100069e0:	6041      	str	r1, [r0, #4]
100069e2:	6003      	str	r3, [r0, #0]
100069e4:	4770      	bx	lr
100069e6:	bf00      	nop

100069e8 <rom_func_lookup>:
100069e8:	2300      	movs	r3, #0
100069ea:	8adb      	ldrh	r3, [r3, #22]
100069ec:	2200      	movs	r2, #0
100069ee:	e842 f200 	tt	r2, r2
100069f2:	0252      	lsls	r2, r2, #9
100069f4:	d401      	bmi.n	100069fa <rom_func_lookup+0x12>
100069f6:	2110      	movs	r1, #16
100069f8:	4718      	bx	r3
100069fa:	2104      	movs	r1, #4
100069fc:	4718      	bx	r3
100069fe:	bf00      	nop

10006a00 <runtime_init_bootrom_locking_enable>:
10006a00:	4a03      	ldr	r2, [pc, #12]	@ (10006a10 <runtime_init_bootrom_locking_enable+0x10>)
10006a02:	f8d2 3828 	ldr.w	r3, [r2, #2088]	@ 0x828
10006a06:	2b00      	cmp	r3, #0
10006a08:	d0fb      	beq.n	10006a02 <runtime_init_bootrom_locking_enable+0x2>
10006a0a:	f3bf 8f5f 	dmb	sy
10006a0e:	4770      	bx	lr
10006a10:	400e0000 	.word	0x400e0000

10006a14 <runtime_init_boot_locks_reset>:
10006a14:	2100      	movs	r1, #0
10006a16:	4b04      	ldr	r3, [pc, #16]	@ (10006a28 <runtime_init_boot_locks_reset+0x14>)
10006a18:	4a04      	ldr	r2, [pc, #16]	@ (10006a2c <runtime_init_boot_locks_reset+0x18>)
10006a1a:	f3bf 8f5f 	dmb	sy
10006a1e:	f843 1b04 	str.w	r1, [r3], #4
10006a22:	4293      	cmp	r3, r2
10006a24:	d1f9      	bne.n	10006a1a <runtime_init_boot_locks_reset+0x6>
10006a26:	4770      	bx	lr
10006a28:	400e080c 	.word	0x400e080c
10006a2c:	400e082c 	.word	0x400e082c

10006a30 <xosc_init>:
10006a30:	f44f 6c2a 	mov.w	ip, #2720	@ 0xaa0
10006a34:	f44f 708d 	mov.w	r0, #282	@ 0x11a
10006a38:	4a05      	ldr	r2, [pc, #20]	@ (10006a50 <xosc_init+0x20>)
10006a3a:	4b06      	ldr	r3, [pc, #24]	@ (10006a54 <xosc_init+0x24>)
10006a3c:	4906      	ldr	r1, [pc, #24]	@ (10006a58 <xosc_init+0x28>)
10006a3e:	f8c2 c000 	str.w	ip, [r2]
10006a42:	60d0      	str	r0, [r2, #12]
10006a44:	6019      	str	r1, [r3, #0]
10006a46:	6853      	ldr	r3, [r2, #4]
10006a48:	2b00      	cmp	r3, #0
10006a4a:	dafc      	bge.n	10006a46 <xosc_init+0x16>
10006a4c:	4770      	bx	lr
10006a4e:	bf00      	nop
10006a50:	40048000 	.word	0x40048000
10006a54:	4004a000 	.word	0x4004a000
10006a58:	00fab000 	.word	0x00fab000

10006a5c <first_per_core_initializer>:
10006a5c:	4770      	bx	lr
10006a5e:	bf00      	nop

10006a60 <hard_assertion_failure>:
10006a60:	b508      	push	{r3, lr}
10006a62:	4801      	ldr	r0, [pc, #4]	@ (10006a68 <hard_assertion_failure+0x8>)
10006a64:	f7fe fe98 	bl	10005798 <panic>
10006a68:	1000c048 	.word	0x1000c048

10006a6c <runtime_run_initializers>:
10006a6c:	b538      	push	{r3, r4, r5, lr}
10006a6e:	4c05      	ldr	r4, [pc, #20]	@ (10006a84 <runtime_run_initializers+0x18>)
10006a70:	4d05      	ldr	r5, [pc, #20]	@ (10006a88 <runtime_run_initializers+0x1c>)
10006a72:	42ac      	cmp	r4, r5
10006a74:	d204      	bcs.n	10006a80 <runtime_run_initializers+0x14>
10006a76:	f854 3b04 	ldr.w	r3, [r4], #4
10006a7a:	4798      	blx	r3
10006a7c:	42ac      	cmp	r4, r5
10006a7e:	d3fa      	bcc.n	10006a76 <runtime_run_initializers+0xa>
10006a80:	bd38      	pop	{r3, r4, r5, pc}
10006a82:	bf00      	nop
10006a84:	1000b2d8 	.word	0x1000b2d8
10006a88:	1000b318 	.word	0x1000b318

10006a8c <runtime_run_per_core_initializers>:
10006a8c:	b538      	push	{r3, r4, r5, lr}
10006a8e:	4c05      	ldr	r4, [pc, #20]	@ (10006aa4 <runtime_run_per_core_initializers+0x18>)
10006a90:	4d05      	ldr	r5, [pc, #20]	@ (10006aa8 <runtime_run_per_core_initializers+0x1c>)
10006a92:	42ac      	cmp	r4, r5
10006a94:	d204      	bcs.n	10006aa0 <runtime_run_per_core_initializers+0x14>
10006a96:	f854 3b04 	ldr.w	r3, [r4], #4
10006a9a:	4798      	blx	r3
10006a9c:	42ac      	cmp	r4, r5
10006a9e:	d3fa      	bcc.n	10006a96 <runtime_run_per_core_initializers+0xa>
10006aa0:	bd38      	pop	{r3, r4, r5, pc}
10006aa2:	bf00      	nop
10006aa4:	1000b304 	.word	0x1000b304
10006aa8:	1000b318 	.word	0x1000b318

10006aac <runtime_init_early_resets>:
10006aac:	4806      	ldr	r0, [pc, #24]	@ (10006ac8 <runtime_init_early_resets+0x1c>)
10006aae:	f8df c028 	ldr.w	ip, [pc, #40]	@ 10006ad8 <runtime_init_early_resets+0x2c>
10006ab2:	4b06      	ldr	r3, [pc, #24]	@ (10006acc <runtime_init_early_resets+0x20>)
10006ab4:	4a06      	ldr	r2, [pc, #24]	@ (10006ad0 <runtime_init_early_resets+0x24>)
10006ab6:	4907      	ldr	r1, [pc, #28]	@ (10006ad4 <runtime_init_early_resets+0x28>)
10006ab8:	f8c0 c000 	str.w	ip, [r0]
10006abc:	601a      	str	r2, [r3, #0]
10006abe:	688b      	ldr	r3, [r1, #8]
10006ac0:	ea32 0303 	bics.w	r3, r2, r3
10006ac4:	d1fb      	bne.n	10006abe <runtime_init_early_resets+0x12>
10006ac6:	4770      	bx	lr
10006ac8:	40022000 	.word	0x40022000
10006acc:	40023000 	.word	0x40023000
10006ad0:	03f3fff6 	.word	0x03f3fff6
10006ad4:	40020000 	.word	0x40020000
10006ad8:	efef3b7f 	.word	0xefef3b7f

10006adc <runtime_init_usb_power_down>:
10006adc:	4b04      	ldr	r3, [pc, #16]	@ (10006af0 <runtime_init_usb_power_down+0x14>)
10006ade:	6cdb      	ldr	r3, [r3, #76]	@ 0x4c
10006ae0:	f5b3 4f00 	cmp.w	r3, #32768	@ 0x8000
10006ae4:	d103      	bne.n	10006aee <runtime_init_usb_power_down+0x12>
10006ae6:	f44f 2280 	mov.w	r2, #262144	@ 0x40000
10006aea:	4b02      	ldr	r3, [pc, #8]	@ (10006af4 <runtime_init_usb_power_down+0x18>)
10006aec:	64da      	str	r2, [r3, #76]	@ 0x4c
10006aee:	4770      	bx	lr
10006af0:	50110000 	.word	0x50110000
10006af4:	50112000 	.word	0x50112000

10006af8 <runtime_init_per_core_enable_coprocessors>:
10006af8:	f04f 22e0 	mov.w	r2, #3758153728	@ 0xe000e000
10006afc:	4b04      	ldr	r3, [pc, #16]	@ (10006b10 <runtime_init_per_core_enable_coprocessors+0x18>)
10006afe:	f8d2 1d88 	ldr.w	r1, [r2, #3464]	@ 0xd88
10006b02:	430b      	orrs	r3, r1
10006b04:	f8c2 3d88 	str.w	r3, [r2, #3464]	@ 0xd88
10006b08:	ee10 0430 			dcp_rcmp r0
10006b0c:	4770      	bx	lr
10006b0e:	bf00      	nop
10006b10:	00300303 	.word	0x00300303

10006b14 <runtime_init_post_clock_resets>:
10006b14:	f06f 4160 	mvn.w	r1, #3758096384	@ 0xe0000000
10006b18:	4b04      	ldr	r3, [pc, #16]	@ (10006b2c <runtime_init_post_clock_resets+0x18>)
10006b1a:	4a05      	ldr	r2, [pc, #20]	@ (10006b30 <runtime_init_post_clock_resets+0x1c>)
10006b1c:	6019      	str	r1, [r3, #0]
10006b1e:	6893      	ldr	r3, [r2, #8]
10006b20:	43db      	mvns	r3, r3
10006b22:	f033 4360 	bics.w	r3, r3, #3758096384	@ 0xe0000000
10006b26:	d1fa      	bne.n	10006b1e <runtime_init_post_clock_resets+0xa>
10006b28:	4770      	bx	lr
10006b2a:	bf00      	nop
10006b2c:	40023000 	.word	0x40023000
10006b30:	40020000 	.word	0x40020000

10006b34 <runtime_init_bootrom_reset>:
10006b34:	b510      	push	{r4, lr}
10006b36:	f245 2053 	movw	r0, #21075	@ 0x5253
10006b3a:	f7ff ff55 	bl	100069e8 <rom_func_lookup>
10006b3e:	e8bd 4010 	ldmia.w	sp!, {r4, lr}
10006b42:	4603      	mov	r3, r0
10006b44:	2004      	movs	r0, #4
10006b46:	4718      	bx	r3

10006b48 <runtime_init_per_core_bootrom_reset>:
10006b48:	b510      	push	{r4, lr}
10006b4a:	f245 2053 	movw	r0, #21075	@ 0x5253
10006b4e:	f7ff ff4b 	bl	100069e8 <rom_func_lookup>
10006b52:	e8bd 4010 	ldmia.w	sp!, {r4, lr}
10006b56:	4603      	mov	r3, r0
10006b58:	2001      	movs	r0, #1
10006b5a:	4718      	bx	r3

10006b5c <runtime_init_spin_locks_reset>:
10006b5c:	f7fe be90 	b.w	10005880 <spin_locks_reset>

10006b60 <runtime_init_install_ram_vector_table>:
10006b60:	4914      	ldr	r1, [pc, #80]	@ (10006bb4 <runtime_init_install_ram_vector_table+0x54>)
10006b62:	4b15      	ldr	r3, [pc, #84]	@ (10006bb8 <runtime_init_install_ram_vector_table+0x58>)
10006b64:	b570      	push	{r4, r5, r6, lr}
10006b66:	1a5c      	subs	r4, r3, r1
10006b68:	10a6      	asrs	r6, r4, #2
10006b6a:	2e44      	cmp	r6, #68	@ 0x44
10006b6c:	4632      	mov	r2, r6
10006b6e:	bf28      	it	cs
10006b70:	2244      	movcs	r2, #68	@ 0x44
10006b72:	4d12      	ldr	r5, [pc, #72]	@ (10006bbc <runtime_init_install_ram_vector_table+0x5c>)
10006b74:	0092      	lsls	r2, r2, #2
10006b76:	4628      	mov	r0, r5
10006b78:	f004 f98c 	bl	1000ae94 <memcpy>
10006b7c:	f5b4 7f86 	cmp.w	r4, #268	@ 0x10c
10006b80:	d813      	bhi.n	10006baa <runtime_init_install_ram_vector_table+0x4a>
10006b82:	4a0f      	ldr	r2, [pc, #60]	@ (10006bc0 <runtime_init_install_ram_vector_table+0x60>)
10006b84:	d014      	beq.n	10006bb0 <runtime_init_install_ram_vector_table+0x50>
10006b86:	f1c6 0044 	rsb	r0, r6, #68	@ 0x44
10006b8a:	192b      	adds	r3, r5, r4
10006b8c:	0841      	lsrs	r1, r0, #1
10006b8e:	eb03 01c1 	add.w	r1, r3, r1, lsl #3
10006b92:	e9c3 2200 	strd	r2, r2, [r3]
10006b96:	3308      	adds	r3, #8
10006b98:	4299      	cmp	r1, r3
10006b9a:	d1fa      	bne.n	10006b92 <runtime_init_install_ram_vector_table+0x32>
10006b9c:	07c3      	lsls	r3, r0, #31
10006b9e:	d504      	bpl.n	10006baa <runtime_init_install_ram_vector_table+0x4a>
10006ba0:	f020 0001 	bic.w	r0, r0, #1
10006ba4:	4430      	add	r0, r6
10006ba6:	f845 2020 	str.w	r2, [r5, r0, lsl #2]
10006baa:	4b06      	ldr	r3, [pc, #24]	@ (10006bc4 <runtime_init_install_ram_vector_table+0x64>)
10006bac:	609d      	str	r5, [r3, #8]
10006bae:	bd70      	pop	{r4, r5, r6, pc}
10006bb0:	2043      	movs	r0, #67	@ 0x43
10006bb2:	e7f8      	b.n	10006ba6 <runtime_init_install_ram_vector_table+0x46>
10006bb4:	10000000 	.word	0x10000000
10006bb8:	10000110 	.word	0x10000110
10006bbc:	20000000 	.word	0x20000000
10006bc0:	10000111 	.word	0x10000111
10006bc4:	e000ed00 	.word	0xe000ed00

10006bc8 <runtime_init_clocks>:
10006bc8:	2300      	movs	r3, #0
10006bca:	b570      	push	{r4, r5, r6, lr}
10006bcc:	4c2b      	ldr	r4, [pc, #172]	@ (10006c7c <runtime_init_clocks+0xb4>)
10006bce:	b082      	sub	sp, #8
10006bd0:	f8c4 3084 	str.w	r3, [r4, #132]	@ 0x84
10006bd4:	f7ff ff2c 	bl	10006a30 <xosc_init>
10006bd8:	2201      	movs	r2, #1
10006bda:	4b29      	ldr	r3, [pc, #164]	@ (10006c80 <runtime_init_clocks+0xb8>)
10006bdc:	63da      	str	r2, [r3, #60]	@ 0x3c
10006bde:	6c63      	ldr	r3, [r4, #68]	@ 0x44
10006be0:	2b01      	cmp	r3, #1
10006be2:	d1fc      	bne.n	10006bde <runtime_init_clocks+0x16>
10006be4:	2103      	movs	r1, #3
10006be6:	4a26      	ldr	r2, [pc, #152]	@ (10006c80 <runtime_init_clocks+0xb8>)
10006be8:	4b24      	ldr	r3, [pc, #144]	@ (10006c7c <runtime_init_clocks+0xb4>)
10006bea:	6311      	str	r1, [r2, #48]	@ 0x30
10006bec:	6b9c      	ldr	r4, [r3, #56]	@ 0x38
10006bee:	2c01      	cmp	r4, #1
10006bf0:	d1fc      	bne.n	10006bec <runtime_init_clocks+0x24>
10006bf2:	2602      	movs	r6, #2
10006bf4:	2505      	movs	r5, #5
10006bf6:	4621      	mov	r1, r4
10006bf8:	2305      	movs	r3, #5
10006bfa:	4a22      	ldr	r2, [pc, #136]	@ (10006c84 <runtime_init_clocks+0xbc>)
10006bfc:	4822      	ldr	r0, [pc, #136]	@ (10006c88 <runtime_init_clocks+0xc0>)
10006bfe:	9600      	str	r6, [sp, #0]
10006c00:	f7ff fe26 	bl	10006850 <pll_init>
10006c04:	4621      	mov	r1, r4
10006c06:	462b      	mov	r3, r5
10006c08:	4a20      	ldr	r2, [pc, #128]	@ (10006c8c <runtime_init_clocks+0xc4>)
10006c0a:	4821      	ldr	r0, [pc, #132]	@ (10006c90 <runtime_init_clocks+0xc8>)
10006c0c:	9500      	str	r5, [sp, #0]
10006c0e:	f7ff fe1f 	bl	10006850 <pll_init>
10006c12:	2200      	movs	r2, #0
10006c14:	2004      	movs	r0, #4
10006c16:	4631      	mov	r1, r6
10006c18:	4b1e      	ldr	r3, [pc, #120]	@ (10006c94 <runtime_init_clocks+0xcc>)
10006c1a:	f7ff fce1 	bl	100065e0 <clock_configure_undivided>
10006c1e:	4621      	mov	r1, r4
10006c20:	4628      	mov	r0, r5
10006c22:	2200      	movs	r2, #0
10006c24:	4b1c      	ldr	r3, [pc, #112]	@ (10006c98 <runtime_init_clocks+0xd0>)
10006c26:	f7ff fcdb 	bl	100065e0 <clock_configure_undivided>
10006c2a:	2200      	movs	r2, #0
10006c2c:	2008      	movs	r0, #8
10006c2e:	4611      	mov	r1, r2
10006c30:	4b1a      	ldr	r3, [pc, #104]	@ (10006c9c <runtime_init_clocks+0xd4>)
10006c32:	f7ff fcd5 	bl	100065e0 <clock_configure_undivided>
10006c36:	2200      	movs	r2, #0
10006c38:	2009      	movs	r0, #9
10006c3a:	4611      	mov	r1, r2
10006c3c:	4b17      	ldr	r3, [pc, #92]	@ (10006c9c <runtime_init_clocks+0xd4>)
10006c3e:	f7ff fccf 	bl	100065e0 <clock_configure_undivided>
10006c42:	2200      	movs	r2, #0
10006c44:	2006      	movs	r0, #6
10006c46:	4611      	mov	r1, r2
10006c48:	4b13      	ldr	r3, [pc, #76]	@ (10006c98 <runtime_init_clocks+0xd0>)
10006c4a:	f7ff fcc9 	bl	100065e0 <clock_configure_undivided>
10006c4e:	2200      	movs	r2, #0
10006c50:	4b11      	ldr	r3, [pc, #68]	@ (10006c98 <runtime_init_clocks+0xd0>)
10006c52:	2007      	movs	r0, #7
10006c54:	4611      	mov	r1, r2
10006c56:	f7ff fcc3 	bl	100065e0 <clock_configure_undivided>
10006c5a:	2004      	movs	r0, #4
10006c5c:	f7ff fd2e 	bl	100066bc <clock_get_hz>
10006c60:	2400      	movs	r4, #0
10006c62:	4b0f      	ldr	r3, [pc, #60]	@ (10006ca0 <runtime_init_clocks+0xd8>)
10006c64:	fba3 3500 	umull	r3, r5, r3, r0
10006c68:	0cad      	lsrs	r5, r5, #18
10006c6a:	b2e0      	uxtb	r0, r4
10006c6c:	4629      	mov	r1, r5
10006c6e:	3401      	adds	r4, #1
10006c70:	f7ff feae 	bl	100069d0 <tick_start>
10006c74:	2c06      	cmp	r4, #6
10006c76:	d1f8      	bne.n	10006c6a <runtime_init_clocks+0xa2>
10006c78:	b002      	add	sp, #8
10006c7a:	bd70      	pop	{r4, r5, r6, pc}
10006c7c:	40010000 	.word	0x40010000
10006c80:	40013000 	.word	0x40013000
10006c84:	59682f00 	.word	0x59682f00
10006c88:	40050000 	.word	0x40050000
10006c8c:	47868c00 	.word	0x47868c00
10006c90:	40058000 	.word	0x40058000
10006c94:	00b71b00 	.word	0x00b71b00
10006c98:	08f0d180 	.word	0x08f0d180
10006c9c:	02dc6c00 	.word	0x02dc6c00
10006ca0:	431bde83 	.word	0x431bde83

10006ca4 <__wrap_ceil>:
10006ca4:	f3c1 530a 	ubfx	r3, r1, #20, #11
10006ca8:	460a      	mov	r2, r1
10006caa:	b373      	cbz	r3, 10006d0a <__wrap_ceil+0x66>
10006cac:	f2a3 33ff 	subw	r3, r3, #1023	@ 0x3ff
10006cb0:	2b00      	cmp	r3, #0
10006cb2:	db23      	blt.n	10006cfc <__wrap_ceil+0x58>
10006cb4:	2b33      	cmp	r3, #51	@ 0x33
10006cb6:	dc2c      	bgt.n	10006d12 <__wrap_ceil+0x6e>
10006cb8:	2101      	movs	r1, #1
10006cba:	4684      	mov	ip, r0
10006cbc:	b500      	push	{lr}
10006cbe:	f1c3 0014 	rsb	r0, r3, #20
10006cc2:	f1c3 0e34 	rsb	lr, r3, #52	@ 0x34
10006cc6:	3b14      	subs	r3, #20
10006cc8:	fa01 f000 	lsl.w	r0, r1, r0
10006ccc:	fa21 f303 	lsr.w	r3, r1, r3
10006cd0:	2a00      	cmp	r2, #0
10006cd2:	ea40 0003 	orr.w	r0, r0, r3
10006cd6:	fa01 f10e 	lsl.w	r1, r1, lr
10006cda:	db07      	blt.n	10006cec <__wrap_ceil+0x48>
10006cdc:	f11c 3cff 	adds.w	ip, ip, #4294967295	@ 0xffffffff
10006ce0:	f142 32ff 	adc.w	r2, r2, #4294967295	@ 0xffffffff
10006ce4:	eb1c 0c01 	adds.w	ip, ip, r1
10006ce8:	eb40 0202 	adc.w	r2, r0, r2
10006cec:	424b      	negs	r3, r1
10006cee:	eb60 0e40 	sbc.w	lr, r0, r0, lsl #1
10006cf2:	ea0e 0102 	and.w	r1, lr, r2
10006cf6:	ea03 000c 	and.w	r0, r3, ip
10006cfa:	bd00      	pop	{pc}
10006cfc:	2900      	cmp	r1, #0
10006cfe:	f04f 0000 	mov.w	r0, #0
10006d02:	da07      	bge.n	10006d14 <__wrap_ceil+0x70>
10006d04:	f04f 4100 	mov.w	r1, #2147483648	@ 0x80000000
10006d08:	4770      	bx	lr
10006d0a:	4618      	mov	r0, r3
10006d0c:	f001 4100 	and.w	r1, r1, #2147483648	@ 0x80000000
10006d10:	4770      	bx	lr
10006d12:	4770      	bx	lr
10006d14:	4900      	ldr	r1, [pc, #0]	@ (10006d18 <__wrap_ceil+0x74>)
10006d16:	4770      	bx	lr
10006d18:	3ff00000 	.word	0x3ff00000

10006d1c <generic_save_state>:
10006d1c:	b086      	sub	sp, #24
10006d1e:	b403      	push	{r0, r1}
10006d20:	fc51 0408 	dcp_pxmd r0, r1
10006d24:	e9cd 0102 	strd	r0, r1, [sp, #8]
10006d28:	fc51 0409 	dcp_pymd r0, r1
10006d2c:	e9cd 0104 	strd	r0, r1, [sp, #16]
10006d30:	ec51 040a 	dcp_refd r0, r1
10006d34:	e9cd 0106 	strd	r0, r1, [sp, #24]
10006d38:	bc03      	pop	{r0, r1}
10006d3a:	47f0      	blx	lr

10006d3c <generic_restore_state>:
10006d3c:	e8bd 5000 	ldmia.w	sp!, {ip, lr}
10006d40:	ec4e c400 	dcp_wxmd ip, lr
10006d44:	e8bd 5000 	ldmia.w	sp!, {ip, lr}
10006d48:	ec4e c401 	dcp_wymd ip, lr
10006d4c:	e8bd 5000 	ldmia.w	sp!, {ip, lr}
10006d50:	ec4e c402 	dcp_wefd ip, lr
10006d54:	bd00      	pop	{pc}
10006d56:	0000      	movs	r0, r0
10006d58:	b500      	push	{lr}
10006d5a:	f7ff ffdf 	bl	10006d1c <generic_save_state>
10006d5e:	e002      	b.n	10006d66 <__wrap___aeabi_dadd+0x6>

10006d60 <__wrap___aeabi_dadd>:
10006d60:	fe10 f430 	dcp_pcmp APSR_nzcv
10006d64:	d4f8      	bmi.n	10006d58 <generic_restore_state+0x1c>
10006d66:	ec41 0410 	dcp_wxup r0, r1
10006d6a:	ec43 2411 	dcp_wyup r2, r3
10006d6e:	ee00 0401 			dcp_add0
10006d72:	ee10 0401 			dcp_add1
10006d76:	ee80 0420 			dcp_nrdd
10006d7a:	ec51 0410 	dcp_rdda r0, r1
10006d7e:	4770      	bx	lr
10006d80:	b500      	push	{lr}
10006d82:	f7ff ffcb 	bl	10006d1c <generic_save_state>
10006d86:	e002      	b.n	10006d8e <__wrap___aeabi_dsub+0x6>

10006d88 <__wrap___aeabi_dsub>:
10006d88:	fe10 f430 	dcp_pcmp APSR_nzcv
10006d8c:	d4f8      	bmi.n	10006d80 <__wrap___aeabi_dadd+0x20>
10006d8e:	ec41 0410 	dcp_wxup r0, r1
10006d92:	ec43 2411 	dcp_wyup r2, r3
10006d96:	ee00 0401 			dcp_add0
10006d9a:	ee10 0421 			dcp_sub1
10006d9e:	ee80 0420 			dcp_nrdd
10006da2:	ec51 0430 	dcp_rdds r0, r1
10006da6:	4770      	bx	lr
10006da8:	b500      	push	{lr}
10006daa:	f7ff ffb7 	bl	10006d1c <generic_save_state>
10006dae:	e002      	b.n	10006db6 <__wrap___aeabi_dmul+0x6>

10006db0 <__wrap___aeabi_dmul>:
10006db0:	fe10 f430 	dcp_pcmp APSR_nzcv
10006db4:	d4f8      	bmi.n	10006da8 <__wrap___aeabi_dsub+0x20>
10006db6:	b510      	push	{r4, lr}
10006db8:	ec41 0410 	dcp_wxup r0, r1
10006dbc:	ec43 2411 	dcp_wyup r2, r3
10006dc0:	ec51 0404 	dcp_rxms r0, r1, #0x0
10006dc4:	ec53 2405 	dcp_ryms r2, r3, #0x0
10006dc8:	fba0 4c02 	umull	r4, ip, r0, r2
10006dcc:	f05f 0e00 	movs.w	lr, #0
10006dd0:	fbe0 ce03 	umlal	ip, lr, r0, r3
10006dd4:	fbe1 ce02 	umlal	ip, lr, r1, r2
10006dd8:	ec4c 4420 	dcp_wxms r4, ip
10006ddc:	2400      	movs	r4, #0
10006dde:	fbe1 e403 	umlal	lr, r4, r1, r3
10006de2:	ec44 e430 	dcp_wxmo lr, r4
10006de6:	ee80 0420 			dcp_nrdd
10006dea:	ec51 0450 	dcp_rddm r0, r1
10006dee:	e8bd 4010 	ldmia.w	sp!, {r4, lr}
10006df2:	4770      	bx	lr
10006df4:	b500      	push	{lr}
10006df6:	f7ff ff91 	bl	10006d1c <generic_save_state>
10006dfa:	e002      	b.n	10006e02 <__wrap___aeabi_ddiv+0x6>

10006dfc <__wrap___aeabi_ddiv>:
10006dfc:	fe10 f430 	dcp_pcmp APSR_nzcv
10006e00:	d4f8      	bmi.n	10006df4 <__wrap___aeabi_dmul+0x44>
10006e02:	ec41 0410 	dcp_wxup r0, r1
10006e06:	ec43 2411 	dcp_wyup r2, r3
10006e0a:	ec51 0421 	dcp_rymr r0, r1
10006e0e:	fba0 1201 	umull	r1, r2, r0, r1
10006e12:	ea6f 0282 	mvn.w	r2, r2, lsl #2
10006e16:	fb52 0010 	smmlar	r0, r2, r0, r0
10006e1a:	fb52 f212 	smmulr	r2, r2, r2
10006e1e:	fb52 0010 	smmlar	r0, r2, r0, r0
10006e22:	eba0 7cd0 	sub.w	ip, r0, r0, lsr #31
10006e26:	ec53 2404 	dcp_rxms r2, r3, #0x0
10006e2a:	fb5c f113 	smmulr	r1, ip, r3
10006e2e:	ec53 2415 	dcp_ryms r2, r3, #0x1
10006e32:	fba1 2002 	umull	r2, r0, r1, r2
10006e36:	fb01 0003 	mla	r0, r1, r3, r0
10006e3a:	ec53 2444 	dcp_rxms r2, r3, #0x4
10006e3e:	eba2 0000 	sub.w	r0, r2, r0
10006e42:	fb50 f21c 	smmulr	r2, r0, ip
10006e46:	ea4f 1311 	mov.w	r3, r1, lsr #4
10006e4a:	eb12 7001 	adds.w	r0, r2, r1, lsl #28
10006e4e:	eb43 71e2 	adc.w	r1, r3, r2, asr #31
10006e52:	ea40 5051 	orr.w	r0, r0, r1, lsr #21
10006e56:	ea20 5091 	bic.w	r0, r0, r1, lsr #22
10006e5a:	f020 0007 	bic.w	r0, r0, #7
10006e5e:	ec53 2475 	dcp_ryms r2, r3, #0x7
10006e62:	fba0 3c02 	umull	r3, ip, r0, r2
10006e66:	ec53 2475 	dcp_ryms r2, r3, #0x7
10006e6a:	fb00 cc03 	mla	ip, r0, r3, ip
10006e6e:	fb01 cc02 	mla	ip, r1, r2, ip
10006e72:	ec53 2404 	dcp_rxms r2, r3, #0x0
10006e76:	ebac 4c82 	sub.w	ip, ip, r2, lsl #18
10006e7a:	ea40 705c 	orr.w	r0, r0, ip, lsr #29
10006e7e:	f1a0 0001 	sub.w	r0, r0, #1
10006e82:	ec41 0440 	dcp_wxdd r0, r1
10006e86:	ee80 0420 			dcp_nrdd
10006e8a:	ec51 0470 	dcp_rddd r0, r1
10006e8e:	4770      	bx	lr
10006e90:	b500      	push	{lr}
10006e92:	f7ff ff43 	bl	10006d1c <generic_save_state>
10006e96:	e002      	b.n	10006e9e <__wrap___aeabi_d2f+0x6>

10006e98 <__wrap___aeabi_d2f>:
10006e98:	fe10 f430 	dcp_pcmp APSR_nzcv
10006e9c:	d4f8      	bmi.n	10006e90 <__wrap___aeabi_ddiv+0x94>
10006e9e:	ec41 0410 	dcp_wxup r0, r1
10006ea2:	ee80 0422 			dcp_nrdf
10006ea6:	ee10 04b2 			dcp_rdfg r0
10006eaa:	4770      	bx	lr
10006eac:	b500      	push	{lr}
10006eae:	f7ff ff35 	bl	10006d1c <generic_save_state>
10006eb2:	e002      	b.n	10006eba <__wrap___aeabi_i2d+0x6>

10006eb4 <__wrap___aeabi_i2d>:
10006eb4:	fe10 f430 	dcp_pcmp APSR_nzcv
10006eb8:	d4f8      	bmi.n	10006eac <__wrap___aeabi_d2f+0x14>
10006eba:	ec40 0470 	dcp_wxic r0, r0
10006ebe:	ee00 0401 			dcp_add0
10006ec2:	ee10 0421 			dcp_sub1
10006ec6:	ee80 0420 			dcp_nrdd
10006eca:	ec51 0430 	dcp_rdds r0, r1
10006ece:	4770      	bx	lr
10006ed0:	b500      	push	{lr}
10006ed2:	f7ff ff23 	bl	10006d1c <generic_save_state>
10006ed6:	e002      	b.n	10006ede <__wrap___aeabi_ui2d+0x6>

10006ed8 <__wrap___aeabi_ui2d>:
10006ed8:	fe10 f430 	dcp_pcmp APSR_nzcv
10006edc:	d4f8      	bmi.n	10006ed0 <__wrap___aeabi_i2d+0x1c>
10006ede:	ec40 0460 	dcp_wxuc r0, r0
10006ee2:	ee00 0401 			dcp_add0
10006ee6:	ee10 0421 			dcp_sub1
10006eea:	ee80 0420 			dcp_nrdd
10006eee:	ec51 0430 	dcp_rdds r0, r1
10006ef2:	4770      	bx	lr
10006ef4:	b500      	push	{lr}
10006ef6:	f7ff ff11 	bl	10006d1c <generic_save_state>
10006efa:	e002      	b.n	10006f02 <double2int_z_entry>

10006efc <__wrap___aeabi_d2iz>:
10006efc:	fe10 f430 	dcp_pcmp APSR_nzcv
10006f00:	d4f8      	bmi.n	10006ef4 <__wrap___aeabi_ui2d+0x1c>

10006f02 <double2int_z_entry>:
10006f02:	ec41 0480 	dcp_wxdc r0, r1
10006f06:	ee00 0401 			dcp_add0
10006f0a:	ee10 0401 			dcp_add1
10006f0e:	ee80 0440 			dcp_ntdc
10006f12:	ee10 0413 			dcp_rdic r0
10006f16:	4770      	bx	lr
10006f18:	b500      	push	{lr}
10006f1a:	f7ff feff 	bl	10006d1c <generic_save_state>
10006f1e:	e002      	b.n	10006f26 <double2uint_z_entry>

10006f20 <__wrap___aeabi_d2uiz>:
10006f20:	fe10 f430 	dcp_pcmp APSR_nzcv
10006f24:	d4f8      	bmi.n	10006f18 <double2int_z_entry+0x16>

10006f26 <double2uint_z_entry>:
10006f26:	ec41 0480 	dcp_wxdc r0, r1
10006f2a:	ee00 0401 			dcp_add0
10006f2e:	ee10 0401 			dcp_add1
10006f32:	ee80 0440 			dcp_ntdc
10006f36:	ee10 0433 			dcp_rduc r0
10006f3a:	4770      	bx	lr
10006f3c:	b500      	push	{lr}
10006f3e:	f7ff feed 	bl	10006d1c <generic_save_state>
10006f42:	e002      	b.n	10006f4a <__wrap___aeabi_dcmpun+0x6>

10006f44 <__wrap___aeabi_dcmpun>:
10006f44:	fe10 f430 	dcp_pcmp APSR_nzcv
10006f48:	d4f8      	bmi.n	10006f3c <double2uint_z_entry+0x16>
10006f4a:	ec41 0410 	dcp_wxup r0, r1
10006f4e:	ec43 2411 	dcp_wyup r2, r3
10006f52:	ee00 0401 			dcp_add0
10006f56:	ee10 0430 			dcp_rcmp r0
10006f5a:	f3c0 7000 	ubfx	r0, r0, #28, #1
10006f5e:	4770      	bx	lr
10006f60:	b500      	push	{lr}
10006f62:	f7ff fedb 	bl	10006d1c <generic_save_state>
10006f66:	e002      	b.n	10006f6e <__wrap___aeabi_dcmplt+0x6>

10006f68 <__wrap___aeabi_dcmplt>:
10006f68:	fe10 f430 	dcp_pcmp APSR_nzcv
10006f6c:	d4f8      	bmi.n	10006f60 <__wrap___aeabi_dcmpun+0x1c>
10006f6e:	ec43 2410 	dcp_wxup r2, r3
10006f72:	ec41 0411 	dcp_wyup r0, r1
10006f76:	ee00 0401 			dcp_add0
10006f7a:	ee10 f430 			dcp_rcmp APSR_nzcv
10006f7e:	bf8c      	ite	hi
10006f80:	2001      	movhi	r0, #1
10006f82:	2000      	movls	r0, #0
10006f84:	4770      	bx	lr
10006f86:	bf00      	nop
10006f88:	b500      	push	{lr}
10006f8a:	f7ff fec7 	bl	10006d1c <generic_save_state>
10006f8e:	e002      	b.n	10006f96 <__wrap___aeabi_dcmple+0x6>

10006f90 <__wrap___aeabi_dcmple>:
10006f90:	fe10 f430 	dcp_pcmp APSR_nzcv
10006f94:	d4f8      	bmi.n	10006f88 <__wrap___aeabi_dcmplt+0x20>
10006f96:	ec43 2410 	dcp_wxup r2, r3
10006f9a:	ec41 0411 	dcp_wyup r0, r1
10006f9e:	ee00 0401 			dcp_add0
10006fa2:	ee10 f430 			dcp_rcmp APSR_nzcv
10006fa6:	bf2c      	ite	cs
10006fa8:	2001      	movcs	r0, #1
10006faa:	2000      	movcc	r0, #0
10006fac:	4770      	bx	lr
10006fae:	bf00      	nop
10006fb0:	b500      	push	{lr}
10006fb2:	f7ff feb3 	bl	10006d1c <generic_save_state>
10006fb6:	e002      	b.n	10006fbe <__wrap___aeabi_dcmpge+0x6>

10006fb8 <__wrap___aeabi_dcmpge>:
10006fb8:	fe10 f430 	dcp_pcmp APSR_nzcv
10006fbc:	d4f8      	bmi.n	10006fb0 <__wrap___aeabi_dcmple+0x20>
10006fbe:	ec41 0410 	dcp_wxup r0, r1
10006fc2:	ec43 2411 	dcp_wyup r2, r3
10006fc6:	ee00 0401 			dcp_add0
10006fca:	ee10 f430 			dcp_rcmp APSR_nzcv
10006fce:	bf2c      	ite	cs
10006fd0:	2001      	movcs	r0, #1
10006fd2:	2000      	movcc	r0, #0
10006fd4:	4770      	bx	lr
10006fd6:	bf00      	nop
10006fd8:	b500      	push	{lr}
10006fda:	f7ff fe9f 	bl	10006d1c <generic_save_state>
10006fde:	e002      	b.n	10006fe6 <__wrap___aeabi_dcmpgt+0x6>

10006fe0 <__wrap___aeabi_dcmpgt>:
10006fe0:	fe10 f430 	dcp_pcmp APSR_nzcv
10006fe4:	d4f8      	bmi.n	10006fd8 <__wrap___aeabi_dcmpge+0x20>
10006fe6:	ec41 0410 	dcp_wxup r0, r1
10006fea:	ec43 2411 	dcp_wyup r2, r3
10006fee:	ee00 0401 			dcp_add0
10006ff2:	ee10 f430 			dcp_rcmp APSR_nzcv
10006ff6:	bf8c      	ite	hi
10006ff8:	2001      	movhi	r0, #1
10006ffa:	2000      	movls	r0, #0
10006ffc:	4770      	bx	lr
10006ffe:	bf00      	nop

10007000 <dnegpack_q63>:
10007000:	4240      	negs	r0, r0
10007002:	eb61 0141 	sbc.w	r1, r1, r1, lsl #1

10007006 <dpack_q63>:
10007006:	f240 34f3 	movw	r4, #1011	@ 0x3f3

1000700a <dpack_q>:
1000700a:	fab1 f281 	clz	r2, r1
1000700e:	2a0c      	cmp	r2, #12
10007010:	d20c      	bcs.n	1000702c <dpack_q+0x22>
10007012:	3215      	adds	r2, #21
10007014:	fa11 f302 	lsls.w	r3, r1, r2
10007018:	f1c2 0220 	rsb	r2, r2, #32
1000701c:	40d0      	lsrs	r0, r2
1000701e:	fa21 f102 	lsr.w	r1, r1, r2
10007022:	4422      	add	r2, r4
10007024:	4158      	adcs	r0, r3
10007026:	eb41 5102 	adc.w	r1, r1, r2, lsl #20
1000702a:	4770      	bx	lr
1000702c:	b169      	cbz	r1, 1000704a <dpack_q+0x40>
1000702e:	f1c2 022b 	rsb	r2, r2, #43	@ 0x2b
10007032:	fa30 f302 	lsrs.w	r3, r0, r2
10007036:	f1c2 0220 	rsb	r2, r2, #32
1000703a:	4091      	lsls	r1, r2
1000703c:	4090      	lsls	r0, r2
1000703e:	4319      	orrs	r1, r3
10007040:	eba4 0202 	sub.w	r2, r4, r2
10007044:	eb01 5102 	add.w	r1, r1, r2, lsl #20
10007048:	4770      	bx	lr
1000704a:	0001      	movs	r1, r0
1000704c:	f04f 0000 	mov.w	r0, #0
10007050:	f1a4 0420 	sub.w	r4, r4, #32
10007054:	d1d9      	bne.n	1000700a <dpack_q>
10007056:	4770      	bx	lr

10007058 <dreduce>:
10007058:	2701      	movs	r7, #1
1000705a:	f367 511f 	bfi	r1, r7, #20, #12
1000705e:	fa17 f803 	lsls.w	r8, r7, r3
10007062:	d017      	beq.n	10007094 <dreduce+0x3c>
10007064:	fba0 0708 	umull	r0, r7, r0, r8
10007068:	fb01 7108 	mla	r1, r1, r8, r7
1000706c:	fba1 7806 	umull	r7, r8, r1, r6
10007070:	ea5f 46d8 	movs.w	r6, r8, lsr #19
10007074:	1992      	adds	r2, r2, r6
10007076:	fba6 7804 	umull	r7, r8, r6, r4
1000707a:	fb06 8805 	mla	r8, r6, r5, r8
1000707e:	0309      	lsls	r1, r1, #12
10007080:	ea51 5110 	orrs.w	r1, r1, r0, lsr #20
10007084:	ebd7 3000 	rsbs	r0, r7, r0, lsl #12
10007088:	eb61 0108 	sbc.w	r1, r1, r8
1000708c:	42a9      	cmp	r1, r5
1000708e:	bf38      	it	cc
10007090:	4770      	bxcc	lr
10007092:	e00b      	b.n	100070ac <dreduce+0x54>
10007094:	330c      	adds	r3, #12
10007096:	2701      	movs	r7, #1
10007098:	fa17 f803 	lsls.w	r8, r7, r3
1000709c:	d00f      	beq.n	100070be <dreduce+0x66>
1000709e:	fba0 0708 	umull	r0, r7, r0, r8
100070a2:	fb01 7108 	mla	r1, r1, r8, r7
100070a6:	42a9      	cmp	r1, r5
100070a8:	bf38      	it	cc
100070aa:	4770      	bxcc	lr
100070ac:	bf08      	it	eq
100070ae:	42a0      	cmpeq	r0, r4
100070b0:	bf38      	it	cc
100070b2:	4770      	bxcc	lr
100070b4:	1b00      	subs	r0, r0, r4
100070b6:	eb61 0105 	sbc.w	r1, r1, r5
100070ba:	3201      	adds	r2, #1
100070bc:	4770      	bx	lr
100070be:	f103 0320 	add.w	r3, r3, #32
100070c2:	fa11 f603 	lsls.w	r6, r1, r3
100070c6:	f1d3 0320 	rsbs	r3, r3, #32
100070ca:	40d8      	lsrs	r0, r3
100070cc:	40d9      	lsrs	r1, r3
100070ce:	4330      	orrs	r0, r6
100070d0:	4770      	bx	lr
	...

100070d4 <exptab0>:
	...
100070dc:	08b15304 	.word	0x08b15304
100070e0:	0f851860 	.word	0x0f851860
100070e4:	2af2e5c8 	.word	0x2af2e5c8
100070e8:	1e27076e 	.word	0x1e27076e
100070ec:	21b2120d 	.word	0x21b2120d
100070f0:	2f571204 	.word	0x2f571204
100070f4:	bc7c5512 	.word	0xbc7c5512
100070f8:	3f7230da 	.word	0x3f7230da
100070fc:	a517a717 	.word	0xa517a717
10007100:	4e993155 	.word	0x4e993155
10007104:	0abf0d9d 	.word	0x0abf0d9d
10007108:	5fabe0ee 	.word	0x5fabe0ee
1000710c:	9c6defe3 	.word	0x9c6defe3
10007110:	6fad3676 	.word	0x6fad3676
10007114:	e3cc7b69 	.word	0xe3cc7b69
10007118:	7ebd623d 	.word	0x7ebd623d
1000711c:	820681f0 	.word	0x820681f0
10007120:	8f42faf3 	.word	0x8f42faf3
10007124:	8ab7d537 	.word	0x8ab7d537
10007128:	9ec81353 	.word	0x9ec81353
1000712c:	20b3ab7f 	.word	0x20b3ab7f
10007130:	af701549 	.word	0xaf701549

10007134 <exptab1>:
	...
1000713c:	15885e02 	.word	0x15885e02
10007140:	00ff8055 	.word	0x00ff8055
10007144:	b1067890 	.word	0xb1067890
10007148:	01fe02a6 	.word	0x01fe02a6
1000714c:	f0214edc 	.word	0xf0214edc
10007150:	02fb88eb 	.word	0x02fb88eb
10007154:	1f807c7a 	.word	0x1f807c7a
10007158:	03f81516 	.word	0x03f81516
1000715c:	d1a95d3c 	.word	0xd1a95d3c
10007160:	04f3a910 	.word	0x04f3a910
10007164:	f56c46aa 	.word	0xf56c46aa
10007168:	05ee46c1 	.word	0x05ee46c1
1000716c:	ebe465ff 	.word	0xebe465ff
10007170:	06e7f009 	.word	0x06e7f009
10007174:	9e0cc013 	.word	0x9e0cc013
10007178:	07e0a6c3 	.word	0x07e0a6c3
1000717c:	91ecbfe1 	.word	0x91ecbfe1
10007180:	08d86cc4 	.word	0x08d86cc4
10007184:	ff5eafd5 	.word	0xff5eafd5
10007188:	09cf43dc 	.word	0x09cf43dc
1000718c:	e4726a46 	.word	0xe4726a46
10007190:	0ac52dd7 	.word	0x0ac52dd7
10007194:	196e7e23 	.word	0x196e7e23
10007198:	0bba2c7b 	.word	0x0bba2c7b
1000719c:	6471f5bf 	.word	0x6471f5bf
100071a0:	0cae4187 	.word	0x0cae4187
100071a4:	8cb8df61 	.word	0x8cb8df61
100071a8:	0da16eb8 	.word	0x0da16eb8
100071ac:	6d85a909 	.word	0x6d85a909
100071b0:	0e93b5c5 	.word	0x0e93b5c5
100071b4:	08b15331 	.word	0x08b15331
100071b8:	0f851860 	.word	0x0f851860
100071bc:	98e47130 	.word	0x98e47130
100071c0:	10759835 	.word	0x10759835

100071c4 <exptab2>:
100071c4:	05551559 	.word	0x05551559
100071c8:	000fff80 	.word	0x000fff80
100071cc:	8febc309 	.word	0x8febc309
100071d0:	002ffb80 	.word	0x002ffb80
100071d4:	9a0e91b1 	.word	0x9a0e91b1
100071d8:	004ff382 	.word	0x004ff382
100071dc:	22fde71f 	.word	0x22fde71f
100071e0:	006fe787 	.word	0x006fe787
100071e4:	299aa0c3 	.word	0x299aa0c3
100071e8:	008fd78f 	.word	0x008fd78f
100071ec:	ac66434f 	.word	0xac66434f
100071f0:	00afc39b 	.word	0x00afc39b
100071f4:	a9832a41 	.word	0xa9832a41
100071f8:	00cfabad 	.word	0x00cfabad
100071fc:	1eb4b74f 	.word	0x1eb4b74f
10007200:	00ef8fc6 	.word	0x00ef8fc6
10007204:	095f81b6 	.word	0x095f81b6
10007208:	010f6fe6 	.word	0x010f6fe6
1000720c:	66898567 	.word	0x66898567
10007210:	012f4c0e 	.word	0x012f4c0e
10007214:	32da521a 	.word	0x32da521a
10007218:	014f2440 	.word	0x014f2440
1000721c:	6a9b3a48 	.word	0x6a9b3a48
10007220:	016ef87c 	.word	0x016ef87c
10007224:	09b781ff 	.word	0x09b781ff
10007228:	018ec8c4 	.word	0x018ec8c4
1000722c:	0bbc8d9c 	.word	0x0bbc8d9c
10007230:	01ae9518 	.word	0x01ae9518
10007234:	6bda1070 	.word	0x6bda1070
10007238:	01ce5d79 	.word	0x01ce5d79
1000723c:	24e23b3a 	.word	0x24e23b3a
10007240:	01ee21e9 	.word	0x01ee21e9

10007244 <logtab0>:
10007244:	33957338 	.word	0x33957338
10007248:	a0ec7f42 	.word	0xa0ec7f42
1000724c:	f5fa1431 	.word	0xf5fa1431
10007250:	918986bd 	.word	0x918986bd
10007254:	e6fa026b 	.word	0xe6fa026b
10007258:	8391f2e0 	.word	0x8391f2e0
1000725c:	071282e6 	.word	0x071282e6
10007260:	7751a813 	.word	0x7751a813
10007264:	68212621 	.word	0x68212621
10007268:	6a73b26a 	.word	0x6a73b26a
1000726c:	0abf0d9d 	.word	0x0abf0d9d
10007270:	5fabe0ee 	.word	0x5fabe0ee
10007274:	b7e0b419 	.word	0xb7e0b419
10007278:	546ab61c 	.word	0x546ab61c
1000727c:	3de59695 	.word	0x3de59695
10007280:	48a507ef 	.word	0x48a507ef
10007284:	55e5cbd1 	.word	0x55e5cbd1
10007288:	3c4e0edc 	.word	0x3c4e0edc
1000728c:	e8ad68ce 	.word	0xe8ad68ce
10007290:	32a4b539 	.word	0x32a4b539
10007294:	96fa3ccb 	.word	0x96fa3ccb
10007298:	289a56d9 	.word	0x289a56d9
1000729c:	a11cb2c9 	.word	0xa11cb2c9
100072a0:	21aefcf9 	.word	0x21aefcf9
100072a4:	e56b4b86 	.word	0xe56b4b86
100072a8:	16f0d28a 	.word	0x16f0d28a
100072ac:	08b15304 	.word	0x08b15304
100072b0:	0f851860 	.word	0x0f851860
100072b4:	9e0cc002 	.word	0x9e0cc002
100072b8:	07e0a6c3 	.word	0x07e0a6c3
	...

100072c4 <exprrdata>:
100072c4:	d1cf79ac 	.word	0xd1cf79ac
100072c8:	b17217f7 	.word	0xb17217f7
100072cc:	b8aa3b29 	.word	0xb8aa3b29
100072d0:	ea4f 20c1 	mov.w	r0, r1, lsl #11
100072d4:	f040 4000 	orr.w	r0, r0, #2147483648	@ 0x80000000
100072d8:	0049      	lsls	r1, r1, #1
100072da:	f143 0320 	adc.w	r3, r3, #32
100072de:	f240 0100 	movw	r1, #0
100072e2:	f6c3 71f0 	movt	r1, #16368	@ 0x3ff0
100072e6:	f1c3 030b 	rsb	r3, r3, #11
100072ea:	fa20 f003 	lsr.w	r0, r0, r3
100072ee:	bf38      	it	cc
100072f0:	4770      	bxcc	lr
100072f2:	4240      	negs	r0, r0
100072f4:	f161 0100 	sbc.w	r1, r1, #0
100072f8:	4770      	bx	lr

100072fa <__wrap_exp>:
100072fa:	ea5f 7cd1 	movs.w	ip, r1, lsr #31
100072fe:	f3c1 530a 	ubfx	r3, r1, #20, #11
10007302:	f2a3 33ff 	subw	r3, r3, #1023	@ 0x3ff
10007306:	2b0c      	cmp	r3, #12
10007308:	da62      	bge.n	100073d0 <__wrap_exp+0xd6>
1000730a:	f113 0f20 	cmn.w	r3, #32
1000730e:	dddf      	ble.n	100072d0 <exprrdata+0xc>
10007310:	e92d 41f0 	stmdb	sp!, {r4, r5, r6, r7, r8, lr}
10007314:	4c3c      	ldr	r4, [pc, #240]	@ (10007408 <__wrap_exp+0x10e>)
10007316:	cc70      	ldmia	r4, {r4, r5, r6}
10007318:	f04f 0200 	mov.w	r2, #0
1000731c:	f7ff fe9c 	bl	10007058 <dreduce>
10007320:	f01c 0f01 	tst.w	ip, #1
10007324:	d004      	beq.n	10007330 <__wrap_exp+0x36>
10007326:	ea6f 0202 	mvn.w	r2, r2
1000732a:	1a20      	subs	r0, r4, r0
1000732c:	eb65 0101 	sbc.w	r1, r5, r1
10007330:	f202 3cfe 	addw	ip, r2, #1022	@ 0x3fe
10007334:	f240 73fe 	movw	r3, #2046	@ 0x7fe
10007338:	459c      	cmp	ip, r3
1000733a:	d25c      	bcs.n	100073f6 <__wrap_exp+0xfc>
1000733c:	0f0a      	lsrs	r2, r1, #28
1000733e:	4b33      	ldr	r3, [pc, #204]	@ (1000740c <__wrap_exp+0x112>)
10007340:	eb03 03c2 	add.w	r3, r3, r2, lsl #3
10007344:	cb0c      	ldmia	r3, {r2, r3}
10007346:	f002 053f 	and.w	r5, r2, #63	@ 0x3f
1000734a:	f045 0540 	orr.w	r5, r5, #64	@ 0x40
1000734e:	1a80      	subs	r0, r0, r2
10007350:	4199      	sbcs	r1, r3
10007352:	0e0a      	lsrs	r2, r1, #24
10007354:	4b2e      	ldr	r3, [pc, #184]	@ (10007410 <__wrap_exp+0x116>)
10007356:	eb03 03c2 	add.w	r3, r3, r2, lsl #3
1000735a:	cb18      	ldmia	r3, {r3, r4}
1000735c:	f502 7280 	add.w	r2, r2, #256	@ 0x100
10007360:	4355      	muls	r5, r2
10007362:	1ac0      	subs	r0, r0, r3
10007364:	41a1      	sbcs	r1, r4
10007366:	0d4a      	lsrs	r2, r1, #21
10007368:	4b2a      	ldr	r3, [pc, #168]	@ (10007414 <__wrap_exp+0x11a>)
1000736a:	eb03 03c2 	add.w	r3, r3, r2, lsl #3
1000736e:	cb18      	ldmia	r3, {r3, r4}
10007370:	4412      	add	r2, r2
10007372:	f502 5280 	add.w	r2, r2, #4096	@ 0x1000
10007376:	fb05 5502 	mla	r5, r5, r2, r5
1000737a:	1ac0      	subs	r0, r0, r3
1000737c:	41a1      	sbcs	r1, r4
1000737e:	028a      	lsls	r2, r1, #10
10007380:	ea52 5290 	orrs.w	r2, r2, r0, lsr #22
10007384:	f142 0200 	adc.w	r2, r2, #0
10007388:	fb82 3402 	smull	r3, r4, r2, r2
1000738c:	0d5b      	lsrs	r3, r3, #21
1000738e:	ea53 23c4 	orrs.w	r3, r3, r4, lsl #11
10007392:	18c0      	adds	r0, r0, r3
10007394:	eb41 5154 	adc.w	r1, r1, r4, lsr #21
10007398:	fb84 3402 	smull	r3, r4, r4, r2
1000739c:	f04f 3355 	mov.w	r3, #1431655765	@ 0x55555555
100073a0:	fb83 3404 	smull	r3, r4, r3, r4
100073a4:	fb54 f311 	smmulr	r3, r4, r1
100073a8:	eb04 0493 	add.w	r4, r4, r3, lsr #2
100073ac:	eb10 0244 	adds.w	r2, r0, r4, lsl #1
100073b0:	eb41 73e4 	adc.w	r3, r1, r4, asr #31
100073b4:	00e9      	lsls	r1, r5, #3
100073b6:	fba1 4002 	umull	r4, r0, r1, r2
100073ba:	fbc1 0103 	smlal	r0, r1, r1, r3
100073be:	0a40      	lsrs	r0, r0, #9
100073c0:	eb50 50c1 	adcs.w	r0, r0, r1, lsl #23
100073c4:	ea4f 2151 	mov.w	r1, r1, lsr #9
100073c8:	eb51 510c 	adcs.w	r1, r1, ip, lsl #20
100073cc:	e8bd 81f0 	ldmia.w	sp!, {r4, r5, r6, r7, r8, pc}
100073d0:	f5b3 6f80 	cmp.w	r3, #1024	@ 0x400
100073d4:	d107      	bne.n	100073e6 <__wrap_exp+0xec>
100073d6:	ea50 3201 	orrs.w	r2, r0, r1, lsl #12
100073da:	bf0c      	ite	eq
100073dc:	ea21 71e1 	biceq.w	r1, r1, r1, asr #31
100073e0:	f441 2100 	orrne.w	r1, r1, #524288	@ 0x80000
100073e4:	4770      	bx	lr
100073e6:	2000      	movs	r0, #0
100073e8:	2100      	movs	r1, #0
100073ea:	f01c 0f01 	tst.w	ip, #1
100073ee:	bf08      	it	eq
100073f0:	f6c7 71f0 	movteq	r1, #32752	@ 0x7ff0
100073f4:	4770      	bx	lr
100073f6:	f04f 0000 	mov.w	r0, #0
100073fa:	f04f 0100 	mov.w	r1, #0
100073fe:	bfa8      	it	ge
10007400:	f6c7 71f0 	movtge	r1, #32752	@ 0x7ff0
10007404:	e8bd 81f0 	ldmia.w	sp!, {r4, r5, r6, r7, r8, pc}
10007408:	100072c4 	.word	0x100072c4
1000740c:	100070d4 	.word	0x100070d4
10007410:	10007134 	.word	0x10007134
10007414:	100071c4 	.word	0x100071c4
10007418:	f240 0100 	movw	r1, #0
1000741c:	f6cf 71f0 	movt	r1, #65520	@ 0xfff0
10007420:	2000      	movs	r0, #0
10007422:	4770      	bx	lr
10007424:	ea50 3201 	orrs.w	r2, r0, r1, lsl #12
10007428:	bf18      	it	ne
1000742a:	f441 2100 	orrne.w	r1, r1, #524288	@ 0x80000
1000742e:	4770      	bx	lr
10007430:	ea7f 55a6 	mvns.w	r5, r6, asr #22
10007434:	f040 8119 	bne.w	1000766a <__wrap_log+0x74>
10007438:	f44f 5480 	mov.w	r4, #4096	@ 0x1000
1000743c:	e120      	b.n	10007680 <__wrap_log+0x8a>
1000743e:	ea8c 3311 	eor.w	r3, ip, r1, lsr #12
10007442:	061b      	lsls	r3, r3, #24
10007444:	f040 80ee 	bne.w	10007624 <__wrap_log+0x2e>
10007448:	f1bc 0f00 	cmp.w	ip, #0
1000744c:	d167      	bne.n	1000751e <__wrap_exp+0x224>
1000744e:	04c9      	lsls	r1, r1, #19
10007450:	ea51 3150 	orrs.w	r1, r1, r0, lsr #13
10007454:	04c0      	lsls	r0, r0, #19
10007456:	fab1 f481 	clz	r4, r1
1000745a:	2c20      	cmp	r4, #32
1000745c:	d24b      	bcs.n	100074f6 <__wrap_exp+0x1fc>
1000745e:	2501      	movs	r5, #1
10007460:	40a5      	lsls	r5, r4
10007462:	fba0 2305 	umull	r2, r3, r0, r5
10007466:	fb01 3305 	mla	r3, r1, r5, r3
1000746a:	fba0 c503 	umull	ip, r5, r0, r3
1000746e:	fba1 c602 	umull	ip, r6, r1, r2
10007472:	fbe1 5663 	umaal	r5, r6, r1, r3
10007476:	ebb2 2215 	subs.w	r2, r2, r5, lsr #8
1000747a:	f163 0300 	sbc.w	r3, r3, #0
1000747e:	ebb2 6206 	subs.w	r2, r2, r6, lsl #24
10007482:	eb73 2316 	sbcs.w	r3, r3, r6, lsr #8
10007486:	fba0 c706 	umull	ip, r7, r0, r6
1000748a:	fba1 c805 	umull	ip, r8, r1, r5
1000748e:	fbe1 7866 	umaal	r7, r8, r1, r6
10007492:	f04f 3555 	mov.w	r5, #1431655765	@ 0x55555555
10007496:	fba7 c605 	umull	ip, r6, r7, r5
1000749a:	f05f 0c00 	movs.w	ip, #0
1000749e:	fbe8 6c05 	umlal	r6, ip, r8, r5
100074a2:	eb16 060c 	adds.w	r6, r6, ip
100074a6:	f14c 0c00 	adc.w	ip, ip, #0
100074aa:	eb12 3296 	adds.w	r2, r2, r6, lsr #14
100074ae:	f143 0300 	adc.w	r3, r3, #0
100074b2:	eb12 428c 	adds.w	r2, r2, ip, lsl #18
100074b6:	eb43 339c 	adc.w	r3, r3, ip, lsr #14
100074ba:	fb58 f511 	smmulr	r5, r8, r1
100074be:	f05f 3733 	movs.w	r7, #858993459	@ 0x33333333
100074c2:	fb55 f611 	smmulr	r6, r5, r1
100074c6:	fb56 f817 	smmulr	r8, r6, r7
100074ca:	eba5 1758 	sub.w	r7, r5, r8, lsr #5
100074ce:	fb56 f511 	smmulr	r5, r6, r1
100074d2:	f6c2 2680 	movt	r6, #10880	@ 0x2a80
100074d6:	fb56 f515 	smmulr	r5, r6, r5
100074da:	eb07 3715 	add.w	r7, r7, r5, lsr #12
100074de:	ebb2 2047 	subs.w	r0, r2, r7, lsl #9
100074e2:	eb63 51d7 	sbc.w	r1, r3, r7, lsr #23
100074e6:	f5c4 6480 	rsb	r4, r4, #1024	@ 0x400
100074ea:	f1a4 0415 	sub.w	r4, r4, #21
100074ee:	f7ff fd8c 	bl	1000700a <dpack_q>
100074f2:	e8bd 81f0 	ldmia.w	sp!, {r4, r5, r6, r7, r8, pc}
100074f6:	fab0 f480 	clz	r4, r0
100074fa:	fa10 f104 	lsls.w	r1, r0, r4
100074fe:	fba0 2301 	umull	r2, r3, r0, r1
10007502:	f04f 0000 	mov.w	r0, #0
10007506:	ebb0 2013 	subs.w	r0, r0, r3, lsr #8
1000750a:	f161 0100 	sbc.w	r1, r1, #0
1000750e:	f5c4 6480 	rsb	r4, r4, #1024	@ 0x400
10007512:	f1a4 0435 	sub.w	r4, r4, #53	@ 0x35
10007516:	f7ff fd78 	bl	1000700a <dpack_q>
1000751a:	e8bd 81f0 	ldmia.w	sp!, {r4, r5, r6, r7, r8, pc}
1000751e:	0489      	lsls	r1, r1, #18
10007520:	ea51 3190 	orrs.w	r1, r1, r0, lsr #14
10007524:	0480      	lsls	r0, r0, #18
10007526:	4240      	negs	r0, r0
10007528:	eb61 0141 	sbc.w	r1, r1, r1, lsl #1
1000752c:	fab1 f481 	clz	r4, r1
10007530:	2c20      	cmp	r4, #32
10007532:	d24e      	bcs.n	100075d2 <__wrap_exp+0x2d8>
10007534:	3c01      	subs	r4, #1
10007536:	2501      	movs	r5, #1
10007538:	40a5      	lsls	r5, r4
1000753a:	fba0 2305 	umull	r2, r3, r0, r5
1000753e:	fb01 3305 	mla	r3, r1, r5, r3
10007542:	fba0 c503 	umull	ip, r5, r0, r3
10007546:	fba1 c602 	umull	ip, r6, r1, r2
1000754a:	fbe1 5663 	umaal	r5, r6, r1, r3
1000754e:	eb12 2215 	adds.w	r2, r2, r5, lsr #8
10007552:	f143 0300 	adc.w	r3, r3, #0
10007556:	eb12 6206 	adds.w	r2, r2, r6, lsl #24
1000755a:	eb53 2316 	adcs.w	r3, r3, r6, lsr #8
1000755e:	fba0 c706 	umull	ip, r7, r0, r6
10007562:	fba1 c805 	umull	ip, r8, r1, r5
10007566:	fbe1 7866 	umaal	r7, r8, r1, r6
1000756a:	f04f 3555 	mov.w	r5, #1431655765	@ 0x55555555
1000756e:	fba7 c605 	umull	ip, r6, r7, r5
10007572:	f05f 0c00 	movs.w	ip, #0
10007576:	fbe8 6c05 	umlal	r6, ip, r8, r5
1000757a:	eb16 060c 	adds.w	r6, r6, ip
1000757e:	f14c 0c00 	adc.w	ip, ip, #0
10007582:	eb12 3296 	adds.w	r2, r2, r6, lsr #14
10007586:	f143 0300 	adc.w	r3, r3, #0
1000758a:	eb12 428c 	adds.w	r2, r2, ip, lsl #18
1000758e:	eb43 339c 	adc.w	r3, r3, ip, lsr #14
10007592:	fb58 f511 	smmulr	r5, r8, r1
10007596:	f05f 3733 	movs.w	r7, #858993459	@ 0x33333333
1000759a:	fb55 f611 	smmulr	r6, r5, r1
1000759e:	fb56 f817 	smmulr	r8, r6, r7
100075a2:	eb05 1758 	add.w	r7, r5, r8, lsr #5
100075a6:	fb56 f511 	smmulr	r5, r6, r1
100075aa:	f6c2 2680 	movt	r6, #10880	@ 0x2a80
100075ae:	fb56 f515 	smmulr	r5, r6, r5
100075b2:	eb07 3715 	add.w	r7, r7, r5, lsr #12
100075b6:	eb12 2047 	adds.w	r0, r2, r7, lsl #9
100075ba:	eb43 51d7 	adc.w	r1, r3, r7, lsr #23
100075be:	f5c4 6480 	rsb	r4, r4, #1024	@ 0x400
100075c2:	f1a4 0415 	sub.w	r4, r4, #21
100075c6:	f7ff fd20 	bl	1000700a <dpack_q>
100075ca:	f041 4100 	orr.w	r1, r1, #2147483648	@ 0x80000000
100075ce:	e8bd 81f0 	ldmia.w	sp!, {r4, r5, r6, r7, r8, pc}
100075d2:	fab0 f480 	clz	r4, r0
100075d6:	fa10 f104 	lsls.w	r1, r0, r4
100075da:	fba0 2301 	umull	r2, r3, r0, r1
100075de:	ea4f 2013 	mov.w	r0, r3, lsr #8
100075e2:	f5c4 6480 	rsb	r4, r4, #1024	@ 0x400
100075e6:	f1a4 0435 	sub.w	r4, r4, #53	@ 0x35
100075ea:	f7ff fd0e 	bl	1000700a <dpack_q>
100075ee:	f091 4100 	eors.w	r1, r1, #2147483648	@ 0x80000000
100075f2:	e8bd 81f0 	ldmia.w	sp!, {r4, r5, r6, r7, r8, pc}

100075f6 <__wrap_log>:
100075f6:	ea5f 0c41 	movs.w	ip, r1, lsl #1
100075fa:	f4bf af0d 	bcs.w	10007418 <__wrap_exp+0x11e>
100075fe:	ea5f 5c5c 	movs.w	ip, ip, lsr #21
10007602:	f43f af09 	beq.w	10007418 <__wrap_exp+0x11e>
10007606:	f2ac 3cff 	subw	ip, ip, #1023	@ 0x3ff
1000760a:	f5bc 6f80 	cmp.w	ip, #1024	@ 0x400
1000760e:	f43f af09 	beq.w	10007424 <__wrap_exp+0x12a>
10007612:	2201      	movs	r2, #1
10007614:	f362 511f 	bfi	r1, r2, #20, #12
10007618:	e92d 41f0 	stmdb	sp!, {r4, r5, r6, r7, r8, lr}
1000761c:	ebbc 7fec 	cmp.w	ip, ip, asr #31
10007620:	f43f af0d 	beq.w	1000743e <__wrap_exp+0x144>
10007624:	0c0c      	lsrs	r4, r1, #16
10007626:	4d4e      	ldr	r5, [pc, #312]	@ (10007760 <__wrap_log+0x16a>)
10007628:	eb05 05c4 	add.w	r5, r5, r4, lsl #3
1000762c:	e895 000c 	ldmia.w	r5, {r2, r3}
10007630:	f002 053f 	and.w	r5, r2, #63	@ 0x3f
10007634:	f105 0540 	add.w	r5, r5, #64	@ 0x40
10007638:	fba5 0600 	umull	r0, r6, r5, r0
1000763c:	fb05 6101 	mla	r1, r5, r1, r6
10007640:	ea6f 44e1 	mvn.w	r4, r1, asr #19
10007644:	f004 041f 	and.w	r4, r4, #31
10007648:	4d46      	ldr	r5, [pc, #280]	@ (10007764 <__wrap_log+0x16e>)
1000764a:	eb05 05c4 	add.w	r5, r5, r4, lsl #3
1000764e:	cd60      	ldmia	r5, {r5, r6}
10007650:	1952      	adds	r2, r2, r5
10007652:	eb43 0306 	adc.w	r3, r3, r6
10007656:	f504 7480 	add.w	r4, r4, #256	@ 0x100
1000765a:	fba4 0600 	umull	r0, r6, r4, r0
1000765e:	fb04 6601 	mla	r6, r4, r1, r6
10007662:	ea7f 6426 	mvns.w	r4, r6, asr #24
10007666:	f43f aee3 	beq.w	10007430 <__wrap_exp+0x136>
1000766a:	4d3f      	ldr	r5, [pc, #252]	@ (10007768 <__wrap_log+0x172>)
1000766c:	eb05 05c4 	add.w	r5, r5, r4, lsl #3
10007670:	cd22      	ldmia	r5, {r1, r5}
10007672:	1852      	adds	r2, r2, r1
10007674:	eb43 0305 	adc.w	r3, r3, r5
10007678:	f241 0501 	movw	r5, #4097	@ 0x1001
1000767c:	eb05 0444 	add.w	r4, r5, r4, lsl #1
10007680:	0464      	lsls	r4, r4, #17
10007682:	fba4 5000 	umull	r5, r0, r4, r0
10007686:	ebc4 01c4 	rsb	r1, r4, r4, lsl #3
1000768a:	fbe4 0106 	umlal	r0, r1, r4, r6
1000768e:	ea80 74e1 	eor.w	r4, r0, r1, asr #31
10007692:	ea81 75e1 	eor.w	r5, r1, r1, asr #31
10007696:	fba5 6705 	umull	r6, r7, r5, r5
1000769a:	fba4 4805 	umull	r4, r8, r4, r5
1000769e:	087f      	lsrs	r7, r7, #1
100076a0:	ea4f 0636 	mov.w	r6, r6, rrx
100076a4:	eb16 0608 	adds.w	r6, r6, r8
100076a8:	f147 0700 	adc.w	r7, r7, #0
100076ac:	028c      	lsls	r4, r1, #10
100076ae:	ea54 5490 	orrs.w	r4, r4, r0, lsr #22
100076b2:	f144 0400 	adc.w	r4, r4, #0
100076b6:	1b80      	subs	r0, r0, r6
100076b8:	eb61 0107 	sbc.w	r1, r1, r7
100076bc:	fb54 f514 	smmulr	r5, r4, r4
100076c0:	fb55 f614 	smmulr	r6, r5, r4
100076c4:	fb55 f715 	smmulr	r7, r5, r5
100076c8:	f04f 3455 	mov.w	r4, #1431655765	@ 0x55555555
100076cc:	fb56 f614 	smmulr	r6, r6, r4
100076d0:	ebb6 3617 	subs.w	r6, r6, r7, lsr #12
100076d4:	eb10 0086 	adds.w	r0, r0, r6, lsl #2
100076d8:	eb41 71a6 	adc.w	r1, r1, r6, asr #30
100076dc:	1a10      	subs	r0, r2, r0
100076de:	eb63 0101 	sbc.w	r1, r3, r1
100076e2:	4a22      	ldr	r2, [pc, #136]	@ (1000776c <__wrap_log+0x176>)
100076e4:	ca24      	ldmia	r2, {r2, r5}
100076e6:	f11c 0c01 	adds.w	ip, ip, #1
100076ea:	dd0b      	ble.n	10007704 <__wrap_log+0x10e>
100076ec:	fba2 230c 	umull	r2, r3, r2, ip
100076f0:	2400      	movs	r4, #0
100076f2:	fbe5 340c 	umlal	r3, r4, r5, ip
100076f6:	1a12      	subs	r2, r2, r0
100076f8:	418b      	sbcs	r3, r1
100076fa:	f164 0400 	sbc.w	r4, r4, #0
100076fe:	f05f 4180 	movs.w	r1, #1073741824	@ 0x40000000
10007702:	e00c      	b.n	1000771e <__wrap_log+0x128>
10007704:	f1dc 0c00 	rsbs	ip, ip, #0
10007708:	fba2 230c 	umull	r2, r3, r2, ip
1000770c:	2400      	movs	r4, #0
1000770e:	fbe5 340c 	umlal	r3, r4, r5, ip
10007712:	1882      	adds	r2, r0, r2
10007714:	414b      	adcs	r3, r1
10007716:	f144 0400 	adc.w	r4, r4, #0
1000771a:	f05f 4140 	movs.w	r1, #3221225472	@ 0xc0000000
1000771e:	b94c      	cbnz	r4, 10007734 <__wrap_log+0x13e>
10007720:	001c      	movs	r4, r3
10007722:	0013      	movs	r3, r2
10007724:	2200      	movs	r2, #0
10007726:	f1b1 7100 	subs.w	r1, r1, #33554432	@ 0x2000000
1000772a:	b91c      	cbnz	r4, 10007734 <__wrap_log+0x13e>
1000772c:	001c      	movs	r4, r3
1000772e:	2300      	movs	r3, #0
10007730:	f1b1 7100 	subs.w	r1, r1, #33554432	@ 0x2000000
10007734:	fab4 f584 	clz	r5, r4
10007738:	f1a5 061d 	sub.w	r6, r5, #29
1000773c:	eba1 5106 	sub.w	r1, r1, r6, lsl #20
10007740:	40ac      	lsls	r4, r5
10007742:	fa13 f005 	lsls.w	r0, r3, r5
10007746:	f1c5 0520 	rsb	r5, r5, #32
1000774a:	40eb      	lsrs	r3, r5
1000774c:	431c      	orrs	r4, r3
1000774e:	40ea      	lsrs	r2, r5
10007750:	4310      	orrs	r0, r2
10007752:	0ac0      	lsrs	r0, r0, #11
10007754:	eb50 5044 	adcs.w	r0, r0, r4, lsl #21
10007758:	eb41 21d4 	adc.w	r1, r1, r4, lsr #11
1000775c:	e8bd 81f0 	ldmia.w	sp!, {r4, r5, r6, r7, r8, pc}
10007760:	100071c4 	.word	0x100071c4
10007764:	10007134 	.word	0x10007134
10007768:	100071c4 	.word	0x100071c4
1000776c:	100072c4 	.word	0x100072c4

10007770 <fpow_int2>:
10007770:	2901      	cmp	r1, #1
10007772:	d056      	beq.n	10007822 <fpow_int2+0xb2>
10007774:	eb01 72d1 	add.w	r2, r1, r1, lsr #31
10007778:	1052      	asrs	r2, r2, #1
1000777a:	2a01      	cmp	r2, #1
1000777c:	ee07 0a10 	vmov	s14, r0
10007780:	460b      	mov	r3, r1
10007782:	d045      	beq.n	10007810 <fpow_int2+0xa0>
10007784:	b5f0      	push	{r4, r5, r6, r7, lr}
10007786:	2900      	cmp	r1, #0
10007788:	bfb8      	it	lt
1000778a:	3103      	addlt	r1, #3
1000778c:	1089      	asrs	r1, r1, #2
1000778e:	2901      	cmp	r1, #1
10007790:	460c      	mov	r4, r1
10007792:	b085      	sub	sp, #20
10007794:	d062      	beq.n	1000785c <fpow_int2+0xec>
10007796:	4619      	mov	r1, r3
10007798:	2b00      	cmp	r3, #0
1000779a:	bfb8      	it	lt
1000779c:	1dd9      	addlt	r1, r3, #7
1000779e:	10c9      	asrs	r1, r1, #3
100077a0:	2901      	cmp	r1, #1
100077a2:	460d      	mov	r5, r1
100077a4:	d042      	beq.n	1000782c <fpow_int2+0xbc>
100077a6:	4619      	mov	r1, r3
100077a8:	2b00      	cmp	r3, #0
100077aa:	bfb8      	it	lt
100077ac:	f103 010f 	addlt.w	r1, r3, #15
100077b0:	1109      	asrs	r1, r1, #4
100077b2:	2901      	cmp	r1, #1
100077b4:	460e      	mov	r6, r1
100077b6:	d054      	beq.n	10007862 <fpow_int2+0xf2>
100077b8:	4619      	mov	r1, r3
100077ba:	2b00      	cmp	r3, #0
100077bc:	bfb8      	it	lt
100077be:	f103 011f 	addlt.w	r1, r3, #31
100077c2:	1149      	asrs	r1, r1, #5
100077c4:	2901      	cmp	r1, #1
100077c6:	460f      	mov	r7, r1
100077c8:	d051      	beq.n	1000786e <fpow_int2+0xfe>
100077ca:	4619      	mov	r1, r3
100077cc:	2b00      	cmp	r3, #0
100077ce:	bfb8      	it	lt
100077d0:	f103 013f 	addlt.w	r1, r3, #63	@ 0x3f
100077d4:	1189      	asrs	r1, r1, #6
100077d6:	e9cd 2302 	strd	r2, r3, [sp, #8]
100077da:	9001      	str	r0, [sp, #4]
100077dc:	f7ff ffc8 	bl	10007770 <fpow_int2>
100077e0:	e9dd 2302 	ldrd	r2, r3, [sp, #8]
100077e4:	ee07 0a90 	vmov	s15, r0
100077e8:	f017 0f01 	tst.w	r7, #1
100077ec:	ee67 7aa7 	vmul.f32	s15, s15, s15
100077f0:	ed9d 7a01 	vldr	s14, [sp, #4]
100077f4:	d138      	bne.n	10007868 <fpow_int2+0xf8>
100077f6:	07f6      	lsls	r6, r6, #31
100077f8:	ee67 7aa7 	vmul.f32	s15, s15, s15
100077fc:	d501      	bpl.n	10007802 <fpow_int2+0x92>
100077fe:	ee67 7a87 	vmul.f32	s15, s15, s14
10007802:	07ed      	lsls	r5, r5, #31
10007804:	ee67 7aa7 	vmul.f32	s15, s15, s15
10007808:	d512      	bpl.n	10007830 <fpow_int2+0xc0>
1000780a:	ee67 7a87 	vmul.f32	s15, s15, s14
1000780e:	e00f      	b.n	10007830 <fpow_int2+0xc0>
10007810:	ee67 7a07 	vmul.f32	s15, s14, s14
10007814:	07db      	lsls	r3, r3, #31
10007816:	bf48      	it	mi
10007818:	ee67 7a87 	vmulmi.f32	s15, s15, s14
1000781c:	ee17 0a90 	vmov	r0, s15
10007820:	4770      	bx	lr
10007822:	ee07 0a90 	vmov	s15, r0
10007826:	ee17 0a90 	vmov	r0, s15
1000782a:	4770      	bx	lr
1000782c:	eef0 7a47 	vmov.f32	s15, s14
10007830:	07e0      	lsls	r0, r4, #31
10007832:	ee67 7aa7 	vmul.f32	s15, s15, s15
10007836:	d501      	bpl.n	1000783c <fpow_int2+0xcc>
10007838:	ee67 7a87 	vmul.f32	s15, s15, s14
1000783c:	ee67 7aa7 	vmul.f32	s15, s15, s15
10007840:	07d1      	lsls	r1, r2, #31
10007842:	bf48      	it	mi
10007844:	ee67 7a87 	vmulmi.f32	s15, s15, s14
10007848:	07da      	lsls	r2, r3, #31
1000784a:	ee67 7aa7 	vmul.f32	s15, s15, s15
1000784e:	d501      	bpl.n	10007854 <fpow_int2+0xe4>
10007850:	ee67 7a87 	vmul.f32	s15, s15, s14
10007854:	ee17 0a90 	vmov	r0, s15
10007858:	b005      	add	sp, #20
1000785a:	bdf0      	pop	{r4, r5, r6, r7, pc}
1000785c:	eef0 7a47 	vmov.f32	s15, s14
10007860:	e7ec      	b.n	1000783c <fpow_int2+0xcc>
10007862:	eef0 7a47 	vmov.f32	s15, s14
10007866:	e7cc      	b.n	10007802 <fpow_int2+0x92>
10007868:	ee67 7a87 	vmul.f32	s15, s15, s14
1000786c:	e7c3      	b.n	100077f6 <fpow_int2+0x86>
1000786e:	eef0 7a47 	vmov.f32	s15, s14
10007872:	e7c0      	b.n	100077f6 <fpow_int2+0x86>

10007874 <fpow_0>:
10007874:	b510      	push	{r4, lr}
10007876:	1e02      	subs	r2, r0, #0
10007878:	460c      	mov	r4, r1
1000787a:	b082      	sub	sp, #8
1000787c:	da14      	bge.n	100078a8 <fpow_0+0x34>
1000787e:	f3c1 53c7 	ubfx	r3, r1, #23, #8
10007882:	3b7f      	subs	r3, #127	@ 0x7f
10007884:	2b17      	cmp	r3, #23
10007886:	d80c      	bhi.n	100078a2 <fpow_0+0x2e>
10007888:	2001      	movs	r0, #1
1000788a:	f1c3 0c17 	rsb	ip, r3, #23
1000788e:	fa00 f00c 	lsl.w	r0, r0, ip
10007892:	3801      	subs	r0, #1
10007894:	4208      	tst	r0, r1
10007896:	d104      	bne.n	100078a2 <fpow_0+0x2e>
10007898:	b30b      	cbz	r3, 100078de <fpow_0+0x6a>
1000789a:	fa21 f10c 	lsr.w	r1, r1, ip
1000789e:	07cb      	lsls	r3, r1, #31
100078a0:	d41d      	bmi.n	100078de <fpow_0+0x6a>
100078a2:	f102 4200 	add.w	r2, r2, #2147483648	@ 0x80000000
100078a6:	4610      	mov	r0, r2
100078a8:	ee07 4a90 	vmov	s15, r4
100078ac:	eefd 7ae7 	vcvt.s32.f32	s15, s15
100078b0:	f012 43ff 	ands.w	r3, r2, #2139095040	@ 0x7f800000
100078b4:	ee17 1a90 	vmov	r1, s15
100078b8:	d005      	beq.n	100078c6 <fpow_0+0x52>
100078ba:	f1b3 4fff 	cmp.w	r3, #2139095040	@ 0x7f800000
100078be:	d002      	beq.n	100078c6 <fpow_0+0x52>
100078c0:	f3c2 0316 	ubfx	r3, r2, #0, #23
100078c4:	b35b      	cbz	r3, 1000791e <fpow_0+0xaa>
100078c6:	b199      	cbz	r1, 100078f0 <fpow_0+0x7c>
100078c8:	f101 0320 	add.w	r3, r1, #32
100078cc:	2b40      	cmp	r3, #64	@ 0x40
100078ce:	d812      	bhi.n	100078f6 <fpow_0+0x82>
100078d0:	2900      	cmp	r1, #0
100078d2:	db34      	blt.n	1000793e <fpow_0+0xca>
100078d4:	b002      	add	sp, #8
100078d6:	e8bd 4010 	ldmia.w	sp!, {r4, lr}
100078da:	f7ff bf49 	b.w	10007770 <fpow_int2>
100078de:	4621      	mov	r1, r4
100078e0:	f102 4000 	add.w	r0, r2, #2147483648	@ 0x80000000
100078e4:	f7ff ffc6 	bl	10007874 <fpow_0>
100078e8:	f100 4000 	add.w	r0, r0, #2147483648	@ 0x80000000
100078ec:	b002      	add	sp, #8
100078ee:	bd10      	pop	{r4, pc}
100078f0:	f04f 507e 	mov.w	r0, #1065353216	@ 0x3f800000
100078f4:	e7fa      	b.n	100078ec <fpow_0+0x78>
100078f6:	f003 fcd3 	bl	1000b2a0 <____aeabi_f2d_veneer>
100078fa:	f7ff fe7c 	bl	100075f6 <__wrap_log>
100078fe:	4602      	mov	r2, r0
10007900:	460b      	mov	r3, r1
10007902:	4620      	mov	r0, r4
10007904:	e9cd 2300 	strd	r2, r3, [sp]
10007908:	f003 fcca 	bl	1000b2a0 <____aeabi_f2d_veneer>
1000790c:	e9dd 2300 	ldrd	r2, r3, [sp]
10007910:	f7ff fa4e 	bl	10006db0 <__wrap___aeabi_dmul>
10007914:	f7ff fcf1 	bl	100072fa <__wrap_exp>
10007918:	f7ff fabe 	bl	10006e98 <__wrap___aeabi_d2f>
1000791c:	e7e6      	b.n	100078ec <fpow_0+0x78>
1000791e:	0dd2      	lsrs	r2, r2, #23
10007920:	3a7f      	subs	r2, #127	@ 0x7f
10007922:	f301 0108 	ssat	r1, #9, r1
10007926:	fb01 f302 	mul.w	r3, r1, r2
1000792a:	f103 027f 	add.w	r2, r3, #127	@ 0x7f
1000792e:	2a00      	cmp	r2, #0
10007930:	dd0f      	ble.n	10007952 <fpow_0+0xde>
10007932:	2afe      	cmp	r2, #254	@ 0xfe
10007934:	dc0f      	bgt.n	10007956 <fpow_0+0xe2>
10007936:	05db      	lsls	r3, r3, #23
10007938:	f103 507e 	add.w	r0, r3, #1065353216	@ 0x3f800000
1000793c:	e7d6      	b.n	100078ec <fpow_0+0x78>
1000793e:	ee07 0a10 	vmov	s14, r0
10007942:	eef7 7a00 	vmov.f32	s15, #112	@ 0x3f800000  1.0
10007946:	eec7 7a87 	vdiv.f32	s15, s15, s14
1000794a:	4249      	negs	r1, r1
1000794c:	ee17 0a90 	vmov	r0, s15
10007950:	e7c0      	b.n	100078d4 <fpow_0+0x60>
10007952:	2000      	movs	r0, #0
10007954:	e7ca      	b.n	100078ec <fpow_0+0x78>
10007956:	f04f 40ff 	mov.w	r0, #2139095040	@ 0x7f800000
1000795a:	e7c7      	b.n	100078ec <fpow_0+0x78>

1000795c <__wrap_powf>:
1000795c:	ee07 0a90 	vmov	s15, r0
10007960:	eeb7 7a00 	vmov.f32	s14, #112	@ 0x3f800000  1.0
10007964:	eef4 7a47 	vcmp.f32	s15, s14
10007968:	eef1 fa10 	vmrs	APSR_nzcv, fpscr
1000796c:	d02d      	beq.n	100079ca <__wrap_powf+0x6e>
1000796e:	f011 42ff 	ands.w	r2, r1, #2139095040	@ 0x7f800000
10007972:	460b      	mov	r3, r1
10007974:	d026      	beq.n	100079c4 <__wrap_powf+0x68>
10007976:	eeff 6a00 	vmov.f32	s13, #240	@ 0xbf800000 -1.0
1000797a:	eef4 7a66 	vcmp.f32	s15, s13
1000797e:	eef1 fa10 	vmrs	APSR_nzcv, fpscr
10007982:	b510      	push	{r4, lr}
10007984:	b082      	sub	sp, #8
10007986:	d121      	bne.n	100079cc <__wrap_powf+0x70>
10007988:	f1b2 4fff 	cmp.w	r2, #2139095040	@ 0x7f800000
1000798c:	d067      	beq.n	10007a5e <__wrap_powf+0x102>
1000798e:	0dca      	lsrs	r2, r1, #23
10007990:	2aff      	cmp	r2, #255	@ 0xff
10007992:	d043      	beq.n	10007a1c <__wrap_powf+0xc0>
10007994:	485d      	ldr	r0, [pc, #372]	@ (10007b0c <__wrap_powf+0x1b0>)
10007996:	f012 02ff 	ands.w	r2, r2, #255	@ 0xff
1000799a:	d00c      	beq.n	100079b6 <__wrap_powf+0x5a>
1000799c:	3a7f      	subs	r2, #127	@ 0x7f
1000799e:	d464      	bmi.n	10007a6a <__wrap_powf+0x10e>
100079a0:	2a16      	cmp	r2, #22
100079a2:	dc08      	bgt.n	100079b6 <__wrap_powf+0x5a>
100079a4:	f04f 0c01 	mov.w	ip, #1
100079a8:	f1c2 0217 	rsb	r2, r2, #23
100079ac:	fa0c f202 	lsl.w	r2, ip, r2
100079b0:	3a01      	subs	r2, #1
100079b2:	421a      	tst	r2, r3
100079b4:	d159      	bne.n	10007a6a <__wrap_powf+0x10e>
100079b6:	ee17 0a90 	vmov	r0, s15
100079ba:	b002      	add	sp, #8
100079bc:	e8bd 4010 	ldmia.w	sp!, {r4, lr}
100079c0:	f7ff bf58 	b.w	10007874 <fpow_0>
100079c4:	ee17 0a10 	vmov	r0, s14
100079c8:	4770      	bx	lr
100079ca:	4770      	bx	lr
100079cc:	f010 4fff 	tst.w	r0, #2139095040	@ 0x7f800000
100079d0:	d119      	bne.n	10007a06 <__wrap_powf+0xaa>
100079d2:	2900      	cmp	r1, #0
100079d4:	ea4f 52d1 	mov.w	r2, r1, lsr #23
100079d8:	db2a      	blt.n	10007a30 <__wrap_powf+0xd4>
100079da:	3a7f      	subs	r2, #127	@ 0x7f
100079dc:	2a17      	cmp	r2, #23
100079de:	d824      	bhi.n	10007a2a <__wrap_powf+0xce>
100079e0:	2101      	movs	r1, #1
100079e2:	f1c2 0017 	rsb	r0, r2, #23
100079e6:	4081      	lsls	r1, r0
100079e8:	3901      	subs	r1, #1
100079ea:	4219      	tst	r1, r3
100079ec:	d11d      	bne.n	10007a2a <__wrap_powf+0xce>
100079ee:	b3ca      	cbz	r2, 10007a64 <__wrap_powf+0x108>
100079f0:	ed9f 7a47 	vldr	s14, [pc, #284]	@ 10007b10 <__wrap_powf+0x1b4>
100079f4:	fa23 f000 	lsr.w	r0, r3, r0
100079f8:	f010 0f01 	tst.w	r0, #1
100079fc:	fe47 7a27 	vseleq.f32	s15, s14, s15
10007a00:	ee17 0a90 	vmov	r0, s15
10007a04:	e008      	b.n	10007a18 <__wrap_powf+0xbc>
10007a06:	ea4f 5cd0 	mov.w	ip, r0, lsr #23
10007a0a:	f1bc 0fff 	cmp.w	ip, #255	@ 0xff
10007a0e:	d145      	bne.n	10007a9c <__wrap_powf+0x140>
10007a10:	2b00      	cmp	r3, #0
10007a12:	db0a      	blt.n	10007a2a <__wrap_powf+0xce>
10007a14:	f04f 40ff 	mov.w	r0, #2139095040	@ 0x7f800000
10007a18:	b002      	add	sp, #8
10007a1a:	bd10      	pop	{r4, pc}
10007a1c:	f240 1c7f 	movw	ip, #383	@ 0x17f
10007a20:	fa5f fc8c 	uxtb.w	ip, ip
10007a24:	f1bc 0f7e 	cmp.w	ip, #126	@ 0x7e
10007a28:	d8f4      	bhi.n	10007a14 <__wrap_powf+0xb8>
10007a2a:	2000      	movs	r0, #0
10007a2c:	b002      	add	sp, #8
10007a2e:	bd10      	pop	{r4, pc}
10007a30:	b2d2      	uxtb	r2, r2
10007a32:	3a7f      	subs	r2, #127	@ 0x7f
10007a34:	2a17      	cmp	r2, #23
10007a36:	d8ed      	bhi.n	10007a14 <__wrap_powf+0xb8>
10007a38:	2101      	movs	r1, #1
10007a3a:	f1c2 0c17 	rsb	ip, r2, #23
10007a3e:	fa01 f10c 	lsl.w	r1, r1, ip
10007a42:	3901      	subs	r1, #1
10007a44:	4219      	tst	r1, r3
10007a46:	d1e5      	bne.n	10007a14 <__wrap_powf+0xb8>
10007a48:	b122      	cbz	r2, 10007a54 <__wrap_powf+0xf8>
10007a4a:	fa23 fc0c 	lsr.w	ip, r3, ip
10007a4e:	f01c 0f01 	tst.w	ip, #1
10007a52:	d0df      	beq.n	10007a14 <__wrap_powf+0xb8>
10007a54:	f000 4000 	and.w	r0, r0, #2147483648	@ 0x80000000
10007a58:	f040 40ff 	orr.w	r0, r0, #2139095040	@ 0x7f800000
10007a5c:	e7dc      	b.n	10007a18 <__wrap_powf+0xbc>
10007a5e:	ee17 0a10 	vmov	r0, s14
10007a62:	e7d9      	b.n	10007a18 <__wrap_powf+0xbc>
10007a64:	ee17 0a90 	vmov	r0, s15
10007a68:	e7d6      	b.n	10007a18 <__wrap_powf+0xbc>
10007a6a:	2800      	cmp	r0, #0
10007a6c:	dbd2      	blt.n	10007a14 <__wrap_powf+0xb8>
10007a6e:	ee17 0a90 	vmov	r0, s15
10007a72:	460c      	mov	r4, r1
10007a74:	f003 fc14 	bl	1000b2a0 <____aeabi_f2d_veneer>
10007a78:	f7ff fdbd 	bl	100075f6 <__wrap_log>
10007a7c:	4602      	mov	r2, r0
10007a7e:	460b      	mov	r3, r1
10007a80:	4620      	mov	r0, r4
10007a82:	e9cd 2300 	strd	r2, r3, [sp]
10007a86:	f003 fc0b 	bl	1000b2a0 <____aeabi_f2d_veneer>
10007a8a:	e9dd 2300 	ldrd	r2, r3, [sp]
10007a8e:	f7ff f98f 	bl	10006db0 <__wrap___aeabi_dmul>
10007a92:	f7ff fc32 	bl	100072fa <__wrap_exp>
10007a96:	f7ff f9ff 	bl	10006e98 <__wrap___aeabi_d2f>
10007a9a:	e7bd      	b.n	10007a18 <__wrap_powf+0xbc>
10007a9c:	f240 1eff 	movw	lr, #511	@ 0x1ff
10007aa0:	45f4      	cmp	ip, lr
10007aa2:	ea4f 52d3 	mov.w	r2, r3, lsr #23
10007aa6:	d00a      	beq.n	10007abe <__wrap_powf+0x162>
10007aa8:	2aff      	cmp	r2, #255	@ 0xff
10007aaa:	d0b9      	beq.n	10007a20 <__wrap_powf+0xc4>
10007aac:	4572      	cmp	r2, lr
10007aae:	f47f af72 	bne.w	10007996 <__wrap_powf+0x3a>
10007ab2:	fa5f fc8c 	uxtb.w	ip, ip
10007ab6:	f1bc 0f7e 	cmp.w	ip, #126	@ 0x7e
10007aba:	d9ab      	bls.n	10007a14 <__wrap_powf+0xb8>
10007abc:	e7b5      	b.n	10007a2a <__wrap_powf+0xce>
10007abe:	2b00      	cmp	r3, #0
10007ac0:	db10      	blt.n	10007ae4 <__wrap_powf+0x188>
10007ac2:	3a7f      	subs	r2, #127	@ 0x7f
10007ac4:	2a17      	cmp	r2, #23
10007ac6:	d8a5      	bhi.n	10007a14 <__wrap_powf+0xb8>
10007ac8:	2101      	movs	r1, #1
10007aca:	f1c2 0017 	rsb	r0, r2, #23
10007ace:	4081      	lsls	r1, r0
10007ad0:	3901      	subs	r1, #1
10007ad2:	4219      	tst	r1, r3
10007ad4:	d19e      	bne.n	10007a14 <__wrap_powf+0xb8>
10007ad6:	b11a      	cbz	r2, 10007ae0 <__wrap_powf+0x184>
10007ad8:	fa23 f000 	lsr.w	r0, r3, r0
10007adc:	07c2      	lsls	r2, r0, #31
10007ade:	d599      	bpl.n	10007a14 <__wrap_powf+0xb8>
10007ae0:	480c      	ldr	r0, [pc, #48]	@ (10007b14 <__wrap_powf+0x1b8>)
10007ae2:	e799      	b.n	10007a18 <__wrap_powf+0xbc>
10007ae4:	b2d2      	uxtb	r2, r2
10007ae6:	3a7f      	subs	r2, #127	@ 0x7f
10007ae8:	2a17      	cmp	r2, #23
10007aea:	d89e      	bhi.n	10007a2a <__wrap_powf+0xce>
10007aec:	2101      	movs	r1, #1
10007aee:	f1c2 0017 	rsb	r0, r2, #23
10007af2:	4081      	lsls	r1, r0
10007af4:	3901      	subs	r1, #1
10007af6:	4219      	tst	r1, r3
10007af8:	d197      	bne.n	10007a2a <__wrap_powf+0xce>
10007afa:	b11a      	cbz	r2, 10007b04 <__wrap_powf+0x1a8>
10007afc:	fa23 f000 	lsr.w	r0, r3, r0
10007b00:	07c3      	lsls	r3, r0, #31
10007b02:	d592      	bpl.n	10007a2a <__wrap_powf+0xce>
10007b04:	f04f 4000 	mov.w	r0, #2147483648	@ 0x80000000
10007b08:	e786      	b.n	10007a18 <__wrap_powf+0xbc>
10007b0a:	bf00      	nop
10007b0c:	bf800000 	.word	0xbf800000
10007b10:	00000000 	.word	0x00000000
10007b14:	ff800000 	.word	0xff800000
10007b18:	00000000 	.word	0x00000000

10007b1c <rtwopi>:
	...
10007b24:	28be60db 	.word	0x28be60db
10007b28:	9391054a 	.word	0x9391054a
10007b2c:	7f09d5f4 	.word	0x7f09d5f4
10007b30:	7d4d3770 	.word	0x7d4d3770
10007b34:	36d8a566 	.word	0x36d8a566
10007b38:	4f10e410 	.word	0x4f10e410

10007b3c <frr_core>:
10007b3c:	f2af 0224 	subw	r2, pc, #36	@ 0x24
10007b40:	114b      	asrs	r3, r1, #5
10007b42:	eb02 0283 	add.w	r2, r2, r3, lsl #2
10007b46:	f001 031f 	and.w	r3, r1, #31
10007b4a:	f04f 0401 	mov.w	r4, #1
10007b4e:	409c      	lsls	r4, r3
10007b50:	fba4 3400 	umull	r3, r4, r4, r0
10007b54:	68d5      	ldr	r5, [r2, #12]
10007b56:	fba5 5604 	umull	r5, r6, r5, r4
10007b5a:	6895      	ldr	r5, [r2, #8]
10007b5c:	fb05 6604 	mla	r6, r5, r4, r6
10007b60:	fbe5 5603 	umlal	r5, r6, r5, r3
10007b64:	6855      	ldr	r5, [r2, #4]
10007b66:	fb05 6603 	mla	r6, r5, r3, r6
10007b6a:	4770      	bx	lr
10007b6c:	0000      	movs	r0, r0
	...

10007b70 <__wrap_logf>:
10007b70:	f1b0 4fff 	cmp.w	r0, #2139095040	@ 0x7f800000
10007b74:	d23e      	bcs.n	10007bf4 <__wrap_logf+0x84>
10007b76:	15c1      	asrs	r1, r0, #23
10007b78:	d03e      	beq.n	10007bf8 <__wrap_logf+0x88>
10007b7a:	f04f 0201 	mov.w	r2, #1
10007b7e:	f362 50df 	bfi	r0, r2, #23, #9
10007b82:	bf38      	it	cc
10007b84:	0040      	lslcc	r0, r0, #1
10007b86:	a326      	add	r3, pc, #152	@ (adr r3, 10007c20 <k_log3>)
10007b88:	ec93 4a03 	vldmia	r3, {s8-s10}
10007b8c:	f2af 031c 	subw	r3, pc, #28
10007b90:	eb03 4310 	add.w	r3, r3, r0, lsr #16
10007b94:	f023 0307 	bic.w	r3, r3, #7
10007b98:	e9d3 2300 	ldrd	r2, r3, [r3]
10007b9c:	fb00 f002 	mul.w	r0, r0, r2
10007ba0:	ec40 3a10 	vmov	s0, s1, r3, r0
10007ba4:	eefa 0ac0 	vcvt.f32.s32	s1, s1, #32
10007ba8:	ee20 1aa0 	vmul.f32	s2, s1, s1
10007bac:	f161 017e 	sbc.w	r1, r1, #126	@ 0x7e
10007bb0:	ee60 1a81 	vmul.f32	s3, s1, s2
10007bb4:	05c9      	lsls	r1, r1, #23
10007bb6:	ee21 2a01 	vmul.f32	s4, s2, s2
10007bba:	f640 32fc 	movw	r2, #3068	@ 0xbfc
10007bbe:	ee21 1a04 	vmul.f32	s2, s2, s8
10007bc2:	f6c5 02b9 	movt	r2, #22713	@ 0x58b9
10007bc6:	ee61 1aa4 	vmul.f32	s3, s3, s9
10007bca:	fb51 f112 	smmulr	r1, r1, r2
10007bce:	ee22 2a05 	vmul.f32	s4, s4, s10
10007bd2:	ee03 1a90 	vmov	s7, r1
10007bd6:	ee71 1ac2 	vsub.f32	s3, s3, s4
10007bda:	eefa 3ac5 	vcvt.f32.s32	s7, s7, #22
10007bde:	ee31 1a61 	vsub.f32	s2, s2, s3
10007be2:	ee70 0ac1 	vsub.f32	s1, s1, s2
10007be6:	ee30 0a20 	vadd.f32	s0, s0, s1
10007bea:	ee30 0a23 	vadd.f32	s0, s0, s7
10007bee:	ee10 0a10 	vmov	r0, s0
10007bf2:	4770      	bx	lr
10007bf4:	dc05      	bgt.n	10007c02 <__wrap_logf+0x92>
10007bf6:	d00b      	beq.n	10007c10 <__wrap_logf+0xa0>
10007bf8:	f110 4fff 	cmn.w	r0, #2139095040	@ 0x7f800000
10007bfc:	d309      	bcc.n	10007c12 <__wrap_logf+0xa2>
10007bfe:	f510 0f00 	cmn.w	r0, #8388608	@ 0x800000
10007c02:	f440 0080 	orr.w	r0, r0, #4194304	@ 0x400000
10007c06:	d803      	bhi.n	10007c10 <__wrap_logf+0xa0>
10007c08:	f240 0000 	movw	r0, #0
10007c0c:	f6cf 70c0 	movt	r0, #65472	@ 0xffc0
10007c10:	4770      	bx	lr
10007c12:	f240 0000 	movw	r0, #0
10007c16:	f6cf 7080 	movt	r0, #65408	@ 0xff80
10007c1a:	4770      	bx	lr
10007c1c:	f3af 8000 	nop.w

10007c20 <k_log3>:
10007c20:	3f000000 	.word	0x3f000000
10007c24:	3eaaaaab 	.word	0x3eaaaaab
10007c28:	3e800000 	.word	0x3e800000
10007c2c:	00000000 	.word	0x00000000

10007c30 <logtab3>:
10007c30:	00000155 	.word	0x00000155
10007c34:	be92cb01 	.word	0xbe92cb01
10007c38:	00000148 	.word	0x00000148
10007c3c:	be7dc8c3 	.word	0xbe7dc8c3
10007c40:	0000013b 	.word	0x0000013b
10007c44:	be545f68 	.word	0xbe545f68
10007c48:	0000012f 	.word	0x0000012f
10007c4c:	be2c99c7 	.word	0xbe2c99c7
10007c50:	00000125 	.word	0x00000125
10007c54:	be0a3c2c 	.word	0xbe0a3c2c
10007c58:	0000011a 	.word	0x0000011a
10007c5c:	bdc61a2f 	.word	0xbdc61a2f
10007c60:	00000111 	.word	0x00000111
10007c64:	bd83acc2 	.word	0xbd83acc2
10007c68:	00000108 	.word	0x00000108
10007c6c:	bcfc14d8 	.word	0xbcfc14d8
10007c70:	00000100 	.word	0x00000100
10007c74:	00000000 	.word	0x00000000
10007c78:	000000f8 	.word	0x000000f8
10007c7c:	3d020aec 	.word	0x3d020aec
10007c80:	000000f1 	.word	0x000000f1
10007c84:	3d77518e 	.word	0x3d77518e
10007c88:	000000ea 	.word	0x000000ea
10007c8c:	3db80698 	.word	0x3db80698
10007c90:	000000e4 	.word	0x000000e4
10007c94:	3ded393b 	.word	0x3ded393b
10007c98:	000000dd 	.word	0x000000dd
10007c9c:	3e168b08 	.word	0x3e168b08
10007ca0:	000000d8 	.word	0x000000d8
10007ca4:	3e2dfa03 	.word	0x3e2dfa03
10007ca8:	000000d2 	.word	0x000000d2
10007cac:	3e4ad2d7 	.word	0x3e4ad2d7
10007cb0:	000000cd 	.word	0x000000cd
10007cb4:	3e637fde 	.word	0x3e637fde
10007cb8:	000000c8 	.word	0x000000c8
10007cbc:	3e7cc8e3 	.word	0x3e7cc8e3
10007cc0:	000000c3 	.word	0x000000c3
10007cc4:	3e8b5ae6 	.word	0x3e8b5ae6
10007cc8:	000000bf 	.word	0x000000bf
10007ccc:	3e95f784 	.word	0x3e95f784
10007cd0:	000000ba 	.word	0x000000ba
10007cd4:	3ea38c6e 	.word	0x3ea38c6e
10007cd8:	000000b6 	.word	0x000000b6
10007cdc:	3eaeadef 	.word	0x3eaeadef
10007ce0:	000000b2 	.word	0x000000b2
10007ce4:	3eba0ec4 	.word	0x3eba0ec4
10007ce8:	000000ae 	.word	0x000000ae
10007cec:	3ec5b1cd 	.word	0x3ec5b1cd
10007cf0:	000000ab 	.word	0x000000ab
10007cf4:	3ece995f 	.word	0x3ece995f
10007cf8:	0241      	lsls	r1, r0, #9
10007cfa:	d101      	bne.n	10007d00 <logtab3+0xd0>
10007cfc:	f050 4000 	orrs.w	r0, r0, #2147483648	@ 0x80000000
10007d00:	f450 0080 	orrs.w	r0, r0, #4194304	@ 0x400000
10007d04:	4770      	bx	lr
10007d06:	b5f0      	push	{r4, r5, r6, r7, lr}
10007d08:	2301      	movs	r3, #1
10007d0a:	f363 50df 	bfi	r0, r3, #23, #9
10007d0e:	f1c1 0109 	rsb	r1, r1, #9
10007d12:	f04f 077e 	mov.w	r7, #126	@ 0x7e
10007d16:	f7ff ff11 	bl	10007b3c <frr_core>
10007d1a:	0fb3      	lsrs	r3, r6, #30
10007d1c:	f153 0300 	adcs.w	r3, r3, #0
10007d20:	449c      	add	ip, r3
10007d22:	ebb6 7683 	subs.w	r6, r6, r3, lsl #30
10007d26:	00b2      	lsls	r2, r6, #2
10007d28:	bf28      	it	cs
10007d2a:	4252      	negcs	r2, r2
10007d2c:	f1b2 5f80 	cmp.w	r2, #268435456	@ 0x10000000
10007d30:	d20b      	bcs.n	10007d4a <logtab3+0x11a>
10007d32:	3102      	adds	r1, #2
10007d34:	f7ff ff02 	bl	10007b3c <frr_core>
10007d38:	ea96 0226 	eors.w	r2, r6, r6, asr #32
10007d3c:	f142 0200 	adc.w	r2, r2, #0
10007d40:	f1b2 5f80 	cmp.w	r2, #268435456	@ 0x10000000
10007d44:	d201      	bcs.n	10007d4a <logtab3+0x11a>
10007d46:	3f02      	subs	r7, #2
10007d48:	d5f3      	bpl.n	10007d32 <logtab3+0x102>
10007d4a:	4c0a      	ldr	r4, [pc, #40]	@ (10007d74 <logtab3+0x144>)
10007d4c:	fba2 2404 	umull	r2, r4, r2, r4
10007d50:	fab4 f284 	clz	r2, r4
10007d54:	4094      	lsls	r4, r2
10007d56:	0a24      	lsrs	r4, r4, #8
10007d58:	eba7 0202 	sub.w	r2, r7, r2
10007d5c:	eb44 50c2 	adc.w	r0, r4, r2, lsl #23
10007d60:	0dc1      	lsrs	r1, r0, #23
10007d62:	f1d1 017f 	rsbs	r1, r1, #127	@ 0x7f
10007d66:	0ff6      	lsrs	r6, r6, #31
10007d68:	eb00 73c6 	add.w	r3, r0, r6, lsl #31
10007d6c:	e8bd 40f0 	ldmia.w	sp!, {r4, r5, r6, r7, lr}
10007d70:	e073      	b.n	10007e5a <__wrap_cosf+0x14>
10007d72:	0000      	.short	0x0000
10007d74:	c90fdaa2 	.word	0xc90fdaa2
10007d78:	f111 0f80 	cmn.w	r1, #128	@ 0x80
10007d7c:	d0bc      	beq.n	10007cf8 <logtab3+0xc8>
10007d7e:	ea30 72cc 	bics.w	r2, r0, ip, lsl #31
10007d82:	bf48      	it	mi
10007d84:	f10c 0c02 	addmi.w	ip, ip, #2
10007d88:	f020 4000 	bic.w	r0, r0, #2147483648	@ 0x80000000
10007d8c:	ee00 0a10 	vmov	s0, r0
10007d90:	a20d      	add	r2, pc, #52	@ (adr r2, 10007dc8 <k_sc4>)
10007d92:	ecf2 2a03 	vldmia	r2!, {s5-s7}
10007d96:	ee22 2a80 	vmul.f32	s4, s5, s0
10007d9a:	f111 0f08 	cmn.w	r1, #8
10007d9e:	feb9 2a42 	vrintn.f32	s4, s4
10007da2:	ddb0      	ble.n	10007d06 <logtab3+0xd6>
10007da4:	eea2 0a63 	vfms.f32	s0, s4, s7
10007da8:	eea2 0a43 	vfms.f32	s0, s4, s6
10007dac:	ee10 3a10 	vmov	r3, s0
10007db0:	eefd 1ac2 	vcvt.s32.f32	s3, s4
10007db4:	f3c3 52c7 	ubfx	r2, r3, #23, #8
10007db8:	2a78      	cmp	r2, #120	@ 0x78
10007dba:	d3a4      	bcc.n	10007d06 <logtab3+0xd6>
10007dbc:	f1d2 017f 	rsbs	r1, r2, #127	@ 0x7f
10007dc0:	ee11 2a90 	vmov	r2, s3
10007dc4:	4494      	add	ip, r2
10007dc6:	e048      	b.n	10007e5a <__wrap_cosf+0x14>

10007dc8 <k_sc4>:
10007dc8:	3f22f983 	.word	0x3f22f983
10007dcc:	b695777a 	.word	0xb695777a
10007dd0:	3fc91000 	.word	0x3fc91000

10007dd4 <__wrap_sincosf>:
10007dd4:	b507      	push	{r0, r1, r2, lr}
10007dd6:	f3c0 51c7 	ubfx	r1, r0, #23, #8
10007dda:	29ff      	cmp	r1, #255	@ 0xff
10007ddc:	d025      	beq.n	10007e2a <__wrap_sincosf+0x56>
10007dde:	f000 f832 	bl	10007e46 <__wrap_cosf>
10007de2:	e8bd 4006 	ldmia.w	sp!, {r1, r2, lr}
10007de6:	f8ce 0000 	str.w	r0, [lr]
10007dea:	d20e      	bcs.n	10007e0a <__wrap_sincosf+0x36>
10007dec:	43c9      	mvns	r1, r1
10007dee:	ea8c 7cd1 	eor.w	ip, ip, r1, lsr #31
10007df2:	ee63 2aa0 	vmul.f32	s5, s7, s1
10007df6:	eee1 2a03 	vfma.f32	s5, s2, s6
10007dfa:	ee73 2a62 	vsub.f32	s5, s6, s5
10007dfe:	ee12 0a90 	vmov	r0, s5
10007e02:	ea80 70cc 	eor.w	r0, r0, ip, lsl #31
10007e06:	6010      	str	r0, [r2, #0]
10007e08:	bd00      	pop	{pc}
10007e0a:	ea8c 7cd1 	eor.w	ip, ip, r1, lsr #31
10007e0e:	ee21 2a23 	vmul.f32	s4, s2, s7
10007e12:	eea3 2a60 	vfms.f32	s4, s6, s1
10007e16:	ea8c 71d3 	eor.w	r1, ip, r3, lsr #31
10007e1a:	ee33 2ac2 	vsub.f32	s4, s7, s4
10007e1e:	ee12 0a10 	vmov	r0, s4
10007e22:	ea80 70c1 	eor.w	r0, r0, r1, lsl #31
10007e26:	6010      	str	r0, [r2, #0]
10007e28:	bd00      	pop	{pc}
10007e2a:	0241      	lsls	r1, r0, #9
10007e2c:	e8bd 400e 	ldmia.w	sp!, {r1, r2, r3, lr}
10007e30:	d101      	bne.n	10007e36 <__wrap_sincosf+0x62>
10007e32:	f050 4000 	orrs.w	r0, r0, #2147483648	@ 0x80000000
10007e36:	f450 0080 	orrs.w	r0, r0, #4194304	@ 0x400000
10007e3a:	6010      	str	r0, [r2, #0]
10007e3c:	6018      	str	r0, [r3, #0]
10007e3e:	4770      	bx	lr

10007e40 <__wrap_sinf>:
10007e40:	f05f 0c00 	movs.w	ip, #0
10007e44:	e001      	b.n	10007e4a <__wrap_cosf+0x4>

10007e46 <__wrap_cosf>:
10007e46:	f05f 0c01 	movs.w	ip, #1
10007e4a:	f3c0 51c7 	ubfx	r1, r0, #23, #8
10007e4e:	b3a1      	cbz	r1, 10007eba <fsc_sintail+0x1a>
10007e50:	f1d1 017f 	rsbs	r1, r1, #127	@ 0x7f
10007e54:	d990      	bls.n	10007d78 <logtab3+0x148>
10007e56:	ea20 73cc 	bic.w	r3, r0, ip, lsl #31
10007e5a:	f023 4000 	bic.w	r0, r3, #2147483648	@ 0x80000000
10007e5e:	ee00 0a10 	vmov	s0, r0
10007e62:	f3c0 4084 	ubfx	r0, r0, #18, #5
10007e66:	3020      	adds	r0, #32
10007e68:	fa30 f101 	lsrs.w	r1, r0, r1
10007e6c:	4a83      	ldr	r2, [pc, #524]	@ (1000807c <trigtab2+0x18c>)
10007e6e:	f151 0100 	adcs.w	r1, r1, #0
10007e72:	ecb2 4a02 	vldmia	r2!, {s8-s9}
10007e76:	eb02 0281 	add.w	r2, r2, r1, lsl #2
10007e7a:	eb02 02c1 	add.w	r2, r2, r1, lsl #3
10007e7e:	ecd2 2a03 	vldmia	r2, {s5-s7}
10007e82:	ee70 0a62 	vsub.f32	s1, s0, s5
10007e86:	ee20 1aa0 	vmul.f32	s2, s1, s1
10007e8a:	ea5f 0c5c 	movs.w	ip, ip, lsr #1
10007e8e:	ee61 1a20 	vmul.f32	s3, s2, s1
10007e92:	d215      	bcs.n	10007ec0 <fsc_sintail+0x20>
10007e94:	ee21 1a04 	vmul.f32	s2, s2, s8
10007e98:	ee61 1aa4 	vmul.f32	s3, s3, s9
10007e9c:	ee70 0ae1 	vsub.f32	s1, s1, s3

10007ea0 <fsc_sintail>:
10007ea0:	ee21 2a23 	vmul.f32	s4, s2, s7
10007ea4:	eea3 2a60 	vfms.f32	s4, s6, s1
10007ea8:	ea8c 71d3 	eor.w	r1, ip, r3, lsr #31
10007eac:	ee33 2ac2 	vsub.f32	s4, s7, s4
10007eb0:	ee12 0a10 	vmov	r0, s4
10007eb4:	ea80 70c1 	eor.w	r0, r0, r1, lsl #31
10007eb8:	4770      	bx	lr
10007eba:	f000 4000 	and.w	r0, r0, #2147483648	@ 0x80000000
10007ebe:	e7c7      	b.n	10007e50 <__wrap_cosf+0xa>
10007ec0:	ee61 1aa4 	vmul.f32	s3, s3, s9
10007ec4:	ee70 0ae1 	vsub.f32	s1, s1, s3
10007ec8:	ee21 1a04 	vmul.f32	s2, s2, s8

10007ecc <fsc_costail>:
10007ecc:	ee63 2aa0 	vmul.f32	s5, s7, s1
10007ed0:	eee1 2a03 	vfma.f32	s5, s2, s6
10007ed4:	ee73 2a62 	vsub.f32	s5, s6, s5
10007ed8:	ee12 0a90 	vmov	r0, s5
10007edc:	ea80 70cc 	eor.w	r0, r0, ip, lsl #31
10007ee0:	4770      	bx	lr
10007ee2:	bf00      	nop
10007ee4:	f3af 8000 	nop.w

10007ee8 <k_sc3>:
10007ee8:	3efffec1 	.word	0x3efffec1
10007eec:	3e2aaa25 	.word	0x3e2aaa25

10007ef0 <trigtab2>:
10007ef0:	00000000 	.word	0x00000000
10007ef4:	3f800000 	.word	0x3f800000
10007ef8:	00000000 	.word	0x00000000
10007efc:	3cfcc961 	.word	0x3cfcc961
10007f00:	3f7fe0cd 	.word	0x3f7fe0cd
10007f04:	3cfcbf1c 	.word	0x3cfcbf1c
10007f08:	3d810576 	.word	0x3d810576
10007f0c:	3f7f7dfe 	.word	0x3f7f7dfe
10007f10:	3d80ef9e 	.word	0x3d80ef9e
10007f14:	3dbf0c09 	.word	0x3dbf0c09
10007f18:	3f7ee30f 	.word	0x3f7ee30f
10007f1c:	3dbec522 	.word	0x3dbec522
10007f20:	3dff24b6 	.word	0x3dff24b6
10007f24:	3f7e0414 	.word	0x3f7e0414
10007f28:	3dfe7be2 	.word	0x3dfe7be2
10007f2c:	3e1f0713 	.word	0x3e1f0713
10007f30:	3f7ceb48 	.word	0x3f7ceb48
10007f34:	3e1e63a0 	.word	0x3e1e63a0
10007f38:	3e40306d 	.word	0x3e40306d
10007f3c:	3f7b811d 	.word	0x3f7b811d
10007f40:	3e3f1015 	.word	0x3e3f1015
10007f44:	3e60ada2 	.word	0x3e60ada2
10007f48:	3f79dccf 	.word	0x3f79dccf
10007f4c:	3e5ee13e 	.word	0x3e5ee13e
10007f50:	3e800d7b 	.word	0x3e800d7b
10007f54:	3f7808fa 	.word	0x3f7808fa
10007f58:	3e7d7196 	.word	0x3e7d7196
10007f5c:	3e8f986e 	.word	0x3e8f986e
10007f60:	3f75ff65 	.word	0x3f75ff65
10007f64:	3e8db868 	.word	0x3e8db868
10007f68:	3e9fe1f4 	.word	0x3e9fe1f4
10007f6c:	3f739e93 	.word	0x3f739e93
10007f70:	3e9d4bfd 	.word	0x3e9d4bfd
10007f74:	3eb054c6 	.word	0x3eb054c6
10007f78:	3f70f7ae 	.word	0x3f70f7ae
10007f7c:	3eacddb3 	.word	0x3eacddb3
10007f80:	3ebf89c5 	.word	0x3ebf89c5
10007f84:	3f6e4b60 	.word	0x3f6e4b60
10007f88:	3ebb1a0a 	.word	0x3ebb1a0a
10007f8c:	3ecfc426 	.word	0x3ecfc426
10007f90:	3f6b35ca 	.word	0x3f6b35ca
10007f94:	3eca1c63 	.word	0x3eca1c63
10007f98:	3ee054f2 	.word	0x3ee054f2
10007f9c:	3f67d166 	.word	0x3f67d166
10007fa0:	3ed93907 	.word	0x3ed93907
10007fa4:	3eeff0dd 	.word	0x3eeff0dd
10007fa8:	3f64664b 	.word	0x3f64664b
10007fac:	3ee74116 	.word	0x3ee74116
10007fb0:	3f002b31 	.word	0x3f002b31
10007fb4:	3f609488 	.word	0x3f609488
10007fb8:	3ef5c30f 	.word	0x3ef5c30f
10007fbc:	3f07e407 	.word	0x3f07e407
10007fc0:	3f5cc5a2 	.word	0x3f5cc5a2
10007fc4:	3f01992b 	.word	0x3f01992b
10007fc8:	3f101fc5 	.word	0x3f101fc5
10007fcc:	3f587d8f 	.word	0x3f587d8f
10007fd0:	3f08a165 	.word	0x3f08a165
10007fd4:	3f17f68a 	.word	0x3f17f68a
10007fd8:	3f5434b5 	.word	0x3f5434b5
10007fdc:	3f0f31ca 	.word	0x3f0f31ca
10007fe0:	3f1fffe2 	.word	0x3f1fffe2
10007fe4:	3f4f9b59 	.word	0x3f4f9b59
10007fe8:	3f15c8d7 	.word	0x3f15c8d7
10007fec:	3f280646 	.word	0x3f280646
10007ff0:	3f4acf6b 	.word	0x3f4acf6b
10007ff4:	3f1c37c4 	.word	0x3f1c37c4
10007ff8:	3f303041 	.word	0x3f303041
10007ffc:	3f45b9e0 	.word	0x3f45b9e0
10008000:	3f229ae4 	.word	0x3f229ae4
10008004:	3f381da7 	.word	0x3f381da7
10008008:	3f4098ca 	.word	0x3f4098ca
1000800c:	3f28a620 	.word	0x3f28a620
10008010:	3f3fc72f 	.word	0x3f3fc72f
10008014:	3f3b76ac 	.word	0x3f3b76ac
10008018:	3f2e564a 	.word	0x3f2e564a
1000801c:	3f4813db 	.word	0x3f4813db
10008020:	3f35b6cc 	.word	0x3f35b6cc
10008024:	3f34526b 	.word	0x3f34526b
10008028:	3f4fc779 	.word	0x3f4fc779
1000802c:	3f30352f 	.word	0x3f30352f
10008030:	3f39b4d0 	.word	0x3f39b4d0
10008034:	3f57dd52 	.word	0x3f57dd52
10008038:	3f2a4170 	.word	0x3f2a4170
1000803c:	3f3f2d91 	.word	0x3f3f2d91
10008040:	3f5fce26 	.word	0x3f5fce26
10008044:	3f243e9f 	.word	0x3f243e9f
10008048:	3f445dc3 	.word	0x3f445dc3
1000804c:	3f6825f1 	.word	0x3f6825f1
10008050:	3f1dc250 	.word	0x3f1dc250
10008054:	3f499d1c 	.word	0x3f499d1c
10008058:	3f703be1 	.word	0x3f703be1
1000805c:	3f175041 	.word	0x3f175041
10008060:	3f4e7ebf 	.word	0x3f4e7ebf
10008064:	3f781078 	.word	0x3f781078
10008068:	3f10ed71 	.word	0x3f10ed71
1000806c:	3f5306af 	.word	0x3f5306af
10008070:	3f7ff4d4 	.word	0x3f7ff4d4
10008074:	3f0a5aa7 	.word	0x3f0a5aa7
10008078:	3f57649b 	.word	0x3f57649b
1000807c:	10007ee8 	.word	0x10007ee8

10008080 <__wrap_malloc>:
10008080:	b538      	push	{r3, r4, r5, lr}
10008082:	4604      	mov	r4, r0
10008084:	4809      	ldr	r0, [pc, #36]	@ (100080ac <__wrap_malloc+0x2c>)
10008086:	f003 f91b 	bl	1000b2c0 <__mutex_enter_blocking_veneer>
1000808a:	4620      	mov	r0, r4
1000808c:	f002 fba4 	bl	1000a7d8 <malloc>
10008090:	4605      	mov	r5, r0
10008092:	4806      	ldr	r0, [pc, #24]	@ (100080ac <__wrap_malloc+0x2c>)
10008094:	f003 f90c 	bl	1000b2b0 <__mutex_exit_veneer>
10008098:	b12d      	cbz	r5, 100080a6 <__wrap_malloc+0x26>
1000809a:	4b05      	ldr	r3, [pc, #20]	@ (100080b0 <__wrap_malloc+0x30>)
1000809c:	442c      	add	r4, r5
1000809e:	429c      	cmp	r4, r3
100080a0:	d801      	bhi.n	100080a6 <__wrap_malloc+0x26>
100080a2:	4628      	mov	r0, r5
100080a4:	bd38      	pop	{r3, r4, r5, pc}
100080a6:	4803      	ldr	r0, [pc, #12]	@ (100080b4 <__wrap_malloc+0x34>)
100080a8:	f7fd fb76 	bl	10005798 <panic>
100080ac:	200019f0 	.word	0x200019f0
100080b0:	20080000 	.word	0x20080000
100080b4:	1000c054 	.word	0x1000c054

100080b8 <__wrap_calloc>:
100080b8:	b570      	push	{r4, r5, r6, lr}
100080ba:	4604      	mov	r4, r0
100080bc:	460e      	mov	r6, r1
100080be:	480b      	ldr	r0, [pc, #44]	@ (100080ec <__wrap_calloc+0x34>)
100080c0:	f003 f8fe 	bl	1000b2c0 <__mutex_enter_blocking_veneer>
100080c4:	4631      	mov	r1, r6
100080c6:	4620      	mov	r0, r4
100080c8:	f002 fb40 	bl	1000a74c <calloc>
100080cc:	4605      	mov	r5, r0
100080ce:	4807      	ldr	r0, [pc, #28]	@ (100080ec <__wrap_calloc+0x34>)
100080d0:	f003 f8ee 	bl	1000b2b0 <__mutex_exit_veneer>
100080d4:	b135      	cbz	r5, 100080e4 <__wrap_calloc+0x2c>
100080d6:	fb06 5404 	mla	r4, r6, r4, r5
100080da:	4b05      	ldr	r3, [pc, #20]	@ (100080f0 <__wrap_calloc+0x38>)
100080dc:	429c      	cmp	r4, r3
100080de:	d801      	bhi.n	100080e4 <__wrap_calloc+0x2c>
100080e0:	4628      	mov	r0, r5
100080e2:	bd70      	pop	{r4, r5, r6, pc}
100080e4:	4803      	ldr	r0, [pc, #12]	@ (100080f4 <__wrap_calloc+0x3c>)
100080e6:	f7fd fb57 	bl	10005798 <panic>
100080ea:	bf00      	nop
100080ec:	200019f0 	.word	0x200019f0
100080f0:	20080000 	.word	0x20080000
100080f4:	1000c054 	.word	0x1000c054

100080f8 <__wrap_free>:
100080f8:	b510      	push	{r4, lr}
100080fa:	4604      	mov	r4, r0
100080fc:	4805      	ldr	r0, [pc, #20]	@ (10008114 <__wrap_free+0x1c>)
100080fe:	f003 f8df 	bl	1000b2c0 <__mutex_enter_blocking_veneer>
10008102:	4620      	mov	r0, r4
10008104:	f002 fb70 	bl	1000a7e8 <free>
10008108:	e8bd 4010 	ldmia.w	sp!, {r4, lr}
1000810c:	4801      	ldr	r0, [pc, #4]	@ (10008114 <__wrap_free+0x1c>)
1000810e:	f003 b8cf 	b.w	1000b2b0 <__mutex_exit_veneer>
10008112:	bf00      	nop
10008114:	200019f0 	.word	0x200019f0

10008118 <_Znwj>:
10008118:	f7ff bfb2 	b.w	10008080 <__wrap_malloc>

1000811c <_Znaj>:
1000811c:	f7ff bfb0 	b.w	10008080 <__wrap_malloc>

10008120 <_ZdaPv>:
10008120:	f7ff bfea 	b.w	100080f8 <__wrap_free>

10008124 <_out_null>:
10008124:	4770      	bx	lr
10008126:	bf00      	nop

10008128 <_out_rev>:
10008128:	e92d 4ff0 	stmdb	sp!, {r4, r5, r6, r7, r8, r9, sl, fp, lr}
1000812c:	b083      	sub	sp, #12
1000812e:	460f      	mov	r7, r1
10008130:	4611      	mov	r1, r2
10008132:	e9dd b20e 	ldrd	fp, r2, [sp, #56]	@ 0x38
10008136:	0792      	lsls	r2, r2, #30
10008138:	4698      	mov	r8, r3
1000813a:	e9dd 930c 	ldrd	r9, r3, [sp, #48]	@ 0x30
1000813e:	4606      	mov	r6, r0
10008140:	d029      	beq.n	10008196 <_out_rev+0x6e>
10008142:	460d      	mov	r5, r1
10008144:	b19b      	cbz	r3, 1000816e <_out_rev+0x46>
10008146:	eb09 0403 	add.w	r4, r9, r3
1000814a:	eb05 0a04 	add.w	sl, r5, r4
1000814e:	9501      	str	r5, [sp, #4]
10008150:	460d      	mov	r5, r1
10008152:	930d      	str	r3, [sp, #52]	@ 0x34
10008154:	ebaa 0204 	sub.w	r2, sl, r4
10008158:	f814 0d01 	ldrb.w	r0, [r4, #-1]!
1000815c:	4643      	mov	r3, r8
1000815e:	4639      	mov	r1, r7
10008160:	47b0      	blx	r6
10008162:	45a1      	cmp	r9, r4
10008164:	d1f6      	bne.n	10008154 <_out_rev+0x2c>
10008166:	4629      	mov	r1, r5
10008168:	9b0d      	ldr	r3, [sp, #52]	@ 0x34
1000816a:	9d01      	ldr	r5, [sp, #4]
1000816c:	441d      	add	r5, r3
1000816e:	9b0f      	ldr	r3, [sp, #60]	@ 0x3c
10008170:	079b      	lsls	r3, r3, #30
10008172:	d50c      	bpl.n	1000818e <_out_rev+0x66>
10008174:	1a6c      	subs	r4, r5, r1
10008176:	45a3      	cmp	fp, r4
10008178:	d909      	bls.n	1000818e <_out_rev+0x66>
1000817a:	462a      	mov	r2, r5
1000817c:	4643      	mov	r3, r8
1000817e:	4639      	mov	r1, r7
10008180:	2020      	movs	r0, #32
10008182:	3401      	adds	r4, #1
10008184:	47b0      	blx	r6
10008186:	455c      	cmp	r4, fp
10008188:	f105 0501 	add.w	r5, r5, #1
1000818c:	d3f5      	bcc.n	1000817a <_out_rev+0x52>
1000818e:	4628      	mov	r0, r5
10008190:	b003      	add	sp, #12
10008192:	e8bd 8ff0 	ldmia.w	sp!, {r4, r5, r6, r7, r8, r9, sl, fp, pc}
10008196:	455b      	cmp	r3, fp
10008198:	d215      	bcs.n	100081c6 <_out_rev+0x9e>
1000819a:	468a      	mov	sl, r1
1000819c:	461c      	mov	r4, r3
1000819e:	4689      	mov	r9, r1
100081a0:	ebab 0503 	sub.w	r5, fp, r3
100081a4:	440d      	add	r5, r1
100081a6:	4652      	mov	r2, sl
100081a8:	4643      	mov	r3, r8
100081aa:	4639      	mov	r1, r7
100081ac:	2020      	movs	r0, #32
100081ae:	f10a 0a01 	add.w	sl, sl, #1
100081b2:	47b0      	blx	r6
100081b4:	45aa      	cmp	sl, r5
100081b6:	d1f6      	bne.n	100081a6 <_out_rev+0x7e>
100081b8:	4649      	mov	r1, r9
100081ba:	4623      	mov	r3, r4
100081bc:	f8dd 9030 	ldr.w	r9, [sp, #48]	@ 0x30
100081c0:	2c00      	cmp	r4, #0
100081c2:	d1c0      	bne.n	10008146 <_out_rev+0x1e>
100081c4:	e7e3      	b.n	1000818e <_out_rev+0x66>
100081c6:	460d      	mov	r5, r1
100081c8:	2b00      	cmp	r3, #0
100081ca:	d1bc      	bne.n	10008146 <_out_rev+0x1e>
100081cc:	e7df      	b.n	1000818e <_out_rev+0x66>
100081ce:	bf00      	nop

100081d0 <_ntoa_format>:
100081d0:	e92d 4ff0 	stmdb	sp!, {r4, r5, r6, r7, r8, r9, sl, fp, lr}
100081d4:	460f      	mov	r7, r1
100081d6:	990f      	ldr	r1, [sp, #60]	@ 0x3c
100081d8:	4606      	mov	r6, r0
100081da:	f89d 002c 	ldrb.w	r0, [sp, #44]	@ 0x2c
100081de:	078d      	lsls	r5, r1, #30
100081e0:	4690      	mov	r8, r2
100081e2:	e9dd a20c 	ldrd	sl, r2, [sp, #48]	@ 0x30
100081e6:	4699      	mov	r9, r3
100081e8:	4683      	mov	fp, r0
100081ea:	9c09      	ldr	r4, [sp, #36]	@ 0x24
100081ec:	f8dd c028 	ldr.w	ip, [sp, #40]	@ 0x28
100081f0:	9b0e      	ldr	r3, [sp, #56]	@ 0x38
100081f2:	d449      	bmi.n	10008288 <_ntoa_format+0xb8>
100081f4:	2b00      	cmp	r3, #0
100081f6:	d142      	bne.n	1000827e <_ntoa_format+0xae>
100081f8:	4594      	cmp	ip, r2
100081fa:	d245      	bcs.n	10008288 <_ntoa_format+0xb8>
100081fc:	f001 0501 	and.w	r5, r1, #1
10008200:	f104 3eff 	add.w	lr, r4, #4294967295	@ 0xffffffff
10008204:	2030      	movs	r0, #48	@ 0x30
10008206:	44e6      	add	lr, ip
10008208:	e005      	b.n	10008216 <_ntoa_format+0x46>
1000820a:	f10c 0c01 	add.w	ip, ip, #1
1000820e:	4562      	cmp	r2, ip
10008210:	f80e 0f01 	strb.w	r0, [lr, #1]!
10008214:	d902      	bls.n	1000821c <_ntoa_format+0x4c>
10008216:	f1bc 0f20 	cmp.w	ip, #32
1000821a:	d1f6      	bne.n	1000820a <_ntoa_format+0x3a>
1000821c:	2d00      	cmp	r5, #0
1000821e:	f000 8087 	beq.w	10008330 <_ntoa_format+0x160>
10008222:	4563      	cmp	r3, ip
10008224:	d930      	bls.n	10008288 <_ntoa_format+0xb8>
10008226:	1e60      	subs	r0, r4, #1
10008228:	f04f 0e30 	mov.w	lr, #48	@ 0x30
1000822c:	4460      	add	r0, ip
1000822e:	e005      	b.n	1000823c <_ntoa_format+0x6c>
10008230:	f10c 0c01 	add.w	ip, ip, #1
10008234:	459c      	cmp	ip, r3
10008236:	f800 ef01 	strb.w	lr, [r0, #1]!
1000823a:	d025      	beq.n	10008288 <_ntoa_format+0xb8>
1000823c:	f1bc 0f20 	cmp.w	ip, #32
10008240:	d1f6      	bne.n	10008230 <_ntoa_format+0x60>
10008242:	06cd      	lsls	r5, r1, #27
10008244:	d50e      	bpl.n	10008264 <_ntoa_format+0x94>
10008246:	0548      	lsls	r0, r1, #21
10008248:	d451      	bmi.n	100082ee <_ntoa_format+0x11e>
1000824a:	4562      	cmp	r2, ip
1000824c:	d064      	beq.n	10008318 <_ntoa_format+0x148>
1000824e:	4563      	cmp	r3, ip
10008250:	d062      	beq.n	10008318 <_ntoa_format+0x148>
10008252:	f1ba 0f10 	cmp.w	sl, #16
10008256:	d04d      	beq.n	100082f4 <_ntoa_format+0x124>
10008258:	f1ba 0f02 	cmp.w	sl, #2
1000825c:	d055      	beq.n	1000830a <_ntoa_format+0x13a>
1000825e:	f1bc 0f20 	cmp.w	ip, #32
10008262:	d12d      	bne.n	100082c0 <_ntoa_format+0xf0>
10008264:	2220      	movs	r2, #32
10008266:	e9cd 310b 	strd	r3, r1, [sp, #44]	@ 0x2c
1000826a:	920a      	str	r2, [sp, #40]	@ 0x28
1000826c:	464b      	mov	r3, r9
1000826e:	4642      	mov	r2, r8
10008270:	4639      	mov	r1, r7
10008272:	4630      	mov	r0, r6
10008274:	9409      	str	r4, [sp, #36]	@ 0x24
10008276:	e8bd 4ff0 	ldmia.w	sp!, {r4, r5, r6, r7, r8, r9, sl, fp, lr}
1000827a:	f7ff bf55 	b.w	10008128 <_out_rev>
1000827e:	f011 0501 	ands.w	r5, r1, #1
10008282:	d12e      	bne.n	100082e2 <_ntoa_format+0x112>
10008284:	4594      	cmp	ip, r2
10008286:	d3bb      	bcc.n	10008200 <_ntoa_format+0x30>
10008288:	06cd      	lsls	r5, r1, #27
1000828a:	d51e      	bpl.n	100082ca <_ntoa_format+0xfa>
1000828c:	0548      	lsls	r0, r1, #21
1000828e:	d4e0      	bmi.n	10008252 <_ntoa_format+0x82>
10008290:	f1bc 0f00 	cmp.w	ip, #0
10008294:	d1d9      	bne.n	1000824a <_ntoa_format+0x7a>
10008296:	f1ba 0f10 	cmp.w	sl, #16
1000829a:	d05f      	beq.n	1000835c <_ntoa_format+0x18c>
1000829c:	f1ba 0f02 	cmp.w	sl, #2
100082a0:	d074      	beq.n	1000838c <_ntoa_format+0x1bc>
100082a2:	2230      	movs	r2, #48	@ 0x30
100082a4:	f04f 0c01 	mov.w	ip, #1
100082a8:	7022      	strb	r2, [r4, #0]
100082aa:	f1bb 0f00 	cmp.w	fp, #0
100082ae:	d112      	bne.n	100082d6 <_ntoa_format+0x106>
100082b0:	0748      	lsls	r0, r1, #29
100082b2:	d542      	bpl.n	1000833a <_ntoa_format+0x16a>
100082b4:	222b      	movs	r2, #43	@ 0x2b
100082b6:	f804 200c 	strb.w	r2, [r4, ip]
100082ba:	f10c 0201 	add.w	r2, ip, #1
100082be:	e7d2      	b.n	10008266 <_ntoa_format+0x96>
100082c0:	4662      	mov	r2, ip
100082c2:	f10c 0c01 	add.w	ip, ip, #1
100082c6:	2030      	movs	r0, #48	@ 0x30
100082c8:	54a0      	strb	r0, [r4, r2]
100082ca:	f1bc 0f20 	cmp.w	ip, #32
100082ce:	d0c9      	beq.n	10008264 <_ntoa_format+0x94>
100082d0:	f1bb 0f00 	cmp.w	fp, #0
100082d4:	d0ec      	beq.n	100082b0 <_ntoa_format+0xe0>
100082d6:	222d      	movs	r2, #45	@ 0x2d
100082d8:	f804 200c 	strb.w	r2, [r4, ip]
100082dc:	f10c 0201 	add.w	r2, ip, #1
100082e0:	e7c1      	b.n	10008266 <_ntoa_format+0x96>
100082e2:	b398      	cbz	r0, 1000834c <_ntoa_format+0x17c>
100082e4:	4594      	cmp	ip, r2
100082e6:	f103 33ff 	add.w	r3, r3, #4294967295	@ 0xffffffff
100082ea:	d389      	bcc.n	10008200 <_ntoa_format+0x30>
100082ec:	e799      	b.n	10008222 <_ntoa_format+0x52>
100082ee:	f1ba 0f10 	cmp.w	sl, #16
100082f2:	d1b7      	bne.n	10008264 <_ntoa_format+0x94>
100082f4:	068d      	lsls	r5, r1, #26
100082f6:	d53d      	bpl.n	10008374 <_ntoa_format+0x1a4>
100082f8:	f1bc 0f20 	cmp.w	ip, #32
100082fc:	d0b2      	beq.n	10008264 <_ntoa_format+0x94>
100082fe:	2258      	movs	r2, #88	@ 0x58
10008300:	f804 200c 	strb.w	r2, [r4, ip]
10008304:	f10c 0c01 	add.w	ip, ip, #1
10008308:	e7a9      	b.n	1000825e <_ntoa_format+0x8e>
1000830a:	f1bc 0f20 	cmp.w	ip, #32
1000830e:	d0a9      	beq.n	10008264 <_ntoa_format+0x94>
10008310:	4662      	mov	r2, ip
10008312:	f10c 0c01 	add.w	ip, ip, #1
10008316:	e008      	b.n	1000832a <_ntoa_format+0x15a>
10008318:	f1bc 0201 	subs.w	r2, ip, #1
1000831c:	d0bb      	beq.n	10008296 <_ntoa_format+0xc6>
1000831e:	f1ba 0f10 	cmp.w	sl, #16
10008322:	d035      	beq.n	10008390 <_ntoa_format+0x1c0>
10008324:	f1ba 0f02 	cmp.w	sl, #2
10008328:	d1cd      	bne.n	100082c6 <_ntoa_format+0xf6>
1000832a:	2062      	movs	r0, #98	@ 0x62
1000832c:	54a0      	strb	r0, [r4, r2]
1000832e:	e796      	b.n	1000825e <_ntoa_format+0x8e>
10008330:	06cd      	lsls	r5, r1, #27
10008332:	d5ca      	bpl.n	100082ca <_ntoa_format+0xfa>
10008334:	0548      	lsls	r0, r1, #21
10008336:	d588      	bpl.n	1000824a <_ntoa_format+0x7a>
10008338:	e78b      	b.n	10008252 <_ntoa_format+0x82>
1000833a:	070a      	lsls	r2, r1, #28
1000833c:	bf49      	itett	mi
1000833e:	2220      	movmi	r2, #32
10008340:	4662      	movpl	r2, ip
10008342:	f804 200c 	strbmi.w	r2, [r4, ip]
10008346:	f10c 0201 	addmi.w	r2, ip, #1
1000834a:	e78c      	b.n	10008266 <_ntoa_format+0x96>
1000834c:	f011 0f0c 	tst.w	r1, #12
10008350:	d000      	beq.n	10008354 <_ntoa_format+0x184>
10008352:	3b01      	subs	r3, #1
10008354:	4594      	cmp	ip, r2
10008356:	f4ff af53 	bcc.w	10008200 <_ntoa_format+0x30>
1000835a:	e762      	b.n	10008222 <_ntoa_format+0x52>
1000835c:	068a      	lsls	r2, r1, #26
1000835e:	d413      	bmi.n	10008388 <_ntoa_format+0x1b8>
10008360:	2278      	movs	r2, #120	@ 0x78
10008362:	7022      	strb	r2, [r4, #0]
10008364:	2230      	movs	r2, #48	@ 0x30
10008366:	f04f 0c02 	mov.w	ip, #2
1000836a:	7062      	strb	r2, [r4, #1]
1000836c:	f1bb 0f00 	cmp.w	fp, #0
10008370:	d09e      	beq.n	100082b0 <_ntoa_format+0xe0>
10008372:	e7b0      	b.n	100082d6 <_ntoa_format+0x106>
10008374:	f1bc 0f20 	cmp.w	ip, #32
10008378:	f43f af74 	beq.w	10008264 <_ntoa_format+0x94>
1000837c:	2278      	movs	r2, #120	@ 0x78
1000837e:	f804 200c 	strb.w	r2, [r4, ip]
10008382:	f10c 0c01 	add.w	ip, ip, #1
10008386:	e76a      	b.n	1000825e <_ntoa_format+0x8e>
10008388:	2258      	movs	r2, #88	@ 0x58
1000838a:	e7ea      	b.n	10008362 <_ntoa_format+0x192>
1000838c:	2262      	movs	r2, #98	@ 0x62
1000838e:	e7e8      	b.n	10008362 <_ntoa_format+0x192>
10008390:	068d      	lsls	r5, r1, #26
10008392:	f1ac 0002 	sub.w	r0, ip, #2
10008396:	d504      	bpl.n	100083a2 <_ntoa_format+0x1d2>
10008398:	f04f 0e58 	mov.w	lr, #88	@ 0x58
1000839c:	f804 e000 	strb.w	lr, [r4, r0]
100083a0:	e791      	b.n	100082c6 <_ntoa_format+0xf6>
100083a2:	f04f 0e78 	mov.w	lr, #120	@ 0x78
100083a6:	f804 e000 	strb.w	lr, [r4, r0]
100083aa:	e78c      	b.n	100082c6 <_ntoa_format+0xf6>

100083ac <_out_char>:
100083ac:	b900      	cbnz	r0, 100083b0 <_out_char+0x4>
100083ae:	4770      	bx	lr
100083b0:	f001 bb60 	b.w	10009a74 <__wrap_putchar>

100083b4 <_out_fct>:
100083b4:	b110      	cbz	r0, 100083bc <_out_fct+0x8>
100083b6:	e9d1 3100 	ldrd	r3, r1, [r1]
100083ba:	4718      	bx	r3
100083bc:	4770      	bx	lr
100083be:	bf00      	nop

100083c0 <_ftoa>:
100083c0:	e92d 4ff0 	stmdb	sp!, {r4, r5, r6, r7, r8, r9, sl, fp, lr}
100083c4:	b097      	sub	sp, #92	@ 0x5c
100083c6:	ed9d 7b20 	vldr	d7, [sp, #128]	@ 0x80
100083ca:	e9dd 5b22 	ldrd	r5, fp, [sp, #136]	@ 0x88
100083ce:	4680      	mov	r8, r0
100083d0:	4689      	mov	r9, r1
100083d2:	ec51 0b17 	vmov	r0, r1, d7
100083d6:	469a      	mov	sl, r3
100083d8:	9b24      	ldr	r3, [sp, #144]	@ 0x90
100083da:	920c      	str	r2, [sp, #48]	@ 0x30
100083dc:	9307      	str	r3, [sp, #28]
100083de:	4602      	mov	r2, r0
100083e0:	460b      	mov	r3, r1
100083e2:	ed8d 7b04 	vstr	d7, [sp, #16]
100083e6:	f7fe fdad 	bl	10006f44 <__wrap___aeabi_dcmpun>
100083ea:	2800      	cmp	r0, #0
100083ec:	f040 81e3 	bne.w	100087b6 <_ftoa+0x3f6>
100083f0:	e9dd 0104 	ldrd	r0, r1, [sp, #16]
100083f4:	f04f 32ff 	mov.w	r2, #4294967295	@ 0xffffffff
100083f8:	f46f 1380 	mvn.w	r3, #1048576	@ 0x100000
100083fc:	f7fe fdb4 	bl	10006f68 <__wrap___aeabi_dcmplt>
10008400:	2800      	cmp	r0, #0
10008402:	f040 80cb 	bne.w	1000859c <_ftoa+0x1dc>
10008406:	e9dd 0104 	ldrd	r0, r1, [sp, #16]
1000840a:	f04f 32ff 	mov.w	r2, #4294967295	@ 0xffffffff
1000840e:	4bb2      	ldr	r3, [pc, #712]	@ (100086d8 <_ftoa+0x318>)
10008410:	f7fe fde6 	bl	10006fe0 <__wrap___aeabi_dcmpgt>
10008414:	2800      	cmp	r0, #0
10008416:	f040 809f 	bne.w	10008558 <_ftoa+0x198>
1000841a:	e9dd 6704 	ldrd	r6, r7, [sp, #16]
1000841e:	a3aa      	add	r3, pc, #680	@ (adr r3, 100086c8 <_ftoa+0x308>)
10008420:	e9d3 2300 	ldrd	r2, r3, [r3]
10008424:	4630      	mov	r0, r6
10008426:	4639      	mov	r1, r7
10008428:	f7fe fdda 	bl	10006fe0 <__wrap___aeabi_dcmpgt>
1000842c:	2800      	cmp	r0, #0
1000842e:	f040 8082 	bne.w	10008536 <_ftoa+0x176>
10008432:	a3a7      	add	r3, pc, #668	@ (adr r3, 100086d0 <_ftoa+0x310>)
10008434:	e9d3 2300 	ldrd	r2, r3, [r3]
10008438:	4630      	mov	r0, r6
1000843a:	4639      	mov	r1, r7
1000843c:	f7fe fd94 	bl	10006f68 <__wrap___aeabi_dcmplt>
10008440:	2800      	cmp	r0, #0
10008442:	d178      	bne.n	10008536 <_ftoa+0x176>
10008444:	4630      	mov	r0, r6
10008446:	4639      	mov	r1, r7
10008448:	2200      	movs	r2, #0
1000844a:	2300      	movs	r3, #0
1000844c:	f7fe fd8c 	bl	10006f68 <__wrap___aeabi_dcmplt>
10008450:	2800      	cmp	r0, #0
10008452:	f040 8098 	bne.w	10008586 <_ftoa+0x1c6>
10008456:	900d      	str	r0, [sp, #52]	@ 0x34
10008458:	9b07      	ldr	r3, [sp, #28]
1000845a:	2130      	movs	r1, #48	@ 0x30
1000845c:	f413 6f80 	tst.w	r3, #1024	@ 0x400
10008460:	bf08      	it	eq
10008462:	2506      	moveq	r5, #6
10008464:	aa0e      	add	r2, sp, #56	@ 0x38
10008466:	462b      	mov	r3, r5
10008468:	f1a5 0620 	sub.w	r6, r5, #32
1000846c:	e005      	b.n	1000847a <_ftoa+0xba>
1000846e:	3b01      	subs	r3, #1
10008470:	42b3      	cmp	r3, r6
10008472:	f802 1b01 	strb.w	r1, [r2], #1
10008476:	f000 8165 	beq.w	10008744 <_ftoa+0x384>
1000847a:	2b09      	cmp	r3, #9
1000847c:	d8f7      	bhi.n	1000846e <_ftoa+0xae>
1000847e:	461e      	mov	r6, r3
10008480:	1aed      	subs	r5, r5, r3
10008482:	e9dd 0104 	ldrd	r0, r1, [sp, #16]
10008486:	f7fe fd39 	bl	10006efc <__wrap___aeabi_d2iz>
1000848a:	4b94      	ldr	r3, [pc, #592]	@ (100086dc <_ftoa+0x31c>)
1000848c:	4604      	mov	r4, r0
1000848e:	eb03 03c6 	add.w	r3, r3, r6, lsl #3
10008492:	ed93 7b00 	vldr	d7, [r3]
10008496:	ed8d 7b08 	vstr	d7, [sp, #32]
1000849a:	f7fe fd0b 	bl	10006eb4 <__wrap___aeabi_i2d>
1000849e:	4602      	mov	r2, r0
100084a0:	460b      	mov	r3, r1
100084a2:	e9dd 0104 	ldrd	r0, r1, [sp, #16]
100084a6:	f7fe fc6f 	bl	10006d88 <__wrap___aeabi_dsub>
100084aa:	e9dd 2308 	ldrd	r2, r3, [sp, #32]
100084ae:	f7fe fc7f 	bl	10006db0 <__wrap___aeabi_dmul>
100084b2:	e9cd 010a 	strd	r0, r1, [sp, #40]	@ 0x28
100084b6:	f7fe fd33 	bl	10006f20 <__wrap___aeabi_d2uiz>
100084ba:	4607      	mov	r7, r0
100084bc:	f7fe fd0c 	bl	10006ed8 <__wrap___aeabi_ui2d>
100084c0:	4602      	mov	r2, r0
100084c2:	460b      	mov	r3, r1
100084c4:	e9dd 010a 	ldrd	r0, r1, [sp, #40]	@ 0x28
100084c8:	f7fe fc5e 	bl	10006d88 <__wrap___aeabi_dsub>
100084cc:	2200      	movs	r2, #0
100084ce:	4b84      	ldr	r3, [pc, #528]	@ (100086e0 <_ftoa+0x320>)
100084d0:	e9cd 010a 	strd	r0, r1, [sp, #40]	@ 0x28
100084d4:	f7fe fd84 	bl	10006fe0 <__wrap___aeabi_dcmpgt>
100084d8:	2800      	cmp	r0, #0
100084da:	f000 8088 	beq.w	100085ee <_ftoa+0x22e>
100084de:	3701      	adds	r7, #1
100084e0:	4638      	mov	r0, r7
100084e2:	f7fe fcf9 	bl	10006ed8 <__wrap___aeabi_ui2d>
100084e6:	4602      	mov	r2, r0
100084e8:	460b      	mov	r3, r1
100084ea:	e9dd 0108 	ldrd	r0, r1, [sp, #32]
100084ee:	f7fe fd4f 	bl	10006f90 <__wrap___aeabi_dcmple>
100084f2:	b108      	cbz	r0, 100084f8 <_ftoa+0x138>
100084f4:	2700      	movs	r7, #0
100084f6:	3401      	adds	r4, #1
100084f8:	2e00      	cmp	r6, #0
100084fa:	f000 8088 	beq.w	1000860e <_ftoa+0x24e>
100084fe:	f10d 0337 	add.w	r3, sp, #55	@ 0x37
10008502:	f8df c1f0 	ldr.w	ip, [pc, #496]	@ 100086f4 <_ftoa+0x334>
10008506:	1958      	adds	r0, r3, r5
10008508:	e00d      	b.n	10008526 <_ftoa+0x166>
1000850a:	fbac 2107 	umull	r2, r1, ip, r7
1000850e:	08c9      	lsrs	r1, r1, #3
10008510:	eb01 0281 	add.w	r2, r1, r1, lsl #2
10008514:	eba7 0242 	sub.w	r2, r7, r2, lsl #1
10008518:	3230      	adds	r2, #48	@ 0x30
1000851a:	2f09      	cmp	r7, #9
1000851c:	f800 2f01 	strb.w	r2, [r0, #1]!
10008520:	f240 80fb 	bls.w	1000871a <_ftoa+0x35a>
10008524:	460f      	mov	r7, r1
10008526:	2d20      	cmp	r5, #32
10008528:	f106 36ff 	add.w	r6, r6, #4294967295	@ 0xffffffff
1000852c:	f105 0501 	add.w	r5, r5, #1
10008530:	d1eb      	bne.n	1000850a <_ftoa+0x14a>
10008532:	2520      	movs	r5, #32
10008534:	e086      	b.n	10008644 <_ftoa+0x284>
10008536:	9b07      	ldr	r3, [sp, #28]
10008538:	ed9d 7b04 	vldr	d7, [sp, #16]
1000853c:	e9cd b323 	strd	fp, r3, [sp, #140]	@ 0x8c
10008540:	4649      	mov	r1, r9
10008542:	4653      	mov	r3, sl
10008544:	4640      	mov	r0, r8
10008546:	9a0c      	ldr	r2, [sp, #48]	@ 0x30
10008548:	ed8d 7b20 	vstr	d7, [sp, #128]	@ 0x80
1000854c:	9522      	str	r5, [sp, #136]	@ 0x88
1000854e:	b017      	add	sp, #92	@ 0x5c
10008550:	e8bd 4ff0 	ldmia.w	sp!, {r4, r5, r6, r7, r8, r9, sl, fp, lr}
10008554:	f000 b980 	b.w	10008858 <_etoa>
10008558:	9b07      	ldr	r3, [sp, #28]
1000855a:	4649      	mov	r1, r9
1000855c:	0758      	lsls	r0, r3, #29
1000855e:	bf4c      	ite	mi
10008560:	2304      	movmi	r3, #4
10008562:	2303      	movpl	r3, #3
10008564:	4640      	mov	r0, r8
10008566:	9321      	str	r3, [sp, #132]	@ 0x84
10008568:	4653      	mov	r3, sl
1000856a:	9a07      	ldr	r2, [sp, #28]
1000856c:	bf48      	it	mi
1000856e:	4c5d      	ldrmi	r4, [pc, #372]	@ (100086e4 <_ftoa+0x324>)
10008570:	e9cd b222 	strd	fp, r2, [sp, #136]	@ 0x88
10008574:	bf58      	it	pl
10008576:	4c5c      	ldrpl	r4, [pc, #368]	@ (100086e8 <_ftoa+0x328>)
10008578:	9a0c      	ldr	r2, [sp, #48]	@ 0x30
1000857a:	9420      	str	r4, [sp, #128]	@ 0x80
1000857c:	b017      	add	sp, #92	@ 0x5c
1000857e:	e8bd 4ff0 	ldmia.w	sp!, {r4, r5, r6, r7, r8, r9, sl, fp, lr}
10008582:	f7ff bdd1 	b.w	10008128 <_out_rev>
10008586:	463b      	mov	r3, r7
10008588:	4632      	mov	r2, r6
1000858a:	2000      	movs	r0, #0
1000858c:	2100      	movs	r1, #0
1000858e:	f7fe fbfb 	bl	10006d88 <__wrap___aeabi_dsub>
10008592:	2301      	movs	r3, #1
10008594:	e9cd 0104 	strd	r0, r1, [sp, #16]
10008598:	930d      	str	r3, [sp, #52]	@ 0x34
1000859a:	e75d      	b.n	10008458 <_ftoa+0x98>
1000859c:	9b07      	ldr	r3, [sp, #28]
1000859e:	f003 0202 	and.w	r2, r3, #2
100085a2:	079c      	lsls	r4, r3, #30
100085a4:	9204      	str	r2, [sp, #16]
100085a6:	f000 80f4 	beq.w	10008792 <_ftoa+0x3d2>
100085aa:	9f0c      	ldr	r7, [sp, #48]	@ 0x30
100085ac:	463d      	mov	r5, r7
100085ae:	4e4f      	ldr	r6, [pc, #316]	@ (100086ec <_ftoa+0x32c>)
100085b0:	1d34      	adds	r4, r6, #4
100085b2:	f814 0d01 	ldrb.w	r0, [r4, #-1]!
100085b6:	462a      	mov	r2, r5
100085b8:	4653      	mov	r3, sl
100085ba:	4649      	mov	r1, r9
100085bc:	47c0      	blx	r8
100085be:	42a6      	cmp	r6, r4
100085c0:	f105 0501 	add.w	r5, r5, #1
100085c4:	d1f5      	bne.n	100085b2 <_ftoa+0x1f2>
100085c6:	9b04      	ldr	r3, [sp, #16]
100085c8:	1d3c      	adds	r4, r7, #4
100085ca:	b163      	cbz	r3, 100085e6 <_ftoa+0x226>
100085cc:	9d0c      	ldr	r5, [sp, #48]	@ 0x30
100085ce:	1b63      	subs	r3, r4, r5
100085d0:	459b      	cmp	fp, r3
100085d2:	d908      	bls.n	100085e6 <_ftoa+0x226>
100085d4:	4622      	mov	r2, r4
100085d6:	4653      	mov	r3, sl
100085d8:	4649      	mov	r1, r9
100085da:	2020      	movs	r0, #32
100085dc:	3401      	adds	r4, #1
100085de:	47c0      	blx	r8
100085e0:	1b63      	subs	r3, r4, r5
100085e2:	459b      	cmp	fp, r3
100085e4:	d8f6      	bhi.n	100085d4 <_ftoa+0x214>
100085e6:	4620      	mov	r0, r4
100085e8:	b017      	add	sp, #92	@ 0x5c
100085ea:	e8bd 8ff0 	ldmia.w	sp!, {r4, r5, r6, r7, r8, r9, sl, fp, pc}
100085ee:	2200      	movs	r2, #0
100085f0:	e9dd 010a 	ldrd	r0, r1, [sp, #40]	@ 0x28
100085f4:	4b3a      	ldr	r3, [pc, #232]	@ (100086e0 <_ftoa+0x320>)
100085f6:	f7fe fcb7 	bl	10006f68 <__wrap___aeabi_dcmplt>
100085fa:	2800      	cmp	r0, #0
100085fc:	f47f af7c 	bne.w	100084f8 <_ftoa+0x138>
10008600:	2f00      	cmp	r7, #0
10008602:	f040 80c2 	bne.w	1000878a <_ftoa+0x3ca>
10008606:	3701      	adds	r7, #1
10008608:	2e00      	cmp	r6, #0
1000860a:	f47f af78 	bne.w	100084fe <_ftoa+0x13e>
1000860e:	4620      	mov	r0, r4
10008610:	f7fe fc50 	bl	10006eb4 <__wrap___aeabi_i2d>
10008614:	4602      	mov	r2, r0
10008616:	460b      	mov	r3, r1
10008618:	e9dd 0104 	ldrd	r0, r1, [sp, #16]
1000861c:	f7fe fbb4 	bl	10006d88 <__wrap___aeabi_dsub>
10008620:	2200      	movs	r2, #0
10008622:	4b2f      	ldr	r3, [pc, #188]	@ (100086e0 <_ftoa+0x320>)
10008624:	4606      	mov	r6, r0
10008626:	460f      	mov	r7, r1
10008628:	f7fe fc9e 	bl	10006f68 <__wrap___aeabi_dcmplt>
1000862c:	b940      	cbnz	r0, 10008640 <_ftoa+0x280>
1000862e:	4630      	mov	r0, r6
10008630:	4639      	mov	r1, r7
10008632:	2200      	movs	r2, #0
10008634:	4b2a      	ldr	r3, [pc, #168]	@ (100086e0 <_ftoa+0x320>)
10008636:	f7fe fcd3 	bl	10006fe0 <__wrap___aeabi_dcmpgt>
1000863a:	2800      	cmp	r0, #0
1000863c:	f000 80a1 	beq.w	10008782 <_ftoa+0x3c2>
10008640:	f10d 0337 	add.w	r3, sp, #55	@ 0x37
10008644:	482a      	ldr	r0, [pc, #168]	@ (100086f0 <_ftoa+0x330>)
10008646:	1959      	adds	r1, r3, r5
10008648:	e00e      	b.n	10008668 <_ftoa+0x2a8>
1000864a:	fb80 7604 	smull	r7, r6, r0, r4
1000864e:	ebc2 02a6 	rsb	r2, r2, r6, asr #2
10008652:	eb02 0682 	add.w	r6, r2, r2, lsl #2
10008656:	eba4 0646 	sub.w	r6, r4, r6, lsl #1
1000865a:	3630      	adds	r6, #48	@ 0x30
1000865c:	4614      	mov	r4, r2
1000865e:	3501      	adds	r5, #1
10008660:	f801 6f01 	strb.w	r6, [r1, #1]!
10008664:	2a00      	cmp	r2, #0
10008666:	d047      	beq.n	100086f8 <_ftoa+0x338>
10008668:	2d20      	cmp	r5, #32
1000866a:	ea4f 72e4 	mov.w	r2, r4, asr #31
1000866e:	d1ec      	bne.n	1000864a <_ftoa+0x28a>
10008670:	9a07      	ldr	r2, [sp, #28]
10008672:	f002 0203 	and.w	r2, r2, #3
10008676:	2a01      	cmp	r2, #1
10008678:	d114      	bne.n	100086a4 <_ftoa+0x2e4>
1000867a:	f1bb 0f00 	cmp.w	fp, #0
1000867e:	d011      	beq.n	100086a4 <_ftoa+0x2e4>
10008680:	9a0d      	ldr	r2, [sp, #52]	@ 0x34
10008682:	2a00      	cmp	r2, #0
10008684:	d060      	beq.n	10008748 <_ftoa+0x388>
10008686:	f10b 3bff 	add.w	fp, fp, #4294967295	@ 0xffffffff
1000868a:	f1bb 0f20 	cmp.w	fp, #32
1000868e:	d909      	bls.n	100086a4 <_ftoa+0x2e4>
10008690:	2230      	movs	r2, #48	@ 0x30
10008692:	442b      	add	r3, r5
10008694:	e004      	b.n	100086a0 <_ftoa+0x2e0>
10008696:	3501      	adds	r5, #1
10008698:	455d      	cmp	r5, fp
1000869a:	f803 2f01 	strb.w	r2, [r3, #1]!
1000869e:	d231      	bcs.n	10008704 <_ftoa+0x344>
100086a0:	2d20      	cmp	r5, #32
100086a2:	d1f8      	bne.n	10008696 <_ftoa+0x2d6>
100086a4:	9b07      	ldr	r3, [sp, #28]
100086a6:	ac0e      	add	r4, sp, #56	@ 0x38
100086a8:	e9cd b302 	strd	fp, r3, [sp, #8]
100086ac:	9400      	str	r4, [sp, #0]
100086ae:	4653      	mov	r3, sl
100086b0:	4649      	mov	r1, r9
100086b2:	4640      	mov	r0, r8
100086b4:	9a0c      	ldr	r2, [sp, #48]	@ 0x30
100086b6:	9501      	str	r5, [sp, #4]
100086b8:	f7ff fd36 	bl	10008128 <_out_rev>
100086bc:	4604      	mov	r4, r0
100086be:	4620      	mov	r0, r4
100086c0:	b017      	add	sp, #92	@ 0x5c
100086c2:	e8bd 8ff0 	ldmia.w	sp!, {r4, r5, r6, r7, r8, r9, sl, fp, pc}
100086c6:	bf00      	nop
100086c8:	00000000 	.word	0x00000000
100086cc:	41cdcd65 	.word	0x41cdcd65
100086d0:	00000000 	.word	0x00000000
100086d4:	c1cdcd65 	.word	0xc1cdcd65
100086d8:	7fefffff 	.word	0x7fefffff
100086dc:	100182d8 	.word	0x100182d8
100086e0:	3fe00000 	.word	0x3fe00000
100086e4:	1000c0ac 	.word	0x1000c0ac
100086e8:	1000c0b4 	.word	0x1000c0b4
100086ec:	1000c0bc 	.word	0x1000c0bc
100086f0:	66666667 	.word	0x66666667
100086f4:	cccccccd 	.word	0xcccccccd
100086f8:	9a07      	ldr	r2, [sp, #28]
100086fa:	f002 0203 	and.w	r2, r2, #3
100086fe:	2a01      	cmp	r2, #1
10008700:	f000 8096 	beq.w	10008830 <_ftoa+0x470>
10008704:	2d20      	cmp	r5, #32
10008706:	d0cd      	beq.n	100086a4 <_ftoa+0x2e4>
10008708:	9b0d      	ldr	r3, [sp, #52]	@ 0x34
1000870a:	b33b      	cbz	r3, 1000875c <_ftoa+0x39c>
1000870c:	222d      	movs	r2, #45	@ 0x2d
1000870e:	eb0d 0305 	add.w	r3, sp, r5
10008712:	f883 2038 	strb.w	r2, [r3, #56]	@ 0x38
10008716:	3501      	adds	r5, #1
10008718:	e7c4      	b.n	100086a4 <_ftoa+0x2e4>
1000871a:	2d20      	cmp	r5, #32
1000871c:	f43f af09 	beq.w	10008532 <_ftoa+0x172>
10008720:	2130      	movs	r1, #48	@ 0x30
10008722:	442e      	add	r6, r5
10008724:	195a      	adds	r2, r3, r5
10008726:	e005      	b.n	10008734 <_ftoa+0x374>
10008728:	3501      	adds	r5, #1
1000872a:	2d20      	cmp	r5, #32
1000872c:	f802 1f01 	strb.w	r1, [r2, #1]!
10008730:	f43f aeff 	beq.w	10008532 <_ftoa+0x172>
10008734:	42ae      	cmp	r6, r5
10008736:	d1f7      	bne.n	10008728 <_ftoa+0x368>
10008738:	222e      	movs	r2, #46	@ 0x2e
1000873a:	446e      	add	r6, sp
1000873c:	3501      	adds	r5, #1
1000873e:	f886 2038 	strb.w	r2, [r6, #56]	@ 0x38
10008742:	e77f      	b.n	10008644 <_ftoa+0x284>
10008744:	2520      	movs	r5, #32
10008746:	e69c      	b.n	10008482 <_ftoa+0xc2>
10008748:	9a07      	ldr	r2, [sp, #28]
1000874a:	f012 0f0c 	tst.w	r2, #12
1000874e:	d05a      	beq.n	10008806 <_ftoa+0x446>
10008750:	f10b 3bff 	add.w	fp, fp, #4294967295	@ 0xffffffff
10008754:	45ab      	cmp	fp, r5
10008756:	d89b      	bhi.n	10008690 <_ftoa+0x2d0>
10008758:	2d20      	cmp	r5, #32
1000875a:	d0a3      	beq.n	100086a4 <_ftoa+0x2e4>
1000875c:	9b07      	ldr	r3, [sp, #28]
1000875e:	075a      	lsls	r2, r3, #29
10008760:	d506      	bpl.n	10008770 <_ftoa+0x3b0>
10008762:	222b      	movs	r2, #43	@ 0x2b
10008764:	eb0d 0305 	add.w	r3, sp, r5
10008768:	f883 2038 	strb.w	r2, [r3, #56]	@ 0x38
1000876c:	3501      	adds	r5, #1
1000876e:	e799      	b.n	100086a4 <_ftoa+0x2e4>
10008770:	071b      	lsls	r3, r3, #28
10008772:	d597      	bpl.n	100086a4 <_ftoa+0x2e4>
10008774:	2220      	movs	r2, #32
10008776:	eb0d 0305 	add.w	r3, sp, r5
1000877a:	f883 2038 	strb.w	r2, [r3, #56]	@ 0x38
1000877e:	3501      	adds	r5, #1
10008780:	e790      	b.n	100086a4 <_ftoa+0x2e4>
10008782:	3401      	adds	r4, #1
10008784:	f024 0401 	bic.w	r4, r4, #1
10008788:	e75a      	b.n	10008640 <_ftoa+0x280>
1000878a:	07f9      	lsls	r1, r7, #31
1000878c:	f57f aeb4 	bpl.w	100084f8 <_ftoa+0x138>
10008790:	e739      	b.n	10008606 <_ftoa+0x246>
10008792:	f1bb 0f04 	cmp.w	fp, #4
10008796:	f67f af08 	bls.w	100085aa <_ftoa+0x1ea>
1000879a:	9b0c      	ldr	r3, [sp, #48]	@ 0x30
1000879c:	461d      	mov	r5, r3
1000879e:	3b04      	subs	r3, #4
100087a0:	eb03 070b 	add.w	r7, r3, fp
100087a4:	462a      	mov	r2, r5
100087a6:	4653      	mov	r3, sl
100087a8:	4649      	mov	r1, r9
100087aa:	2020      	movs	r0, #32
100087ac:	3501      	adds	r5, #1
100087ae:	47c0      	blx	r8
100087b0:	42af      	cmp	r7, r5
100087b2:	d1f7      	bne.n	100087a4 <_ftoa+0x3e4>
100087b4:	e6fa      	b.n	100085ac <_ftoa+0x1ec>
100087b6:	9b07      	ldr	r3, [sp, #28]
100087b8:	f003 0202 	and.w	r2, r3, #2
100087bc:	079d      	lsls	r5, r3, #30
100087be:	9204      	str	r2, [sp, #16]
100087c0:	d025      	beq.n	1000880e <_ftoa+0x44e>
100087c2:	9f0c      	ldr	r7, [sp, #48]	@ 0x30
100087c4:	463d      	mov	r5, r7
100087c6:	4e22      	ldr	r6, [pc, #136]	@ (10008850 <_ftoa+0x490>)
100087c8:	1cf4      	adds	r4, r6, #3
100087ca:	f814 0d01 	ldrb.w	r0, [r4, #-1]!
100087ce:	462a      	mov	r2, r5
100087d0:	4653      	mov	r3, sl
100087d2:	4649      	mov	r1, r9
100087d4:	47c0      	blx	r8
100087d6:	42a6      	cmp	r6, r4
100087d8:	f105 0501 	add.w	r5, r5, #1
100087dc:	d1f5      	bne.n	100087ca <_ftoa+0x40a>
100087de:	9b04      	ldr	r3, [sp, #16]
100087e0:	1cfc      	adds	r4, r7, #3
100087e2:	2b00      	cmp	r3, #0
100087e4:	f43f aeff 	beq.w	100085e6 <_ftoa+0x226>
100087e8:	9d0c      	ldr	r5, [sp, #48]	@ 0x30
100087ea:	1b63      	subs	r3, r4, r5
100087ec:	459b      	cmp	fp, r3
100087ee:	f67f aefa 	bls.w	100085e6 <_ftoa+0x226>
100087f2:	4622      	mov	r2, r4
100087f4:	4653      	mov	r3, sl
100087f6:	4649      	mov	r1, r9
100087f8:	2020      	movs	r0, #32
100087fa:	3401      	adds	r4, #1
100087fc:	47c0      	blx	r8
100087fe:	1b63      	subs	r3, r4, r5
10008800:	459b      	cmp	fp, r3
10008802:	d8f6      	bhi.n	100087f2 <_ftoa+0x432>
10008804:	e6ef      	b.n	100085e6 <_ftoa+0x226>
10008806:	45ab      	cmp	fp, r5
10008808:	f63f af42 	bhi.w	10008690 <_ftoa+0x2d0>
1000880c:	e74a      	b.n	100086a4 <_ftoa+0x2e4>
1000880e:	f1bb 0f03 	cmp.w	fp, #3
10008812:	d9d6      	bls.n	100087c2 <_ftoa+0x402>
10008814:	9b0c      	ldr	r3, [sp, #48]	@ 0x30
10008816:	461d      	mov	r5, r3
10008818:	3b03      	subs	r3, #3
1000881a:	eb03 070b 	add.w	r7, r3, fp
1000881e:	462a      	mov	r2, r5
10008820:	4653      	mov	r3, sl
10008822:	4649      	mov	r1, r9
10008824:	2020      	movs	r0, #32
10008826:	3501      	adds	r5, #1
10008828:	47c0      	blx	r8
1000882a:	42bd      	cmp	r5, r7
1000882c:	d1f7      	bne.n	1000881e <_ftoa+0x45e>
1000882e:	e7c9      	b.n	100087c4 <_ftoa+0x404>
10008830:	f1bb 0f00 	cmp.w	fp, #0
10008834:	f43f af66 	beq.w	10008704 <_ftoa+0x344>
10008838:	9a0d      	ldr	r2, [sp, #52]	@ 0x34
1000883a:	2a00      	cmp	r2, #0
1000883c:	d084      	beq.n	10008748 <_ftoa+0x388>
1000883e:	f10b 3bff 	add.w	fp, fp, #4294967295	@ 0xffffffff
10008842:	455d      	cmp	r5, fp
10008844:	f4ff af24 	bcc.w	10008690 <_ftoa+0x2d0>
10008848:	2d20      	cmp	r5, #32
1000884a:	f47f af5f 	bne.w	1000870c <_ftoa+0x34c>
1000884e:	e729      	b.n	100086a4 <_ftoa+0x2e4>
10008850:	1000c0b8 	.word	0x1000c0b8
10008854:	00000000 	.word	0x00000000

10008858 <_etoa>:
10008858:	e92d 4ff0 	stmdb	sp!, {r4, r5, r6, r7, r8, r9, sl, fp, lr}
1000885c:	b09f      	sub	sp, #124	@ 0x7c
1000885e:	461e      	mov	r6, r3
10008860:	e9dd ab28 	ldrd	sl, fp, [sp, #160]	@ 0xa0
10008864:	e9dd 982b 	ldrd	r9, r8, [sp, #172]	@ 0xac
10008868:	9b2a      	ldr	r3, [sp, #168]	@ 0xa8
1000886a:	4604      	mov	r4, r0
1000886c:	460d      	mov	r5, r1
1000886e:	920b      	str	r2, [sp, #44]	@ 0x2c
10008870:	930a      	str	r3, [sp, #40]	@ 0x28
10008872:	4652      	mov	r2, sl
10008874:	465b      	mov	r3, fp
10008876:	4650      	mov	r0, sl
10008878:	4659      	mov	r1, fp
1000887a:	f7fe fb63 	bl	10006f44 <__wrap___aeabi_dcmpun>
1000887e:	2800      	cmp	r0, #0
10008880:	f040 80c6 	bne.w	10008a10 <_etoa+0x1b8>
10008884:	4650      	mov	r0, sl
10008886:	4659      	mov	r1, fp
10008888:	f04f 32ff 	mov.w	r2, #4294967295	@ 0xffffffff
1000888c:	4b7b      	ldr	r3, [pc, #492]	@ (10008a7c <_etoa+0x224>)
1000888e:	f7fe fba7 	bl	10006fe0 <__wrap___aeabi_dcmpgt>
10008892:	2800      	cmp	r0, #0
10008894:	f040 80bc 	bne.w	10008a10 <_etoa+0x1b8>
10008898:	4650      	mov	r0, sl
1000889a:	4659      	mov	r1, fp
1000889c:	f04f 32ff 	mov.w	r2, #4294967295	@ 0xffffffff
100088a0:	f46f 1380 	mvn.w	r3, #1048576	@ 0x100000
100088a4:	f7fe fb60 	bl	10006f68 <__wrap___aeabi_dcmplt>
100088a8:	2800      	cmp	r0, #0
100088aa:	f040 80b1 	bne.w	10008a10 <_etoa+0x1b8>
100088ae:	4650      	mov	r0, sl
100088b0:	4659      	mov	r1, fp
100088b2:	2200      	movs	r2, #0
100088b4:	2300      	movs	r3, #0
100088b6:	f7fe fb57 	bl	10006f68 <__wrap___aeabi_dcmplt>
100088ba:	2800      	cmp	r0, #0
100088bc:	f040 81dd 	bne.w	10008c7a <_etoa+0x422>
100088c0:	e9cd ab08 	strd	sl, fp, [sp, #32]
100088c4:	e9dd 1208 	ldrd	r1, r2, [sp, #32]
100088c8:	f418 6080 	ands.w	r0, r8, #1024	@ 0x400
100088cc:	460b      	mov	r3, r1
100088ce:	460f      	mov	r7, r1
100088d0:	f408 6100 	and.w	r1, r8, #2048	@ 0x800
100088d4:	920c      	str	r2, [sp, #48]	@ 0x30
100088d6:	9114      	str	r1, [sp, #80]	@ 0x50
100088d8:	9015      	str	r0, [sp, #84]	@ 0x54
100088da:	f040 80a8 	bne.w	10008a2e <_etoa+0x1d6>
100088de:	4313      	orrs	r3, r2
100088e0:	f040 80d0 	bne.w	10008a84 <_etoa+0x22c>
100088e4:	2900      	cmp	r1, #0
100088e6:	f040 81ec 	bne.w	10008cc2 <_etoa+0x46a>
100088ea:	2306      	movs	r3, #6
100088ec:	930a      	str	r3, [sp, #40]	@ 0x28
100088ee:	f018 0202 	ands.w	r2, r8, #2
100088f2:	9210      	str	r2, [sp, #64]	@ 0x40
100088f4:	f040 81dd 	bne.w	10008cb2 <_etoa+0x45a>
100088f8:	464b      	mov	r3, r9
100088fa:	2b04      	cmp	r3, #4
100088fc:	bf38      	it	cc
100088fe:	2304      	movcc	r3, #4
10008900:	920e      	str	r2, [sp, #56]	@ 0x38
10008902:	2204      	movs	r2, #4
10008904:	3b04      	subs	r3, #4
10008906:	9212      	str	r2, [sp, #72]	@ 0x48
10008908:	9314      	str	r3, [sp, #80]	@ 0x50
1000890a:	4650      	mov	r0, sl
1000890c:	4659      	mov	r1, fp
1000890e:	2200      	movs	r2, #0
10008910:	2300      	movs	r3, #0
10008912:	f7fe fb29 	bl	10006f68 <__wrap___aeabi_dcmplt>
10008916:	2800      	cmp	r0, #0
10008918:	f040 822a 	bne.w	10008d70 <_etoa+0x518>
1000891c:	ed9d 7b08 	vldr	d7, [sp, #32]
10008920:	9b14      	ldr	r3, [sp, #80]	@ 0x50
10008922:	9a0b      	ldr	r2, [sp, #44]	@ 0x2c
10008924:	9303      	str	r3, [sp, #12]
10008926:	9b0a      	ldr	r3, [sp, #40]	@ 0x28
10008928:	ed8d 7b00 	vstr	d7, [sp]
1000892c:	9302      	str	r3, [sp, #8]
1000892e:	f428 6300 	bic.w	r3, r8, #2048	@ 0x800
10008932:	9304      	str	r3, [sp, #16]
10008934:	4629      	mov	r1, r5
10008936:	4633      	mov	r3, r6
10008938:	4620      	mov	r0, r4
1000893a:	f7ff fd41 	bl	100083c0 <_ftoa>
1000893e:	4602      	mov	r2, r0
10008940:	f018 0f20 	tst.w	r8, #32
10008944:	4633      	mov	r3, r6
10008946:	4629      	mov	r1, r5
10008948:	bf0c      	ite	eq
1000894a:	2065      	moveq	r0, #101	@ 0x65
1000894c:	2045      	movne	r0, #69	@ 0x45
1000894e:	f102 0801 	add.w	r8, r2, #1
10008952:	47a0      	blx	r4
10008954:	9b12      	ldr	r3, [sp, #72]	@ 0x48
10008956:	f10d 0a58 	add.w	sl, sp, #88	@ 0x58
1000895a:	f103 3bff 	add.w	fp, r3, #4294967295	@ 0xffffffff
1000895e:	9b0e      	ldr	r3, [sp, #56]	@ 0x38
10008960:	2200      	movs	r2, #0
10008962:	ea83 7ce3 	eor.w	ip, r3, r3, asr #31
10008966:	4650      	mov	r0, sl
10008968:	f8df e114 	ldr.w	lr, [pc, #276]	@ 10008a80 <_etoa+0x228>
1000896c:	9f0b      	ldr	r7, [sp, #44]	@ 0x2c
1000896e:	ebac 7ce3 	sub.w	ip, ip, r3, asr #31
10008972:	0fd9      	lsrs	r1, r3, #31
10008974:	f8cd 8020 	str.w	r8, [sp, #32]
10008978:	e002      	b.n	10008980 <_etoa+0x128>
1000897a:	2a20      	cmp	r2, #32
1000897c:	46c4      	mov	ip, r8
1000897e:	d010      	beq.n	100089a2 <_etoa+0x14a>
10008980:	fbae 380c 	umull	r3, r8, lr, ip
10008984:	ea4f 08d8 	mov.w	r8, r8, lsr #3
10008988:	eb08 0388 	add.w	r3, r8, r8, lsl #2
1000898c:	ebac 0343 	sub.w	r3, ip, r3, lsl #1
10008990:	3001      	adds	r0, #1
10008992:	3330      	adds	r3, #48	@ 0x30
10008994:	f1bc 0f09 	cmp.w	ip, #9
10008998:	f102 0201 	add.w	r2, r2, #1
1000899c:	f800 3c01 	strb.w	r3, [r0, #-1]
100089a0:	d8eb      	bhi.n	1000897a <_etoa+0x122>
100089a2:	2305      	movs	r3, #5
100089a4:	f04f 0c00 	mov.w	ip, #0
100089a8:	9306      	str	r3, [sp, #24]
100089aa:	230a      	movs	r3, #10
100089ac:	f8dd 8020 	ldr.w	r8, [sp, #32]
100089b0:	e9cd 2101 	strd	r2, r1, [sp, #4]
100089b4:	e9cd 3c03 	strd	r3, ip, [sp, #12]
100089b8:	f8cd a000 	str.w	sl, [sp]
100089bc:	4633      	mov	r3, r6
100089be:	4642      	mov	r2, r8
100089c0:	4629      	mov	r1, r5
100089c2:	4620      	mov	r0, r4
100089c4:	f8cd b014 	str.w	fp, [sp, #20]
100089c8:	f7ff fc02 	bl	100081d0 <_ntoa_format>
100089cc:	9b10      	ldr	r3, [sp, #64]	@ 0x40
100089ce:	4682      	mov	sl, r0
100089d0:	b1d3      	cbz	r3, 10008a08 <_etoa+0x1b0>
100089d2:	eba0 0807 	sub.w	r8, r0, r7
100089d6:	45c1      	cmp	r9, r8
100089d8:	d916      	bls.n	10008a08 <_etoa+0x1b0>
100089da:	eb07 0208 	add.w	r2, r7, r8
100089de:	4633      	mov	r3, r6
100089e0:	4629      	mov	r1, r5
100089e2:	2020      	movs	r0, #32
100089e4:	f108 0801 	add.w	r8, r8, #1
100089e8:	47a0      	blx	r4
100089ea:	45c1      	cmp	r9, r8
100089ec:	d8f5      	bhi.n	100089da <_etoa+0x182>
100089ee:	1e7b      	subs	r3, r7, #1
100089f0:	444b      	add	r3, r9
100089f2:	f1c7 0201 	rsb	r2, r7, #1
100089f6:	eba3 030a 	sub.w	r3, r3, sl
100089fa:	4452      	add	r2, sl
100089fc:	4591      	cmp	r9, r2
100089fe:	bf38      	it	cc
10008a00:	2300      	movcc	r3, #0
10008a02:	f10a 0a01 	add.w	sl, sl, #1
10008a06:	449a      	add	sl, r3
10008a08:	4650      	mov	r0, sl
10008a0a:	b01f      	add	sp, #124	@ 0x7c
10008a0c:	e8bd 8ff0 	ldmia.w	sp!, {r4, r5, r6, r7, r8, r9, sl, fp, pc}
10008a10:	4633      	mov	r3, r6
10008a12:	4629      	mov	r1, r5
10008a14:	4620      	mov	r0, r4
10008a16:	e9cd ab28 	strd	sl, fp, [sp, #160]	@ 0xa0
10008a1a:	9c0a      	ldr	r4, [sp, #40]	@ 0x28
10008a1c:	e9cd 982b 	strd	r9, r8, [sp, #172]	@ 0xac
10008a20:	9a0b      	ldr	r2, [sp, #44]	@ 0x2c
10008a22:	942a      	str	r4, [sp, #168]	@ 0xa8
10008a24:	b01f      	add	sp, #124	@ 0x7c
10008a26:	e8bd 4ff0 	ldmia.w	sp!, {r4, r5, r6, r7, r8, r9, sl, fp, lr}
10008a2a:	f7ff bcc9 	b.w	100083c0 <_ftoa>
10008a2e:	ea57 0302 	orrs.w	r3, r7, r2
10008a32:	d129      	bne.n	10008a88 <_etoa+0x230>
10008a34:	2900      	cmp	r1, #0
10008a36:	f43f af5a 	beq.w	100088ee <_etoa+0x96>
10008a3a:	2300      	movs	r3, #0
10008a3c:	930e      	str	r3, [sp, #56]	@ 0x38
10008a3e:	9b0a      	ldr	r3, [sp, #40]	@ 0x28
10008a40:	9a0e      	ldr	r2, [sp, #56]	@ 0x38
10008a42:	4293      	cmp	r3, r2
10008a44:	f300 81ba 	bgt.w	10008dbc <_etoa+0x564>
10008a48:	2700      	movs	r7, #0
10008a4a:	4650      	mov	r0, sl
10008a4c:	4659      	mov	r1, fp
10008a4e:	2200      	movs	r2, #0
10008a50:	2300      	movs	r3, #0
10008a52:	f7fe fa89 	bl	10006f68 <__wrap___aeabi_dcmplt>
10008a56:	2800      	cmp	r0, #0
10008a58:	f040 8115 	bne.w	10008c86 <_etoa+0x42e>
10008a5c:	ed9d 7b08 	vldr	d7, [sp, #32]
10008a60:	f428 6300 	bic.w	r3, r8, #2048	@ 0x800
10008a64:	f443 6380 	orr.w	r3, r3, #1024	@ 0x400
10008a68:	932c      	str	r3, [sp, #176]	@ 0xb0
10008a6a:	ed8d 7b28 	vstr	d7, [sp, #160]	@ 0xa0
10008a6e:	4633      	mov	r3, r6
10008a70:	4629      	mov	r1, r5
10008a72:	4620      	mov	r0, r4
10008a74:	e9cd 792a 	strd	r7, r9, [sp, #168]	@ 0xa8
10008a78:	9a0b      	ldr	r2, [sp, #44]	@ 0x2c
10008a7a:	e7d3      	b.n	10008a24 <_etoa+0x1cc>
10008a7c:	7fefffff 	.word	0x7fefffff
10008a80:	cccccccd 	.word	0xcccccccd
10008a84:	2306      	movs	r3, #6
10008a86:	930a      	str	r3, [sp, #40]	@ 0x28
10008a88:	9b0c      	ldr	r3, [sp, #48]	@ 0x30
10008a8a:	f3c3 500a 	ubfx	r0, r3, #20, #11
10008a8e:	f2a0 30ff 	subw	r0, r0, #1023	@ 0x3ff
10008a92:	f7fe fa0f 	bl	10006eb4 <__wrap___aeabi_i2d>
10008a96:	a3b2      	add	r3, pc, #712	@ (adr r3, 10008d60 <_etoa+0x508>)
10008a98:	e9d3 2300 	ldrd	r2, r3, [r3]
10008a9c:	f7fe f988 	bl	10006db0 <__wrap___aeabi_dmul>
10008aa0:	a3b1      	add	r3, pc, #708	@ (adr r3, 10008d68 <_etoa+0x510>)
10008aa2:	e9d3 2300 	ldrd	r2, r3, [r3]
10008aa6:	f7fe f95b 	bl	10006d60 <__wrap___aeabi_dadd>
10008aaa:	9b0c      	ldr	r3, [sp, #48]	@ 0x30
10008aac:	e9cd 010e 	strd	r0, r1, [sp, #56]	@ 0x38
10008ab0:	f3c3 0313 	ubfx	r3, r3, #0, #20
10008ab4:	f043 517f 	orr.w	r1, r3, #1069547520	@ 0x3fc00000
10008ab8:	4638      	mov	r0, r7
10008aba:	2200      	movs	r2, #0
10008abc:	4ba2      	ldr	r3, [pc, #648]	@ (10008d48 <_etoa+0x4f0>)
10008abe:	f441 1140 	orr.w	r1, r1, #3145728	@ 0x300000
10008ac2:	f7fe f961 	bl	10006d88 <__wrap___aeabi_dsub>
10008ac6:	a394      	add	r3, pc, #592	@ (adr r3, 10008d18 <_etoa+0x4c0>)
10008ac8:	e9d3 2300 	ldrd	r2, r3, [r3]
10008acc:	f7fe f970 	bl	10006db0 <__wrap___aeabi_dmul>
10008ad0:	4602      	mov	r2, r0
10008ad2:	460b      	mov	r3, r1
10008ad4:	e9dd 010e 	ldrd	r0, r1, [sp, #56]	@ 0x38
10008ad8:	f7fe f942 	bl	10006d60 <__wrap___aeabi_dadd>
10008adc:	f7fe fa0e 	bl	10006efc <__wrap___aeabi_d2iz>
10008ae0:	900e      	str	r0, [sp, #56]	@ 0x38
10008ae2:	f7fe f9e7 	bl	10006eb4 <__wrap___aeabi_i2d>
10008ae6:	a38e      	add	r3, pc, #568	@ (adr r3, 10008d20 <_etoa+0x4c8>)
10008ae8:	e9d3 2300 	ldrd	r2, r3, [r3]
10008aec:	e9cd 010c 	strd	r0, r1, [sp, #48]	@ 0x30
10008af0:	f7fe f95e 	bl	10006db0 <__wrap___aeabi_dmul>
10008af4:	2200      	movs	r2, #0
10008af6:	4b95      	ldr	r3, [pc, #596]	@ (10008d4c <_etoa+0x4f4>)
10008af8:	f7fe f932 	bl	10006d60 <__wrap___aeabi_dadd>
10008afc:	f7fe f9fe 	bl	10006efc <__wrap___aeabi_d2iz>
10008b00:	a389      	add	r3, pc, #548	@ (adr r3, 10008d28 <_etoa+0x4d0>)
10008b02:	e9d3 2300 	ldrd	r2, r3, [r3]
10008b06:	4607      	mov	r7, r0
10008b08:	e9dd 010c 	ldrd	r0, r1, [sp, #48]	@ 0x30
10008b0c:	f7fe f950 	bl	10006db0 <__wrap___aeabi_dmul>
10008b10:	e9cd 010c 	strd	r0, r1, [sp, #48]	@ 0x30
10008b14:	4638      	mov	r0, r7
10008b16:	f7fe f9cd 	bl	10006eb4 <__wrap___aeabi_i2d>
10008b1a:	a385      	add	r3, pc, #532	@ (adr r3, 10008d30 <_etoa+0x4d8>)
10008b1c:	e9d3 2300 	ldrd	r2, r3, [r3]
10008b20:	f7fe f946 	bl	10006db0 <__wrap___aeabi_dmul>
10008b24:	4602      	mov	r2, r0
10008b26:	460b      	mov	r3, r1
10008b28:	e9dd 010c 	ldrd	r0, r1, [sp, #48]	@ 0x30
10008b2c:	f7fe f92c 	bl	10006d88 <__wrap___aeabi_dsub>
10008b30:	4602      	mov	r2, r0
10008b32:	460b      	mov	r3, r1
10008b34:	e9cd 230c 	strd	r2, r3, [sp, #48]	@ 0x30
10008b38:	f7fe f93a 	bl	10006db0 <__wrap___aeabi_dmul>
10008b3c:	e9cd 0110 	strd	r0, r1, [sp, #64]	@ 0x40
10008b40:	e9dd 010c 	ldrd	r0, r1, [sp, #48]	@ 0x30
10008b44:	4602      	mov	r2, r0
10008b46:	460b      	mov	r3, r1
10008b48:	f7fe f90a 	bl	10006d60 <__wrap___aeabi_dadd>
10008b4c:	2200      	movs	r2, #0
10008b4e:	e9cd 0112 	strd	r0, r1, [sp, #72]	@ 0x48
10008b52:	e9dd 0110 	ldrd	r0, r1, [sp, #64]	@ 0x40
10008b56:	4b7e      	ldr	r3, [pc, #504]	@ (10008d50 <_etoa+0x4f8>)
10008b58:	f7fe f950 	bl	10006dfc <__wrap___aeabi_ddiv>
10008b5c:	2200      	movs	r2, #0
10008b5e:	4b7d      	ldr	r3, [pc, #500]	@ (10008d54 <_etoa+0x4fc>)
10008b60:	f7fe f8fe 	bl	10006d60 <__wrap___aeabi_dadd>
10008b64:	4602      	mov	r2, r0
10008b66:	460b      	mov	r3, r1
10008b68:	e9dd 0110 	ldrd	r0, r1, [sp, #64]	@ 0x40
10008b6c:	f7fe f946 	bl	10006dfc <__wrap___aeabi_ddiv>
10008b70:	2200      	movs	r2, #0
10008b72:	4b79      	ldr	r3, [pc, #484]	@ (10008d58 <_etoa+0x500>)
10008b74:	f7fe f8f4 	bl	10006d60 <__wrap___aeabi_dadd>
10008b78:	4602      	mov	r2, r0
10008b7a:	460b      	mov	r3, r1
10008b7c:	e9dd 0110 	ldrd	r0, r1, [sp, #64]	@ 0x40
10008b80:	f7fe f93c 	bl	10006dfc <__wrap___aeabi_ddiv>
10008b84:	e9cd 0110 	strd	r0, r1, [sp, #64]	@ 0x40
10008b88:	e9dd 230c 	ldrd	r2, r3, [sp, #48]	@ 0x30
10008b8c:	2000      	movs	r0, #0
10008b8e:	f04f 4180 	mov.w	r1, #1073741824	@ 0x40000000
10008b92:	f7fe f8f9 	bl	10006d88 <__wrap___aeabi_dsub>
10008b96:	4602      	mov	r2, r0
10008b98:	460b      	mov	r3, r1
10008b9a:	e9dd 0110 	ldrd	r0, r1, [sp, #64]	@ 0x40
10008b9e:	f7fe f8df 	bl	10006d60 <__wrap___aeabi_dadd>
10008ba2:	4602      	mov	r2, r0
10008ba4:	460b      	mov	r3, r1
10008ba6:	e9dd 0112 	ldrd	r0, r1, [sp, #72]	@ 0x48
10008baa:	f7fe f927 	bl	10006dfc <__wrap___aeabi_ddiv>
10008bae:	2200      	movs	r2, #0
10008bb0:	4b6a      	ldr	r3, [pc, #424]	@ (10008d5c <_etoa+0x504>)
10008bb2:	f7fe f8d5 	bl	10006d60 <__wrap___aeabi_dadd>
10008bb6:	f207 3cff 	addw	ip, r7, #1023	@ 0x3ff
10008bba:	2200      	movs	r2, #0
10008bbc:	ea4f 530c 	mov.w	r3, ip, lsl #20
10008bc0:	f7fe f8f6 	bl	10006db0 <__wrap___aeabi_dmul>
10008bc4:	4602      	mov	r2, r0
10008bc6:	460b      	mov	r3, r1
10008bc8:	e9dd 0108 	ldrd	r0, r1, [sp, #32]
10008bcc:	e9cd 230c 	strd	r2, r3, [sp, #48]	@ 0x30
10008bd0:	f7fe f9ca 	bl	10006f68 <__wrap___aeabi_dcmplt>
10008bd4:	b150      	cbz	r0, 10008bec <_etoa+0x394>
10008bd6:	e9dd 010c 	ldrd	r0, r1, [sp, #48]	@ 0x30
10008bda:	9b0e      	ldr	r3, [sp, #56]	@ 0x38
10008bdc:	2200      	movs	r2, #0
10008bde:	3b01      	subs	r3, #1
10008be0:	930e      	str	r3, [sp, #56]	@ 0x38
10008be2:	4b5c      	ldr	r3, [pc, #368]	@ (10008d54 <_etoa+0x4fc>)
10008be4:	f7fe f90a 	bl	10006dfc <__wrap___aeabi_ddiv>
10008be8:	e9cd 010c 	strd	r0, r1, [sp, #48]	@ 0x30
10008bec:	e9dd 010c 	ldrd	r0, r1, [sp, #48]	@ 0x30
10008bf0:	9b0e      	ldr	r3, [sp, #56]	@ 0x38
10008bf2:	4602      	mov	r2, r0
10008bf4:	3363      	adds	r3, #99	@ 0x63
10008bf6:	2bc6      	cmp	r3, #198	@ 0xc6
10008bf8:	f008 0302 	and.w	r3, r8, #2
10008bfc:	9310      	str	r3, [sp, #64]	@ 0x40
10008bfe:	9b14      	ldr	r3, [sp, #80]	@ 0x50
10008c00:	d82d      	bhi.n	10008c5e <_etoa+0x406>
10008c02:	2b00      	cmp	r3, #0
10008c04:	d05f      	beq.n	10008cc6 <_etoa+0x46e>
10008c06:	2304      	movs	r3, #4
10008c08:	9312      	str	r3, [sp, #72]	@ 0x48
10008c0a:	430a      	orrs	r2, r1
10008c0c:	f43f af17 	beq.w	10008a3e <_etoa+0x1e6>
10008c10:	e9dd 0108 	ldrd	r0, r1, [sp, #32]
10008c14:	a348      	add	r3, pc, #288	@ (adr r3, 10008d38 <_etoa+0x4e0>)
10008c16:	e9d3 2300 	ldrd	r2, r3, [r3]
10008c1a:	f7fe f9cd 	bl	10006fb8 <__wrap___aeabi_dcmpge>
10008c1e:	b148      	cbz	r0, 10008c34 <_etoa+0x3dc>
10008c20:	e9dd 0108 	ldrd	r0, r1, [sp, #32]
10008c24:	a346      	add	r3, pc, #280	@ (adr r3, 10008d40 <_etoa+0x4e8>)
10008c26:	e9d3 2300 	ldrd	r2, r3, [r3]
10008c2a:	f7fe f99d 	bl	10006f68 <__wrap___aeabi_dcmplt>
10008c2e:	2800      	cmp	r0, #0
10008c30:	f47f af05 	bne.w	10008a3e <_etoa+0x1e6>
10008c34:	9b0a      	ldr	r3, [sp, #40]	@ 0x28
10008c36:	2b00      	cmp	r3, #0
10008c38:	d051      	beq.n	10008cde <_etoa+0x486>
10008c3a:	9a15      	ldr	r2, [sp, #84]	@ 0x54
10008c3c:	2a00      	cmp	r2, #0
10008c3e:	f000 80ac 	beq.w	10008d9a <_etoa+0x542>
10008c42:	3b01      	subs	r3, #1
10008c44:	930a      	str	r3, [sp, #40]	@ 0x28
10008c46:	9b12      	ldr	r3, [sp, #72]	@ 0x48
10008c48:	4599      	cmp	r9, r3
10008c4a:	d905      	bls.n	10008c58 <_etoa+0x400>
10008c4c:	9b10      	ldr	r3, [sp, #64]	@ 0x40
10008c4e:	2b00      	cmp	r3, #0
10008c50:	f000 80af 	beq.w	10008db2 <_etoa+0x55a>
10008c54:	2302      	movs	r3, #2
10008c56:	9310      	str	r3, [sp, #64]	@ 0x40
10008c58:	2300      	movs	r3, #0
10008c5a:	9314      	str	r3, [sp, #80]	@ 0x50
10008c5c:	e044      	b.n	10008ce8 <_etoa+0x490>
10008c5e:	bb2b      	cbnz	r3, 10008cac <_etoa+0x454>
10008c60:	f1b9 0f05 	cmp.w	r9, #5
10008c64:	d94f      	bls.n	10008d06 <_etoa+0x4ae>
10008c66:	f008 0302 	and.w	r3, r8, #2
10008c6a:	2b00      	cmp	r3, #0
10008c6c:	d149      	bne.n	10008d02 <_etoa+0x4aa>
10008c6e:	2305      	movs	r3, #5
10008c70:	9312      	str	r3, [sp, #72]	@ 0x48
10008c72:	f1a9 0305 	sub.w	r3, r9, #5
10008c76:	9314      	str	r3, [sp, #80]	@ 0x50
10008c78:	e03a      	b.n	10008cf0 <_etoa+0x498>
10008c7a:	f10b 4300 	add.w	r3, fp, #2147483648	@ 0x80000000
10008c7e:	f8cd a020 	str.w	sl, [sp, #32]
10008c82:	9309      	str	r3, [sp, #36]	@ 0x24
10008c84:	e61e      	b.n	100088c4 <_etoa+0x6c>
10008c86:	f428 6300 	bic.w	r3, r8, #2048	@ 0x800
10008c8a:	f443 6380 	orr.w	r3, r3, #1024	@ 0x400
10008c8e:	4620      	mov	r0, r4
10008c90:	e9cd 792a 	strd	r7, r9, [sp, #168]	@ 0xa8
10008c94:	932c      	str	r3, [sp, #176]	@ 0xb0
10008c96:	4633      	mov	r3, r6
10008c98:	e9dd 6708 	ldrd	r6, r7, [sp, #32]
10008c9c:	4634      	mov	r4, r6
10008c9e:	4629      	mov	r1, r5
10008ca0:	f107 4500 	add.w	r5, r7, #2147483648	@ 0x80000000
10008ca4:	e9cd 4528 	strd	r4, r5, [sp, #160]	@ 0xa0
10008ca8:	9a0b      	ldr	r2, [sp, #44]	@ 0x2c
10008caa:	e6bb      	b.n	10008a24 <_etoa+0x1cc>
10008cac:	2305      	movs	r3, #5
10008cae:	9312      	str	r3, [sp, #72]	@ 0x48
10008cb0:	e7ab      	b.n	10008c0a <_etoa+0x3b2>
10008cb2:	2202      	movs	r2, #2
10008cb4:	2300      	movs	r3, #0
10008cb6:	9210      	str	r2, [sp, #64]	@ 0x40
10008cb8:	2204      	movs	r2, #4
10008cba:	9314      	str	r3, [sp, #80]	@ 0x50
10008cbc:	9212      	str	r2, [sp, #72]	@ 0x48
10008cbe:	930e      	str	r3, [sp, #56]	@ 0x38
10008cc0:	e623      	b.n	1000890a <_etoa+0xb2>
10008cc2:	2705      	movs	r7, #5
10008cc4:	e6c1      	b.n	10008a4a <_etoa+0x1f2>
10008cc6:	f1b9 0f04 	cmp.w	r9, #4
10008cca:	d91f      	bls.n	10008d0c <_etoa+0x4b4>
10008ccc:	9b10      	ldr	r3, [sp, #64]	@ 0x40
10008cce:	2b00      	cmp	r3, #0
10008cd0:	d177      	bne.n	10008dc2 <_etoa+0x56a>
10008cd2:	2304      	movs	r3, #4
10008cd4:	9312      	str	r3, [sp, #72]	@ 0x48
10008cd6:	f1a9 0304 	sub.w	r3, r9, #4
10008cda:	9314      	str	r3, [sp, #80]	@ 0x50
10008cdc:	e004      	b.n	10008ce8 <_etoa+0x490>
10008cde:	9b12      	ldr	r3, [sp, #72]	@ 0x48
10008ce0:	4599      	cmp	r9, r3
10008ce2:	d85f      	bhi.n	10008da4 <_etoa+0x54c>
10008ce4:	9b0a      	ldr	r3, [sp, #40]	@ 0x28
10008ce6:	9314      	str	r3, [sp, #80]	@ 0x50
10008ce8:	9b0e      	ldr	r3, [sp, #56]	@ 0x38
10008cea:	2b00      	cmp	r3, #0
10008cec:	f43f ae0d 	beq.w	1000890a <_etoa+0xb2>
10008cf0:	e9dd 0108 	ldrd	r0, r1, [sp, #32]
10008cf4:	e9dd 230c 	ldrd	r2, r3, [sp, #48]	@ 0x30
10008cf8:	f7fe f880 	bl	10006dfc <__wrap___aeabi_ddiv>
10008cfc:	e9cd 0108 	strd	r0, r1, [sp, #32]
10008d00:	e603      	b.n	1000890a <_etoa+0xb2>
10008d02:	2302      	movs	r3, #2
10008d04:	9310      	str	r3, [sp, #64]	@ 0x40
10008d06:	2305      	movs	r3, #5
10008d08:	9312      	str	r3, [sp, #72]	@ 0x48
10008d0a:	e7f1      	b.n	10008cf0 <_etoa+0x498>
10008d0c:	2304      	movs	r3, #4
10008d0e:	9312      	str	r3, [sp, #72]	@ 0x48
10008d10:	e7ea      	b.n	10008ce8 <_etoa+0x490>
10008d12:	bf00      	nop
10008d14:	f3af 8000 	nop.w
10008d18:	636f4361 	.word	0x636f4361
10008d1c:	3fd287a7 	.word	0x3fd287a7
10008d20:	0979a371 	.word	0x0979a371
10008d24:	400a934f 	.word	0x400a934f
10008d28:	bbb55516 	.word	0xbbb55516
10008d2c:	40026bb1 	.word	0x40026bb1
10008d30:	fefa39ef 	.word	0xfefa39ef
10008d34:	3fe62e42 	.word	0x3fe62e42
10008d38:	eb1c432d 	.word	0xeb1c432d
10008d3c:	3f1a36e2 	.word	0x3f1a36e2
10008d40:	00000000 	.word	0x00000000
10008d44:	412e8480 	.word	0x412e8480
10008d48:	3ff80000 	.word	0x3ff80000
10008d4c:	3fe00000 	.word	0x3fe00000
10008d50:	402c0000 	.word	0x402c0000
10008d54:	40240000 	.word	0x40240000
10008d58:	40180000 	.word	0x40180000
10008d5c:	3ff00000 	.word	0x3ff00000
10008d60:	509f79fb 	.word	0x509f79fb
10008d64:	3fd34413 	.word	0x3fd34413
10008d68:	8b60c8b3 	.word	0x8b60c8b3
10008d6c:	3fc68a28 	.word	0x3fc68a28
10008d70:	9b14      	ldr	r3, [sp, #80]	@ 0x50
10008d72:	e9dd a708 	ldrd	sl, r7, [sp, #32]
10008d76:	9303      	str	r3, [sp, #12]
10008d78:	9b0a      	ldr	r3, [sp, #40]	@ 0x28
10008d7a:	f107 4b00 	add.w	fp, r7, #2147483648	@ 0x80000000
10008d7e:	9302      	str	r3, [sp, #8]
10008d80:	f428 6300 	bic.w	r3, r8, #2048	@ 0x800
10008d84:	9a0b      	ldr	r2, [sp, #44]	@ 0x2c
10008d86:	9304      	str	r3, [sp, #16]
10008d88:	4629      	mov	r1, r5
10008d8a:	4633      	mov	r3, r6
10008d8c:	4620      	mov	r0, r4
10008d8e:	e9cd ab00 	strd	sl, fp, [sp]
10008d92:	f7ff fb15 	bl	100083c0 <_ftoa>
10008d96:	4602      	mov	r2, r0
10008d98:	e5d2      	b.n	10008940 <_etoa+0xe8>
10008d9a:	9b12      	ldr	r3, [sp, #72]	@ 0x48
10008d9c:	4599      	cmp	r9, r3
10008d9e:	d815      	bhi.n	10008dcc <_etoa+0x574>
10008da0:	9214      	str	r2, [sp, #80]	@ 0x50
10008da2:	e7a1      	b.n	10008ce8 <_etoa+0x490>
10008da4:	9b10      	ldr	r3, [sp, #64]	@ 0x40
10008da6:	b123      	cbz	r3, 10008db2 <_etoa+0x55a>
10008da8:	9b0a      	ldr	r3, [sp, #40]	@ 0x28
10008daa:	9314      	str	r3, [sp, #80]	@ 0x50
10008dac:	2302      	movs	r3, #2
10008dae:	9310      	str	r3, [sp, #64]	@ 0x40
10008db0:	e79a      	b.n	10008ce8 <_etoa+0x490>
10008db2:	9b12      	ldr	r3, [sp, #72]	@ 0x48
10008db4:	eba9 0303 	sub.w	r3, r9, r3
10008db8:	9314      	str	r3, [sp, #80]	@ 0x50
10008dba:	e795      	b.n	10008ce8 <_etoa+0x490>
10008dbc:	1a9b      	subs	r3, r3, r2
10008dbe:	1e5f      	subs	r7, r3, #1
10008dc0:	e643      	b.n	10008a4a <_etoa+0x1f2>
10008dc2:	2304      	movs	r3, #4
10008dc4:	9312      	str	r3, [sp, #72]	@ 0x48
10008dc6:	2302      	movs	r3, #2
10008dc8:	9310      	str	r3, [sp, #64]	@ 0x40
10008dca:	e78d      	b.n	10008ce8 <_etoa+0x490>
10008dcc:	9b10      	ldr	r3, [sp, #64]	@ 0x40
10008dce:	2b00      	cmp	r3, #0
10008dd0:	d0ef      	beq.n	10008db2 <_etoa+0x55a>
10008dd2:	2302      	movs	r3, #2
10008dd4:	9214      	str	r2, [sp, #80]	@ 0x50
10008dd6:	9310      	str	r3, [sp, #64]	@ 0x40
10008dd8:	e786      	b.n	10008ce8 <_etoa+0x490>
10008dda:	bf00      	nop

10008ddc <_vsnprintf>:
10008ddc:	e92d 4ff0 	stmdb	sp!, {r4, r5, r6, r7, r8, r9, sl, fp, lr}
10008de0:	4691      	mov	r9, r2
10008de2:	4c9a      	ldr	r4, [pc, #616]	@ (1000904c <_vsnprintf+0x270>)
10008de4:	4a9a      	ldr	r2, [pc, #616]	@ (10009050 <_vsnprintf+0x274>)
10008de6:	f1b1 0a00 	subs.w	sl, r1, #0
10008dea:	b09b      	sub	sp, #108	@ 0x6c
10008dec:	bf18      	it	ne
10008dee:	4683      	movne	fp, r0
10008df0:	6014      	str	r4, [r2, #0]
10008df2:	7818      	ldrb	r0, [r3, #0]
10008df4:	4a97      	ldr	r2, [pc, #604]	@ (10009054 <_vsnprintf+0x278>)
10008df6:	f8dd 8090 	ldr.w	r8, [sp, #144]	@ 0x90
10008dfa:	bf08      	it	eq
10008dfc:	4693      	moveq	fp, r2
10008dfe:	2800      	cmp	r0, #0
10008e00:	f000 828a 	beq.w	10009318 <_vsnprintf+0x53c>
10008e04:	461d      	mov	r5, r3
10008e06:	2600      	movs	r6, #0
10008e08:	f8cd 9020 	str.w	r9, [sp, #32]
10008e0c:	e008      	b.n	10008e20 <_vsnprintf+0x44>
10008e0e:	4632      	mov	r2, r6
10008e10:	4651      	mov	r1, sl
10008e12:	9b08      	ldr	r3, [sp, #32]
10008e14:	47d8      	blx	fp
10008e16:	3601      	adds	r6, #1
10008e18:	7828      	ldrb	r0, [r5, #0]
10008e1a:	2800      	cmp	r0, #0
10008e1c:	f000 80c7 	beq.w	10008fae <_vsnprintf+0x1d2>
10008e20:	2825      	cmp	r0, #37	@ 0x25
10008e22:	f105 0501 	add.w	r5, r5, #1
10008e26:	d1f2      	bne.n	10008e0e <_vsnprintf+0x32>
10008e28:	2200      	movs	r2, #0
10008e2a:	462b      	mov	r3, r5
10008e2c:	f813 1b01 	ldrb.w	r1, [r3], #1
10008e30:	f1a1 0020 	sub.w	r0, r1, #32
10008e34:	2810      	cmp	r0, #16
10008e36:	d80a      	bhi.n	10008e4e <_vsnprintf+0x72>
10008e38:	e8df f000 	tbb	[pc, r0]
10008e3c:	3b09093f 	.word	0x3b09093f
10008e40:	09090909 	.word	0x09090909
10008e44:	37090909 	.word	0x37090909
10008e48:	09093309 	.word	0x09093309
10008e4c:	2f          	.byte	0x2f
10008e4d:	00          	.byte	0x00
10008e4e:	f1a1 0030 	sub.w	r0, r1, #48	@ 0x30
10008e52:	2809      	cmp	r0, #9
10008e54:	f240 8089 	bls.w	10008f6a <_vsnprintf+0x18e>
10008e58:	292a      	cmp	r1, #42	@ 0x2a
10008e5a:	f000 80e9 	beq.w	10009030 <_vsnprintf+0x254>
10008e5e:	2400      	movs	r4, #0
10008e60:	292e      	cmp	r1, #46	@ 0x2e
10008e62:	f000 8094 	beq.w	10008f8e <_vsnprintf+0x1b2>
10008e66:	2700      	movs	r7, #0
10008e68:	f1a1 0068 	sub.w	r0, r1, #104	@ 0x68
10008e6c:	2812      	cmp	r0, #18
10008e6e:	d82c      	bhi.n	10008eca <_vsnprintf+0xee>
10008e70:	e8df f010 	tbh	[pc, r0, lsl #1]
10008e74:	002b014e 	.word	0x002b014e
10008e78:	002b0149 	.word	0x002b0149
10008e7c:	002b0140 	.word	0x002b0140
10008e80:	002b002b 	.word	0x002b002b
10008e84:	002b002b 	.word	0x002b002b
10008e88:	002b002b 	.word	0x002b002b
10008e8c:	002b0027 	.word	0x002b0027
10008e90:	002b002b 	.word	0x002b002b
10008e94:	002b002b 	.word	0x002b002b
10008e98:	0027      	.short	0x0027
10008e9a:	461d      	mov	r5, r3
10008e9c:	f042 0201 	orr.w	r2, r2, #1
10008ea0:	e7c3      	b.n	10008e2a <_vsnprintf+0x4e>
10008ea2:	461d      	mov	r5, r3
10008ea4:	f042 0202 	orr.w	r2, r2, #2
10008ea8:	e7bf      	b.n	10008e2a <_vsnprintf+0x4e>
10008eaa:	461d      	mov	r5, r3
10008eac:	f042 0204 	orr.w	r2, r2, #4
10008eb0:	e7bb      	b.n	10008e2a <_vsnprintf+0x4e>
10008eb2:	461d      	mov	r5, r3
10008eb4:	f042 0210 	orr.w	r2, r2, #16
10008eb8:	e7b7      	b.n	10008e2a <_vsnprintf+0x4e>
10008eba:	461d      	mov	r5, r3
10008ebc:	f042 0208 	orr.w	r2, r2, #8
10008ec0:	e7b3      	b.n	10008e2a <_vsnprintf+0x4e>
10008ec2:	7869      	ldrb	r1, [r5, #1]
10008ec4:	f442 7280 	orr.w	r2, r2, #256	@ 0x100
10008ec8:	3301      	adds	r3, #1
10008eca:	2967      	cmp	r1, #103	@ 0x67
10008ecc:	461d      	mov	r5, r3
10008ece:	d87e      	bhi.n	10008fce <_vsnprintf+0x1f2>
10008ed0:	2924      	cmp	r1, #36	@ 0x24
10008ed2:	f240 80b8 	bls.w	10009046 <_vsnprintf+0x26a>
10008ed6:	f1a1 0325 	sub.w	r3, r1, #37	@ 0x25
10008eda:	2b42      	cmp	r3, #66	@ 0x42
10008edc:	f200 80b3 	bhi.w	10009046 <_vsnprintf+0x26a>
10008ee0:	e8df f013 	tbh	[pc, r3, lsl #1]
10008ee4:	00b10151 	.word	0x00b10151
10008ee8:	00b100b1 	.word	0x00b100b1
10008eec:	00b100b1 	.word	0x00b100b1
10008ef0:	00b100b1 	.word	0x00b100b1
10008ef4:	00b100b1 	.word	0x00b100b1
10008ef8:	00b100b1 	.word	0x00b100b1
10008efc:	00b100b1 	.word	0x00b100b1
10008f00:	00b100b1 	.word	0x00b100b1
10008f04:	00b100b1 	.word	0x00b100b1
10008f08:	00b100b1 	.word	0x00b100b1
10008f0c:	00b100b1 	.word	0x00b100b1
10008f10:	00b100b1 	.word	0x00b100b1
10008f14:	00b100b1 	.word	0x00b100b1
10008f18:	00b100b1 	.word	0x00b100b1
10008f1c:	00b100b1 	.word	0x00b100b1
10008f20:	00b100b1 	.word	0x00b100b1
10008f24:	013a011e 	.word	0x013a011e
10008f28:	00b1011e 	.word	0x00b1011e
10008f2c:	00b100b1 	.word	0x00b100b1
10008f30:	00b100b1 	.word	0x00b100b1
10008f34:	00b100b1 	.word	0x00b100b1
10008f38:	00b100b1 	.word	0x00b100b1
10008f3c:	00b100b1 	.word	0x00b100b1
10008f40:	00b100b1 	.word	0x00b100b1
10008f44:	00b100b1 	.word	0x00b100b1
10008f48:	01b400b1 	.word	0x01b400b1
10008f4c:	00b100b1 	.word	0x00b100b1
10008f50:	00b100b1 	.word	0x00b100b1
10008f54:	00b100b1 	.word	0x00b100b1
10008f58:	00b100b1 	.word	0x00b100b1
10008f5c:	01b400b1 	.word	0x01b400b1
10008f60:	01b40158 	.word	0x01b40158
10008f64:	013a011e 	.word	0x013a011e
10008f68:	011e      	.short	0x011e
10008f6a:	2400      	movs	r4, #0
10008f6c:	eb04 0484 	add.w	r4, r4, r4, lsl #2
10008f70:	eb01 0444 	add.w	r4, r1, r4, lsl #1
10008f74:	7819      	ldrb	r1, [r3, #0]
10008f76:	461d      	mov	r5, r3
10008f78:	f1a1 0030 	sub.w	r0, r1, #48	@ 0x30
10008f7c:	2809      	cmp	r0, #9
10008f7e:	f1a4 0430 	sub.w	r4, r4, #48	@ 0x30
10008f82:	f103 0301 	add.w	r3, r3, #1
10008f86:	d9f1      	bls.n	10008f6c <_vsnprintf+0x190>
10008f88:	292e      	cmp	r1, #46	@ 0x2e
10008f8a:	f47f af6c 	bne.w	10008e66 <_vsnprintf+0x8a>
10008f8e:	7869      	ldrb	r1, [r5, #1]
10008f90:	4618      	mov	r0, r3
10008f92:	f1a1 0730 	sub.w	r7, r1, #48	@ 0x30
10008f96:	2f09      	cmp	r7, #9
10008f98:	f442 6280 	orr.w	r2, r2, #1024	@ 0x400
10008f9c:	f240 8125 	bls.w	100091ea <_vsnprintf+0x40e>
10008fa0:	292a      	cmp	r1, #42	@ 0x2a
10008fa2:	f000 8132 	beq.w	1000920a <_vsnprintf+0x42e>
10008fa6:	461d      	mov	r5, r3
10008fa8:	2700      	movs	r7, #0
10008faa:	3301      	adds	r3, #1
10008fac:	e75c      	b.n	10008e68 <_vsnprintf+0x8c>
10008fae:	4634      	mov	r4, r6
10008fb0:	f8dd 9020 	ldr.w	r9, [sp, #32]
10008fb4:	45b1      	cmp	r9, r6
10008fb6:	d801      	bhi.n	10008fbc <_vsnprintf+0x1e0>
10008fb8:	f109 36ff 	add.w	r6, r9, #4294967295	@ 0xffffffff
10008fbc:	464b      	mov	r3, r9
10008fbe:	4632      	mov	r2, r6
10008fc0:	4651      	mov	r1, sl
10008fc2:	2000      	movs	r0, #0
10008fc4:	47d8      	blx	fp
10008fc6:	4620      	mov	r0, r4
10008fc8:	b01b      	add	sp, #108	@ 0x6c
10008fca:	e8bd 8ff0 	ldmia.w	sp!, {r4, r5, r6, r7, r8, r9, sl, fp, pc}
10008fce:	f1a1 0369 	sub.w	r3, r1, #105	@ 0x69
10008fd2:	b2db      	uxtb	r3, r3
10008fd4:	2b0f      	cmp	r3, #15
10008fd6:	d836      	bhi.n	10009046 <_vsnprintf+0x26a>
10008fd8:	2001      	movs	r0, #1
10008fda:	f249 0c41 	movw	ip, #36929	@ 0x9041
10008fde:	4098      	lsls	r0, r3
10008fe0:	ea10 000c 	ands.w	r0, r0, ip
10008fe4:	f040 80f4 	bne.w	100091d0 <_vsnprintf+0x3f4>
10008fe8:	2b0a      	cmp	r3, #10
10008fea:	d035      	beq.n	10009058 <_vsnprintf+0x27c>
10008fec:	2b07      	cmp	r3, #7
10008fee:	d12a      	bne.n	10009046 <_vsnprintf+0x26a>
10008ff0:	f858 1b04 	ldr.w	r1, [r8], #4
10008ff4:	2900      	cmp	r1, #0
10008ff6:	f040 8110 	bne.w	1000921a <_vsnprintf+0x43e>
10008ffa:	f022 0410 	bic.w	r4, r2, #16
10008ffe:	f412 6180 	ands.w	r1, r2, #1024	@ 0x400
10009002:	f044 0421 	orr.w	r4, r4, #33	@ 0x21
10009006:	f000 810a 	beq.w	1000921e <_vsnprintf+0x442>
1000900a:	aa12      	add	r2, sp, #72	@ 0x48
1000900c:	2308      	movs	r3, #8
1000900e:	9305      	str	r3, [sp, #20]
10009010:	2310      	movs	r3, #16
10009012:	e9cd 2000 	strd	r2, r0, [sp]
10009016:	4632      	mov	r2, r6
10009018:	9406      	str	r4, [sp, #24]
1000901a:	9704      	str	r7, [sp, #16]
1000901c:	9303      	str	r3, [sp, #12]
1000901e:	2300      	movs	r3, #0
10009020:	9302      	str	r3, [sp, #8]
10009022:	4651      	mov	r1, sl
10009024:	4658      	mov	r0, fp
10009026:	9b08      	ldr	r3, [sp, #32]
10009028:	f7ff f8d2 	bl	100081d0 <_ntoa_format>
1000902c:	4606      	mov	r6, r0
1000902e:	e6f3      	b.n	10008e18 <_vsnprintf+0x3c>
10009030:	f858 4b04 	ldr.w	r4, [r8], #4
10009034:	7869      	ldrb	r1, [r5, #1]
10009036:	2c00      	cmp	r4, #0
10009038:	461d      	mov	r5, r3
1000903a:	bfbc      	itt	lt
1000903c:	f042 0202 	orrlt.w	r2, r2, #2
10009040:	4264      	neglt	r4, r4
10009042:	3301      	adds	r3, #1
10009044:	e70c      	b.n	10008e60 <_vsnprintf+0x84>
10009046:	4608      	mov	r0, r1
10009048:	e6e1      	b.n	10008e0e <_vsnprintf+0x32>
1000904a:	bf00      	nop
1000904c:	10008ddd 	.word	0x10008ddd
10009050:	20008ae0 	.word	0x20008ae0
10009054:	10008125 	.word	0x10008125
10009058:	f858 9b04 	ldr.w	r9, [r8], #4
1000905c:	2f00      	cmp	r7, #0
1000905e:	f899 0000 	ldrb.w	r0, [r9]
10009062:	bf14      	ite	ne
10009064:	463b      	movne	r3, r7
10009066:	f04f 33ff 	moveq.w	r3, #4294967295	@ 0xffffffff
1000906a:	2800      	cmp	r0, #0
1000906c:	f000 8382 	beq.w	10009774 <_vsnprintf+0x998>
10009070:	4649      	mov	r1, r9
10009072:	eb03 0c09 	add.w	ip, r3, r9
10009076:	e004      	b.n	10009082 <_vsnprintf+0x2a6>
10009078:	f811 3f01 	ldrb.w	r3, [r1, #1]!
1000907c:	2b00      	cmp	r3, #0
1000907e:	f000 8143 	beq.w	10009308 <_vsnprintf+0x52c>
10009082:	458c      	cmp	ip, r1
10009084:	d1f8      	bne.n	10009078 <_vsnprintf+0x29c>
10009086:	ebac 0109 	sub.w	r1, ip, r9
1000908a:	0553      	lsls	r3, r2, #21
1000908c:	f140 8120 	bpl.w	100092d0 <_vsnprintf+0x4f4>
10009090:	42b9      	cmp	r1, r7
10009092:	bf28      	it	cs
10009094:	4639      	movcs	r1, r7
10009096:	f012 0302 	ands.w	r3, r2, #2
1000909a:	f000 8283 	beq.w	100095a4 <_vsnprintf+0x7c8>
1000909e:	2302      	movs	r3, #2
100090a0:	e9cd 4809 	strd	r4, r8, [sp, #36]	@ 0x24
100090a4:	4632      	mov	r2, r6
100090a6:	4688      	mov	r8, r1
100090a8:	9c08      	ldr	r4, [sp, #32]
100090aa:	4437      	add	r7, r6
100090ac:	930b      	str	r3, [sp, #44]	@ 0x2c
100090ae:	e007      	b.n	100090c0 <_vsnprintf+0x2e4>
100090b0:	4623      	mov	r3, r4
100090b2:	4651      	mov	r1, sl
100090b4:	47d8      	blx	fp
100090b6:	f819 0f01 	ldrb.w	r0, [r9, #1]!
100090ba:	3601      	adds	r6, #1
100090bc:	b110      	cbz	r0, 100090c4 <_vsnprintf+0x2e8>
100090be:	4632      	mov	r2, r6
100090c0:	42b7      	cmp	r7, r6
100090c2:	d1f5      	bne.n	100090b0 <_vsnprintf+0x2d4>
100090c4:	9b0b      	ldr	r3, [sp, #44]	@ 0x2c
100090c6:	4641      	mov	r1, r8
100090c8:	9c09      	ldr	r4, [sp, #36]	@ 0x24
100090ca:	f8dd 8028 	ldr.w	r8, [sp, #40]	@ 0x28
100090ce:	2b00      	cmp	r3, #0
100090d0:	f43f aea2 	beq.w	10008e18 <_vsnprintf+0x3c>
100090d4:	4637      	mov	r7, r6
100090d6:	428c      	cmp	r4, r1
100090d8:	f67f ae9e 	bls.w	10008e18 <_vsnprintf+0x3c>
100090dc:	4426      	add	r6, r4
100090de:	9c08      	ldr	r4, [sp, #32]
100090e0:	1a76      	subs	r6, r6, r1
100090e2:	463a      	mov	r2, r7
100090e4:	4623      	mov	r3, r4
100090e6:	4651      	mov	r1, sl
100090e8:	2020      	movs	r0, #32
100090ea:	3701      	adds	r7, #1
100090ec:	47d8      	blx	fp
100090ee:	42b7      	cmp	r7, r6
100090f0:	d1f7      	bne.n	100090e2 <_vsnprintf+0x306>
100090f2:	e691      	b.n	10008e18 <_vsnprintf+0x3c>
100090f4:	7869      	ldrb	r1, [r5, #1]
100090f6:	296c      	cmp	r1, #108	@ 0x6c
100090f8:	f47f aee4 	bne.w	10008ec4 <_vsnprintf+0xe8>
100090fc:	78a9      	ldrb	r1, [r5, #2]
100090fe:	f442 7240 	orr.w	r2, r2, #768	@ 0x300
10009102:	1ceb      	adds	r3, r5, #3
10009104:	e6e1      	b.n	10008eca <_vsnprintf+0xee>
10009106:	7869      	ldrb	r1, [r5, #1]
10009108:	f442 7200 	orr.w	r2, r2, #512	@ 0x200
1000910c:	3301      	adds	r3, #1
1000910e:	e6dc      	b.n	10008eca <_vsnprintf+0xee>
10009110:	7869      	ldrb	r1, [r5, #1]
10009112:	2968      	cmp	r1, #104	@ 0x68
10009114:	f000 80fb 	beq.w	1000930e <_vsnprintf+0x532>
10009118:	f042 0280 	orr.w	r2, r2, #128	@ 0x80
1000911c:	3301      	adds	r3, #1
1000911e:	e6d4      	b.n	10008eca <_vsnprintf+0xee>
10009120:	2967      	cmp	r1, #103	@ 0x67
10009122:	f000 80c9 	beq.w	100092b8 <_vsnprintf+0x4dc>
10009126:	2947      	cmp	r1, #71	@ 0x47
10009128:	f000 80cd 	beq.w	100092c6 <_vsnprintf+0x4ea>
1000912c:	2945      	cmp	r1, #69	@ 0x45
1000912e:	f000 80cc 	beq.w	100092ca <_vsnprintf+0x4ee>
10009132:	e9cd 4203 	strd	r4, r2, [sp, #12]
10009136:	f108 0807 	add.w	r8, r8, #7
1000913a:	9702      	str	r7, [sp, #8]
1000913c:	f028 0807 	bic.w	r8, r8, #7
10009140:	4632      	mov	r2, r6
10009142:	e8f8 6702 	ldrd	r6, r7, [r8], #8
10009146:	4651      	mov	r1, sl
10009148:	e9cd 6700 	strd	r6, r7, [sp]
1000914c:	4658      	mov	r0, fp
1000914e:	9b08      	ldr	r3, [sp, #32]
10009150:	f7ff fb82 	bl	10008858 <_etoa>
10009154:	4606      	mov	r6, r0
10009156:	e65f      	b.n	10008e18 <_vsnprintf+0x3c>
10009158:	2946      	cmp	r1, #70	@ 0x46
1000915a:	bf08      	it	eq
1000915c:	f042 0220 	orreq.w	r2, r2, #32
10009160:	e9cd 4203 	strd	r4, r2, [sp, #12]
10009164:	f108 0807 	add.w	r8, r8, #7
10009168:	9702      	str	r7, [sp, #8]
1000916a:	f028 0807 	bic.w	r8, r8, #7
1000916e:	4632      	mov	r2, r6
10009170:	e8f8 6702 	ldrd	r6, r7, [r8], #8
10009174:	4651      	mov	r1, sl
10009176:	e9cd 6700 	strd	r6, r7, [sp]
1000917a:	4658      	mov	r0, fp
1000917c:	9b08      	ldr	r3, [sp, #32]
1000917e:	f7ff f91f 	bl	100083c0 <_ftoa>
10009182:	4606      	mov	r6, r0
10009184:	e648      	b.n	10008e18 <_vsnprintf+0x3c>
10009186:	4632      	mov	r2, r6
10009188:	4651      	mov	r1, sl
1000918a:	2025      	movs	r0, #37	@ 0x25
1000918c:	9b08      	ldr	r3, [sp, #32]
1000918e:	47d8      	blx	fp
10009190:	3601      	adds	r6, #1
10009192:	e641      	b.n	10008e18 <_vsnprintf+0x3c>
10009194:	f108 0304 	add.w	r3, r8, #4
10009198:	0792      	lsls	r2, r2, #30
1000919a:	9309      	str	r3, [sp, #36]	@ 0x24
1000919c:	f106 0701 	add.w	r7, r6, #1
100091a0:	f140 80c3 	bpl.w	1000932a <_vsnprintf+0x54e>
100091a4:	4632      	mov	r2, r6
100091a6:	4651      	mov	r1, sl
100091a8:	f898 0000 	ldrb.w	r0, [r8]
100091ac:	9b08      	ldr	r3, [sp, #32]
100091ae:	47d8      	blx	fp
100091b0:	2c01      	cmp	r4, #1
100091b2:	f240 81b4 	bls.w	1000951e <_vsnprintf+0x742>
100091b6:	4426      	add	r6, r4
100091b8:	9c08      	ldr	r4, [sp, #32]
100091ba:	463a      	mov	r2, r7
100091bc:	4623      	mov	r3, r4
100091be:	4651      	mov	r1, sl
100091c0:	2020      	movs	r0, #32
100091c2:	3701      	adds	r7, #1
100091c4:	47d8      	blx	fp
100091c6:	42b7      	cmp	r7, r6
100091c8:	d1f7      	bne.n	100091ba <_vsnprintf+0x3de>
100091ca:	f8dd 8024 	ldr.w	r8, [sp, #36]	@ 0x24
100091ce:	e623      	b.n	10008e18 <_vsnprintf+0x3c>
100091d0:	296f      	cmp	r1, #111	@ 0x6f
100091d2:	d074      	beq.n	100092be <_vsnprintf+0x4e2>
100091d4:	f240 8241 	bls.w	1000965a <_vsnprintf+0x87e>
100091d8:	2978      	cmp	r1, #120	@ 0x78
100091da:	f000 8186 	beq.w	100094ea <_vsnprintf+0x70e>
100091de:	f04f 090a 	mov.w	r9, #10
100091e2:	f022 0210 	bic.w	r2, r2, #16
100091e6:	464b      	mov	r3, r9
100091e8:	e038      	b.n	1000925c <_vsnprintf+0x480>
100091ea:	2700      	movs	r7, #0
100091ec:	eb07 0787 	add.w	r7, r7, r7, lsl #2
100091f0:	eb01 0147 	add.w	r1, r1, r7, lsl #1
100091f4:	f1a1 0730 	sub.w	r7, r1, #48	@ 0x30
100091f8:	f810 1f01 	ldrb.w	r1, [r0, #1]!
100091fc:	f1a1 0330 	sub.w	r3, r1, #48	@ 0x30
10009200:	2b09      	cmp	r3, #9
10009202:	d9f3      	bls.n	100091ec <_vsnprintf+0x410>
10009204:	4605      	mov	r5, r0
10009206:	1c43      	adds	r3, r0, #1
10009208:	e62e      	b.n	10008e68 <_vsnprintf+0x8c>
1000920a:	f858 7b04 	ldr.w	r7, [r8], #4
1000920e:	78a9      	ldrb	r1, [r5, #2]
10009210:	3502      	adds	r5, #2
10009212:	1c6b      	adds	r3, r5, #1
10009214:	ea27 77e7 	bic.w	r7, r7, r7, asr #31
10009218:	e626      	b.n	10008e68 <_vsnprintf+0x8c>
1000921a:	f042 0421 	orr.w	r4, r2, #33	@ 0x21
1000921e:	aa12      	add	r2, sp, #72	@ 0x48
10009220:	4694      	mov	ip, r2
10009222:	e002      	b.n	1000922a <_vsnprintf+0x44e>
10009224:	2820      	cmp	r0, #32
10009226:	f43f aef1 	beq.w	1000900c <_vsnprintf+0x230>
1000922a:	f001 030f 	and.w	r3, r1, #15
1000922e:	2b09      	cmp	r3, #9
10009230:	bf94      	ite	ls
10009232:	3330      	addls	r3, #48	@ 0x30
10009234:	3337      	addhi	r3, #55	@ 0x37
10009236:	290f      	cmp	r1, #15
10009238:	f88c 3000 	strb.w	r3, [ip]
1000923c:	f100 0001 	add.w	r0, r0, #1
10009240:	f10c 0c01 	add.w	ip, ip, #1
10009244:	ea4f 1111 	mov.w	r1, r1, lsr #4
10009248:	d8ec      	bhi.n	10009224 <_vsnprintf+0x448>
1000924a:	e6df      	b.n	1000900c <_vsnprintf+0x230>
1000924c:	2958      	cmp	r1, #88	@ 0x58
1000924e:	d066      	beq.n	1000931e <_vsnprintf+0x542>
10009250:	2962      	cmp	r1, #98	@ 0x62
10009252:	f040 8089 	bne.w	10009368 <_vsnprintf+0x58c>
10009256:	f04f 0902 	mov.w	r9, #2
1000925a:	464b      	mov	r3, r9
1000925c:	f412 6c80 	ands.w	ip, r2, #1024	@ 0x400
10009260:	f000 80d4 	beq.w	1000940c <_vsnprintf+0x630>
10009264:	f022 020d 	bic.w	r2, r2, #13
10009268:	9209      	str	r2, [sp, #36]	@ 0x24
1000926a:	f412 7100 	ands.w	r1, r2, #512	@ 0x200
1000926e:	f040 817b 	bne.w	10009568 <_vsnprintf+0x78c>
10009272:	f412 7080 	ands.w	r0, r2, #256	@ 0x100
10009276:	f108 0904 	add.w	r9, r8, #4
1000927a:	f040 8238 	bne.w	100096ee <_vsnprintf+0x912>
1000927e:	0651      	lsls	r1, r2, #25
10009280:	f140 813a 	bpl.w	100094f8 <_vsnprintf+0x71c>
10009284:	f898 1000 	ldrb.w	r1, [r8]
10009288:	2900      	cmp	r1, #0
1000928a:	f040 814a 	bne.w	10009522 <_vsnprintf+0x746>
1000928e:	9a09      	ldr	r2, [sp, #36]	@ 0x24
10009290:	f022 0210 	bic.w	r2, r2, #16
10009294:	9209      	str	r2, [sp, #36]	@ 0x24
10009296:	f1bc 0f00 	cmp.w	ip, #0
1000929a:	f000 8142 	beq.w	10009522 <_vsnprintf+0x746>
1000929e:	4608      	mov	r0, r1
100092a0:	aa12      	add	r2, sp, #72	@ 0x48
100092a2:	9909      	ldr	r1, [sp, #36]	@ 0x24
100092a4:	e9cd 3703 	strd	r3, r7, [sp, #12]
100092a8:	e9cd 4105 	strd	r4, r1, [sp, #20]
100092ac:	9001      	str	r0, [sp, #4]
100092ae:	2300      	movs	r3, #0
100092b0:	9200      	str	r2, [sp, #0]
100092b2:	9302      	str	r3, [sp, #8]
100092b4:	4632      	mov	r2, r6
100092b6:	e0a1      	b.n	100093fc <_vsnprintf+0x620>
100092b8:	f442 6200 	orr.w	r2, r2, #2048	@ 0x800
100092bc:	e739      	b.n	10009132 <_vsnprintf+0x356>
100092be:	f04f 0908 	mov.w	r9, #8
100092c2:	464b      	mov	r3, r9
100092c4:	e7ca      	b.n	1000925c <_vsnprintf+0x480>
100092c6:	f442 6200 	orr.w	r2, r2, #2048	@ 0x800
100092ca:	f042 0220 	orr.w	r2, r2, #32
100092ce:	e730      	b.n	10009132 <_vsnprintf+0x356>
100092d0:	f012 0302 	ands.w	r3, r2, #2
100092d4:	f000 818c 	beq.w	100095f0 <_vsnprintf+0x814>
100092d8:	2302      	movs	r3, #2
100092da:	e9cd 4809 	strd	r4, r8, [sp, #36]	@ 0x24
100092de:	461f      	mov	r7, r3
100092e0:	4688      	mov	r8, r1
100092e2:	9c08      	ldr	r4, [sp, #32]
100092e4:	4632      	mov	r2, r6
100092e6:	4623      	mov	r3, r4
100092e8:	4651      	mov	r1, sl
100092ea:	47d8      	blx	fp
100092ec:	f819 0f01 	ldrb.w	r0, [r9, #1]!
100092f0:	3601      	adds	r6, #1
100092f2:	2800      	cmp	r0, #0
100092f4:	d1f6      	bne.n	100092e4 <_vsnprintf+0x508>
100092f6:	463b      	mov	r3, r7
100092f8:	4641      	mov	r1, r8
100092fa:	9c09      	ldr	r4, [sp, #36]	@ 0x24
100092fc:	f8dd 8028 	ldr.w	r8, [sp, #40]	@ 0x28
10009300:	2b00      	cmp	r3, #0
10009302:	f43f ad89 	beq.w	10008e18 <_vsnprintf+0x3c>
10009306:	e6e5      	b.n	100090d4 <_vsnprintf+0x2f8>
10009308:	eba1 0109 	sub.w	r1, r1, r9
1000930c:	e6bd      	b.n	1000908a <_vsnprintf+0x2ae>
1000930e:	78a9      	ldrb	r1, [r5, #2]
10009310:	f042 02c0 	orr.w	r2, r2, #192	@ 0xc0
10009314:	1ceb      	adds	r3, r5, #3
10009316:	e5d8      	b.n	10008eca <_vsnprintf+0xee>
10009318:	4604      	mov	r4, r0
1000931a:	4606      	mov	r6, r0
1000931c:	e64a      	b.n	10008fb4 <_vsnprintf+0x1d8>
1000931e:	f04f 0910 	mov.w	r9, #16
10009322:	f042 0220 	orr.w	r2, r2, #32
10009326:	464b      	mov	r3, r9
10009328:	e798      	b.n	1000925c <_vsnprintf+0x480>
1000932a:	2c01      	cmp	r4, #1
1000932c:	f240 80f1 	bls.w	10009512 <_vsnprintf+0x736>
10009330:	4637      	mov	r7, r6
10009332:	f106 39ff 	add.w	r9, r6, #4294967295	@ 0xffffffff
10009336:	f8cd 8028 	str.w	r8, [sp, #40]	@ 0x28
1000933a:	f8dd 8020 	ldr.w	r8, [sp, #32]
1000933e:	44a1      	add	r9, r4
10009340:	463a      	mov	r2, r7
10009342:	4643      	mov	r3, r8
10009344:	4651      	mov	r1, sl
10009346:	2020      	movs	r0, #32
10009348:	3701      	adds	r7, #1
1000934a:	47d8      	blx	fp
1000934c:	454f      	cmp	r7, r9
1000934e:	d1f7      	bne.n	10009340 <_vsnprintf+0x564>
10009350:	f8dd 8028 	ldr.w	r8, [sp, #40]	@ 0x28
10009354:	463a      	mov	r2, r7
10009356:	f898 0000 	ldrb.w	r0, [r8]
1000935a:	4651      	mov	r1, sl
1000935c:	9b08      	ldr	r3, [sp, #32]
1000935e:	47d8      	blx	fp
10009360:	4426      	add	r6, r4
10009362:	f8dd 8024 	ldr.w	r8, [sp, #36]	@ 0x24
10009366:	e557      	b.n	10008e18 <_vsnprintf+0x3c>
10009368:	f412 6380 	ands.w	r3, r2, #1024	@ 0x400
1000936c:	f000 80c1 	beq.w	100094f2 <_vsnprintf+0x716>
10009370:	f44f 6380 	mov.w	r3, #1024	@ 0x400
10009374:	f022 0011 	bic.w	r0, r2, #17
10009378:	f410 7e00 	ands.w	lr, r0, #512	@ 0x200
1000937c:	d14a      	bne.n	10009414 <_vsnprintf+0x638>
1000937e:	f410 7c80 	ands.w	ip, r0, #256	@ 0x100
10009382:	f108 0904 	add.w	r9, r8, #4
10009386:	f040 8137 	bne.w	100095f8 <_vsnprintf+0x81c>
1000938a:	0641      	lsls	r1, r0, #25
1000938c:	f100 80a9 	bmi.w	100094e2 <_vsnprintf+0x706>
10009390:	0602      	lsls	r2, r0, #24
10009392:	f140 81e3 	bpl.w	1000975c <_vsnprintf+0x980>
10009396:	f9b8 2000 	ldrsh.w	r2, [r8]
1000939a:	ea82 71e2 	eor.w	r1, r2, r2, asr #31
1000939e:	eba1 71e2 	sub.w	r1, r1, r2, asr #31
100093a2:	fa1f fe81 	uxth.w	lr, r1
100093a6:	0fd1      	lsrs	r1, r2, #31
100093a8:	9109      	str	r1, [sp, #36]	@ 0x24
100093aa:	2a00      	cmp	r2, #0
100093ac:	f000 815f 	beq.w	1000966e <_vsnprintf+0x892>
100093b0:	4673      	mov	r3, lr
100093b2:	aa12      	add	r2, sp, #72	@ 0x48
100093b4:	4696      	mov	lr, r2
100093b6:	f8df 83a0 	ldr.w	r8, [pc, #928]	@ 10009758 <_vsnprintf+0x97c>
100093ba:	940a      	str	r4, [sp, #40]	@ 0x28
100093bc:	e003      	b.n	100093c6 <_vsnprintf+0x5ea>
100093be:	f1bc 0f20 	cmp.w	ip, #32
100093c2:	4623      	mov	r3, r4
100093c4:	d00f      	beq.n	100093e6 <_vsnprintf+0x60a>
100093c6:	fba8 1403 	umull	r1, r4, r8, r3
100093ca:	08e4      	lsrs	r4, r4, #3
100093cc:	eb04 0184 	add.w	r1, r4, r4, lsl #2
100093d0:	eba3 0141 	sub.w	r1, r3, r1, lsl #1
100093d4:	f10e 0e01 	add.w	lr, lr, #1
100093d8:	3130      	adds	r1, #48	@ 0x30
100093da:	2b09      	cmp	r3, #9
100093dc:	f10c 0c01 	add.w	ip, ip, #1
100093e0:	f80e 1c01 	strb.w	r1, [lr, #-1]
100093e4:	d8eb      	bhi.n	100093be <_vsnprintf+0x5e2>
100093e6:	9c0a      	ldr	r4, [sp, #40]	@ 0x28
100093e8:	9b09      	ldr	r3, [sp, #36]	@ 0x24
100093ea:	9200      	str	r2, [sp, #0]
100093ec:	e9cd c301 	strd	ip, r3, [sp, #4]
100093f0:	230a      	movs	r3, #10
100093f2:	4632      	mov	r2, r6
100093f4:	e9cd 4005 	strd	r4, r0, [sp, #20]
100093f8:	9704      	str	r7, [sp, #16]
100093fa:	9303      	str	r3, [sp, #12]
100093fc:	4651      	mov	r1, sl
100093fe:	4658      	mov	r0, fp
10009400:	9b08      	ldr	r3, [sp, #32]
10009402:	f7fe fee5 	bl	100081d0 <_ntoa_format>
10009406:	46c8      	mov	r8, r9
10009408:	4606      	mov	r6, r0
1000940a:	e505      	b.n	10008e18 <_vsnprintf+0x3c>
1000940c:	f022 020c 	bic.w	r2, r2, #12
10009410:	9209      	str	r2, [sp, #36]	@ 0x24
10009412:	e72a      	b.n	1000926a <_vsnprintf+0x48e>
10009414:	f108 0807 	add.w	r8, r8, #7
10009418:	f028 0807 	bic.w	r8, r8, #7
1000941c:	f8d8 2004 	ldr.w	r2, [r8, #4]
10009420:	f858 cb08 	ldr.w	ip, [r8], #8
10009424:	0fd1      	lsrs	r1, r2, #31
10009426:	ea5c 0e02 	orrs.w	lr, ip, r2
1000942a:	d06c      	beq.n	10009506 <_vsnprintf+0x72a>
1000942c:	2a00      	cmp	r2, #0
1000942e:	4663      	mov	r3, ip
10009430:	da02      	bge.n	10009438 <_vsnprintf+0x65c>
10009432:	425b      	negs	r3, r3
10009434:	eb62 0242 	sbc.w	r2, r2, r2, lsl #1
10009438:	4691      	mov	r9, r2
1000943a:	9309      	str	r3, [sp, #36]	@ 0x24
1000943c:	aa12      	add	r2, sp, #72	@ 0x48
1000943e:	4694      	mov	ip, r2
10009440:	f04f 0e00 	mov.w	lr, #0
10009444:	e9cd 180a 	strd	r1, r8, [sp, #40]	@ 0x28
10009448:	e9cd 470c 	strd	r4, r7, [sp, #48]	@ 0x30
1000944c:	960e      	str	r6, [sp, #56]	@ 0x38
1000944e:	920f      	str	r2, [sp, #60]	@ 0x3c
10009450:	e003      	b.n	1000945a <_vsnprintf+0x67e>
10009452:	f1be 0f20 	cmp.w	lr, #32
10009456:	463b      	mov	r3, r7
10009458:	d030      	beq.n	100094bc <_vsnprintf+0x6e0>
1000945a:	f04f 32cc 	mov.w	r2, #3435973836	@ 0xcccccccc
1000945e:	eb13 0109 	adds.w	r1, r3, r9
10009462:	4fbd      	ldr	r7, [pc, #756]	@ (10009758 <_vsnprintf+0x97c>)
10009464:	f141 0100 	adc.w	r1, r1, #0
10009468:	fba7 4601 	umull	r4, r6, r7, r1
1000946c:	f026 0403 	bic.w	r4, r6, #3
10009470:	eb04 0496 	add.w	r4, r4, r6, lsr #2
10009474:	1b09      	subs	r1, r1, r4
10009476:	1a5c      	subs	r4, r3, r1
10009478:	fb02 f604 	mul.w	r6, r2, r4
1000947c:	463a      	mov	r2, r7
1000947e:	f169 0800 	sbc.w	r8, r9, #0
10009482:	fb02 6608 	mla	r6, r2, r8, r6
10009486:	2205      	movs	r2, #5
10009488:	fba4 7407 	umull	r7, r4, r4, r7
1000948c:	f007 0801 	and.w	r8, r7, #1
10009490:	4426      	add	r6, r4
10009492:	fba8 4802 	umull	r4, r8, r8, r2
10009496:	1864      	adds	r4, r4, r1
10009498:	2b0a      	cmp	r3, #10
1000949a:	f10c 0c01 	add.w	ip, ip, #1
1000949e:	ea4f 0757 	mov.w	r7, r7, lsr #1
100094a2:	f104 0430 	add.w	r4, r4, #48	@ 0x30
100094a6:	f179 0900 	sbcs.w	r9, r9, #0
100094aa:	f10e 0e01 	add.w	lr, lr, #1
100094ae:	f80c 4c01 	strb.w	r4, [ip, #-1]
100094b2:	ea47 77c6 	orr.w	r7, r7, r6, lsl #31
100094b6:	ea4f 0956 	mov.w	r9, r6, lsr #1
100094ba:	d2ca      	bcs.n	10009452 <_vsnprintf+0x676>
100094bc:	4673      	mov	r3, lr
100094be:	e9dd 180a 	ldrd	r1, r8, [sp, #40]	@ 0x28
100094c2:	e9dd 470c 	ldrd	r4, r7, [sp, #48]	@ 0x30
100094c6:	9e0e      	ldr	r6, [sp, #56]	@ 0x38
100094c8:	9a0f      	ldr	r2, [sp, #60]	@ 0x3c
100094ca:	f8cd e024 	str.w	lr, [sp, #36]	@ 0x24
100094ce:	e9cd 3101 	strd	r3, r1, [sp, #4]
100094d2:	230a      	movs	r3, #10
100094d4:	9200      	str	r2, [sp, #0]
100094d6:	e9cd 4005 	strd	r4, r0, [sp, #20]
100094da:	4632      	mov	r2, r6
100094dc:	9704      	str	r7, [sp, #16]
100094de:	9303      	str	r3, [sp, #12]
100094e0:	e59f      	b.n	10009022 <_vsnprintf+0x246>
100094e2:	f898 2000 	ldrb.w	r2, [r8]
100094e6:	4696      	mov	lr, r2
100094e8:	e75d      	b.n	100093a6 <_vsnprintf+0x5ca>
100094ea:	f04f 0910 	mov.w	r9, #16
100094ee:	464b      	mov	r3, r9
100094f0:	e6b4      	b.n	1000925c <_vsnprintf+0x480>
100094f2:	f022 0010 	bic.w	r0, r2, #16
100094f6:	e73f      	b.n	10009378 <_vsnprintf+0x59c>
100094f8:	0611      	lsls	r1, r2, #24
100094fa:	bf4c      	ite	mi
100094fc:	f8b8 1000 	ldrhmi.w	r1, [r8]
10009500:	f8d8 1000 	ldrpl.w	r1, [r8]
10009504:	e6c0      	b.n	10009288 <_vsnprintf+0x4ac>
10009506:	2b00      	cmp	r3, #0
10009508:	f040 8142 	bne.w	10009790 <_vsnprintf+0x9b4>
1000950c:	4699      	mov	r9, r3
1000950e:	9309      	str	r3, [sp, #36]	@ 0x24
10009510:	e794      	b.n	1000943c <_vsnprintf+0x660>
10009512:	4632      	mov	r2, r6
10009514:	4651      	mov	r1, sl
10009516:	f898 0000 	ldrb.w	r0, [r8]
1000951a:	9b08      	ldr	r3, [sp, #32]
1000951c:	47d8      	blx	fp
1000951e:	463e      	mov	r6, r7
10009520:	e653      	b.n	100091ca <_vsnprintf+0x3ee>
10009522:	9a09      	ldr	r2, [sp, #36]	@ 0x24
10009524:	940a      	str	r4, [sp, #40]	@ 0x28
10009526:	f012 0f20 	tst.w	r2, #32
1000952a:	bf14      	ite	ne
1000952c:	f04f 0841 	movne.w	r8, #65	@ 0x41
10009530:	f04f 0861 	moveq.w	r8, #97	@ 0x61
10009534:	aa12      	add	r2, sp, #72	@ 0x48
10009536:	4694      	mov	ip, r2
10009538:	f1a8 080a 	sub.w	r8, r8, #10
1000953c:	e002      	b.n	10009544 <_vsnprintf+0x768>
1000953e:	2820      	cmp	r0, #32
10009540:	4671      	mov	r1, lr
10009542:	d00f      	beq.n	10009564 <_vsnprintf+0x788>
10009544:	fbb1 fef3 	udiv	lr, r1, r3
10009548:	fb03 141e 	mls	r4, r3, lr, r1
1000954c:	2c09      	cmp	r4, #9
1000954e:	bf94      	ite	ls
10009550:	3430      	addls	r4, #48	@ 0x30
10009552:	4444      	addhi	r4, r8
10009554:	4299      	cmp	r1, r3
10009556:	f88c 4000 	strb.w	r4, [ip]
1000955a:	f100 0001 	add.w	r0, r0, #1
1000955e:	f10c 0c01 	add.w	ip, ip, #1
10009562:	d2ec      	bcs.n	1000953e <_vsnprintf+0x762>
10009564:	9c0a      	ldr	r4, [sp, #40]	@ 0x28
10009566:	e69c      	b.n	100092a2 <_vsnprintf+0x4c6>
10009568:	f108 0807 	add.w	r8, r8, #7
1000956c:	f028 0807 	bic.w	r8, r8, #7
10009570:	f8d8 2004 	ldr.w	r2, [r8, #4]
10009574:	f858 1b08 	ldr.w	r1, [r8], #8
10009578:	920a      	str	r2, [sp, #40]	@ 0x28
1000957a:	430a      	orrs	r2, r1
1000957c:	468e      	mov	lr, r1
1000957e:	d17b      	bne.n	10009678 <_vsnprintf+0x89c>
10009580:	9a09      	ldr	r2, [sp, #36]	@ 0x24
10009582:	f022 0210 	bic.w	r2, r2, #16
10009586:	9209      	str	r2, [sp, #36]	@ 0x24
10009588:	f1bc 0f00 	cmp.w	ip, #0
1000958c:	d074      	beq.n	10009678 <_vsnprintf+0x89c>
1000958e:	2000      	movs	r0, #0
10009590:	aa12      	add	r2, sp, #72	@ 0x48
10009592:	9909      	ldr	r1, [sp, #36]	@ 0x24
10009594:	e9cd 2000 	strd	r2, r0, [sp]
10009598:	e9cd 4105 	strd	r4, r1, [sp, #20]
1000959c:	4632      	mov	r2, r6
1000959e:	e9cd 3703 	strd	r3, r7, [sp, #12]
100095a2:	e53c      	b.n	1000901e <_vsnprintf+0x242>
100095a4:	428c      	cmp	r4, r1
100095a6:	bf98      	it	ls
100095a8:	3101      	addls	r1, #1
100095aa:	f67f ad79 	bls.w	100090a0 <_vsnprintf+0x2c4>
100095ae:	f44f 6380 	mov.w	r3, #1024	@ 0x400
100095b2:	e9cd 9409 	strd	r9, r4, [sp, #36]	@ 0x24
100095b6:	4699      	mov	r9, r3
100095b8:	19a2      	adds	r2, r4, r6
100095ba:	970b      	str	r7, [sp, #44]	@ 0x2c
100095bc:	9f08      	ldr	r7, [sp, #32]
100095be:	1a54      	subs	r4, r2, r1
100095c0:	4632      	mov	r2, r6
100095c2:	463b      	mov	r3, r7
100095c4:	4651      	mov	r1, sl
100095c6:	2020      	movs	r0, #32
100095c8:	3601      	adds	r6, #1
100095ca:	47d8      	blx	fp
100095cc:	42a6      	cmp	r6, r4
100095ce:	d1f7      	bne.n	100095c0 <_vsnprintf+0x7e4>
100095d0:	e9dd 470a 	ldrd	r4, r7, [sp, #40]	@ 0x28
100095d4:	464b      	mov	r3, r9
100095d6:	f8dd 9024 	ldr.w	r9, [sp, #36]	@ 0x24
100095da:	f899 0000 	ldrb.w	r0, [r9]
100095de:	2800      	cmp	r0, #0
100095e0:	f43f ac1a 	beq.w	10008e18 <_vsnprintf+0x3c>
100095e4:	1c61      	adds	r1, r4, #1
100095e6:	2b00      	cmp	r3, #0
100095e8:	f43f ae77 	beq.w	100092da <_vsnprintf+0x4fe>
100095ec:	2300      	movs	r3, #0
100095ee:	e557      	b.n	100090a0 <_vsnprintf+0x2c4>
100095f0:	428c      	cmp	r4, r1
100095f2:	d8de      	bhi.n	100095b2 <_vsnprintf+0x7d6>
100095f4:	3101      	adds	r1, #1
100095f6:	e670      	b.n	100092da <_vsnprintf+0x4fe>
100095f8:	f8d8 2000 	ldr.w	r2, [r8]
100095fc:	0fd1      	lsrs	r1, r2, #31
100095fe:	2a00      	cmp	r2, #0
10009600:	f000 80b3 	beq.w	1000976a <_vsnprintf+0x98e>
10009604:	ea82 73e2 	eor.w	r3, r2, r2, asr #31
10009608:	eba3 73e2 	sub.w	r3, r3, r2, asr #31
1000960c:	aa12      	add	r2, sp, #72	@ 0x48
1000960e:	4694      	mov	ip, r2
10009610:	e9cd 1409 	strd	r1, r4, [sp, #36]	@ 0x24
10009614:	f8df 8140 	ldr.w	r8, [pc, #320]	@ 10009758 <_vsnprintf+0x97c>
10009618:	e003      	b.n	10009622 <_vsnprintf+0x846>
1000961a:	f1be 0f20 	cmp.w	lr, #32
1000961e:	4623      	mov	r3, r4
10009620:	d00f      	beq.n	10009642 <_vsnprintf+0x866>
10009622:	fba8 1403 	umull	r1, r4, r8, r3
10009626:	08e4      	lsrs	r4, r4, #3
10009628:	eb04 0184 	add.w	r1, r4, r4, lsl #2
1000962c:	eba3 0141 	sub.w	r1, r3, r1, lsl #1
10009630:	f10c 0c01 	add.w	ip, ip, #1
10009634:	3130      	adds	r1, #48	@ 0x30
10009636:	2b09      	cmp	r3, #9
10009638:	f10e 0e01 	add.w	lr, lr, #1
1000963c:	f80c 1c01 	strb.w	r1, [ip, #-1]
10009640:	d8eb      	bhi.n	1000961a <_vsnprintf+0x83e>
10009642:	e9dd 1409 	ldrd	r1, r4, [sp, #36]	@ 0x24
10009646:	230a      	movs	r3, #10
10009648:	9200      	str	r2, [sp, #0]
1000964a:	e9cd 4005 	strd	r4, r0, [sp, #20]
1000964e:	4632      	mov	r2, r6
10009650:	e9cd e101 	strd	lr, r1, [sp, #4]
10009654:	9704      	str	r7, [sp, #16]
10009656:	9303      	str	r3, [sp, #12]
10009658:	e6d0      	b.n	100093fc <_vsnprintf+0x620>
1000965a:	2969      	cmp	r1, #105	@ 0x69
1000965c:	f022 0010 	bic.w	r0, r2, #16
10009660:	f040 8091 	bne.w	10009786 <_vsnprintf+0x9aa>
10009664:	f412 6380 	ands.w	r3, r2, #1024	@ 0x400
10009668:	f43f ae86 	beq.w	10009378 <_vsnprintf+0x59c>
1000966c:	e680      	b.n	10009370 <_vsnprintf+0x594>
1000966e:	2b00      	cmp	r3, #0
10009670:	f43f ae9f 	beq.w	100093b2 <_vsnprintf+0x5d6>
10009674:	aa12      	add	r2, sp, #72	@ 0x48
10009676:	e6b7      	b.n	100093e8 <_vsnprintf+0x60c>
10009678:	9a09      	ldr	r2, [sp, #36]	@ 0x24
1000967a:	e9cd 840b 	strd	r8, r4, [sp, #44]	@ 0x2c
1000967e:	f012 0f20 	tst.w	r2, #32
10009682:	bf14      	ite	ne
10009684:	2141      	movne	r1, #65	@ 0x41
10009686:	2161      	moveq	r1, #97	@ 0x61
10009688:	e9cd 760d 	strd	r7, r6, [sp, #52]	@ 0x34
1000968c:	e9cd 3b0f 	strd	r3, fp, [sp, #60]	@ 0x3c
10009690:	f8cd a044 	str.w	sl, [sp, #68]	@ 0x44
10009694:	2700      	movs	r7, #0
10009696:	46f0      	mov	r8, lr
10009698:	9c0a      	ldr	r4, [sp, #40]	@ 0x28
1000969a:	ae12      	add	r6, sp, #72	@ 0x48
1000969c:	f10d 0b48 	add.w	fp, sp, #72	@ 0x48
100096a0:	f1a1 0a0a 	sub.w	sl, r1, #10
100096a4:	e003      	b.n	100096ae <_vsnprintf+0x8d2>
100096a6:	2f20      	cmp	r7, #32
100096a8:	4680      	mov	r8, r0
100096aa:	460c      	mov	r4, r1
100096ac:	d013      	beq.n	100096d6 <_vsnprintf+0x8fa>
100096ae:	4621      	mov	r1, r4
100096b0:	464a      	mov	r2, r9
100096b2:	2300      	movs	r3, #0
100096b4:	4640      	mov	r0, r8
100096b6:	f001 fdf7 	bl	1000b2a8 <____aeabi_uldivmod_veneer>
100096ba:	b2d2      	uxtb	r2, r2
100096bc:	2a09      	cmp	r2, #9
100096be:	bf94      	ite	ls
100096c0:	3230      	addls	r2, #48	@ 0x30
100096c2:	4452      	addhi	r2, sl
100096c4:	45c8      	cmp	r8, r9
100096c6:	f174 0400 	sbcs.w	r4, r4, #0
100096ca:	7032      	strb	r2, [r6, #0]
100096cc:	f107 0701 	add.w	r7, r7, #1
100096d0:	f106 0601 	add.w	r6, r6, #1
100096d4:	d2e7      	bcs.n	100096a6 <_vsnprintf+0x8ca>
100096d6:	4638      	mov	r0, r7
100096d8:	e9dd 840b 	ldrd	r8, r4, [sp, #44]	@ 0x2c
100096dc:	465a      	mov	r2, fp
100096de:	9e0e      	ldr	r6, [sp, #56]	@ 0x38
100096e0:	9f0d      	ldr	r7, [sp, #52]	@ 0x34
100096e2:	9b0f      	ldr	r3, [sp, #60]	@ 0x3c
100096e4:	f8dd a044 	ldr.w	sl, [sp, #68]	@ 0x44
100096e8:	f8dd b040 	ldr.w	fp, [sp, #64]	@ 0x40
100096ec:	e751      	b.n	10009592 <_vsnprintf+0x7b6>
100096ee:	f8d8 e000 	ldr.w	lr, [r8]
100096f2:	f1be 0f00 	cmp.w	lr, #0
100096f6:	d10d      	bne.n	10009714 <_vsnprintf+0x938>
100096f8:	f022 0210 	bic.w	r2, r2, #16
100096fc:	9209      	str	r2, [sp, #36]	@ 0x24
100096fe:	f1bc 0f00 	cmp.w	ip, #0
10009702:	d007      	beq.n	10009714 <_vsnprintf+0x938>
10009704:	aa12      	add	r2, sp, #72	@ 0x48
10009706:	9809      	ldr	r0, [sp, #36]	@ 0x24
10009708:	e9cd 3703 	strd	r3, r7, [sp, #12]
1000970c:	e9cd 4005 	strd	r4, r0, [sp, #20]
10009710:	9101      	str	r1, [sp, #4]
10009712:	e5cc      	b.n	100092ae <_vsnprintf+0x4d2>
10009714:	9a09      	ldr	r2, [sp, #36]	@ 0x24
10009716:	f012 0f20 	tst.w	r2, #32
1000971a:	bf14      	ite	ne
1000971c:	2041      	movne	r0, #65	@ 0x41
1000971e:	2061      	moveq	r0, #97	@ 0x61
10009720:	aa12      	add	r2, sp, #72	@ 0x48
10009722:	4694      	mov	ip, r2
10009724:	920a      	str	r2, [sp, #40]	@ 0x28
10009726:	f1a0 020a 	sub.w	r2, r0, #10
1000972a:	e002      	b.n	10009732 <_vsnprintf+0x956>
1000972c:	2920      	cmp	r1, #32
1000972e:	46c6      	mov	lr, r8
10009730:	d00f      	beq.n	10009752 <_vsnprintf+0x976>
10009732:	fbbe f8f3 	udiv	r8, lr, r3
10009736:	fb03 e018 	mls	r0, r3, r8, lr
1000973a:	2809      	cmp	r0, #9
1000973c:	bf94      	ite	ls
1000973e:	3030      	addls	r0, #48	@ 0x30
10009740:	1880      	addhi	r0, r0, r2
10009742:	459e      	cmp	lr, r3
10009744:	f88c 0000 	strb.w	r0, [ip]
10009748:	f101 0101 	add.w	r1, r1, #1
1000974c:	f10c 0c01 	add.w	ip, ip, #1
10009750:	d2ec      	bcs.n	1000972c <_vsnprintf+0x950>
10009752:	9a0a      	ldr	r2, [sp, #40]	@ 0x28
10009754:	e7d7      	b.n	10009706 <_vsnprintf+0x92a>
10009756:	bf00      	nop
10009758:	cccccccd 	.word	0xcccccccd
1000975c:	f8d8 2000 	ldr.w	r2, [r8]
10009760:	ea82 7ee2 	eor.w	lr, r2, r2, asr #31
10009764:	ebae 7ee2 	sub.w	lr, lr, r2, asr #31
10009768:	e61d      	b.n	100093a6 <_vsnprintf+0x5ca>
1000976a:	2b00      	cmp	r3, #0
1000976c:	f43f af4e 	beq.w	1000960c <_vsnprintf+0x830>
10009770:	aa12      	add	r2, sp, #72	@ 0x48
10009772:	e768      	b.n	10009646 <_vsnprintf+0x86a>
10009774:	f412 6180 	ands.w	r1, r2, #1024	@ 0x400
10009778:	d00e      	beq.n	10009798 <_vsnprintf+0x9bc>
1000977a:	f012 0102 	ands.w	r1, r2, #2
1000977e:	d014      	beq.n	100097aa <_vsnprintf+0x9ce>
10009780:	4601      	mov	r1, r0
10009782:	4637      	mov	r7, r6
10009784:	e4a7      	b.n	100090d6 <_vsnprintf+0x2fa>
10009786:	f04f 090a 	mov.w	r9, #10
1000978a:	4602      	mov	r2, r0
1000978c:	464b      	mov	r3, r9
1000978e:	e565      	b.n	1000925c <_vsnprintf+0x480>
10009790:	2300      	movs	r3, #0
10009792:	aa12      	add	r2, sp, #72	@ 0x48
10009794:	9309      	str	r3, [sp, #36]	@ 0x24
10009796:	e69a      	b.n	100094ce <_vsnprintf+0x6f2>
10009798:	f012 0302 	ands.w	r3, r2, #2
1000979c:	f47f ac9a 	bne.w	100090d4 <_vsnprintf+0x2f8>
100097a0:	2c00      	cmp	r4, #0
100097a2:	f47f af06 	bne.w	100095b2 <_vsnprintf+0x7d6>
100097a6:	f7ff bb37 	b.w	10008e18 <_vsnprintf+0x3c>
100097aa:	2c00      	cmp	r4, #0
100097ac:	f47f aeff 	bne.w	100095ae <_vsnprintf+0x7d2>
100097b0:	f7ff bb32 	b.w	10008e18 <_vsnprintf+0x3c>

100097b4 <vfctprintf>:
100097b4:	468c      	mov	ip, r1
100097b6:	b510      	push	{r4, lr}
100097b8:	b084      	sub	sp, #16
100097ba:	9300      	str	r3, [sp, #0]
100097bc:	9002      	str	r0, [sp, #8]
100097be:	4613      	mov	r3, r2
100097c0:	a902      	add	r1, sp, #8
100097c2:	f04f 32ff 	mov.w	r2, #4294967295	@ 0xffffffff
100097c6:	4803      	ldr	r0, [pc, #12]	@ (100097d4 <vfctprintf+0x20>)
100097c8:	f8cd c00c 	str.w	ip, [sp, #12]
100097cc:	f7ff fb06 	bl	10008ddc <_vsnprintf>
100097d0:	b004      	add	sp, #16
100097d2:	bd10      	pop	{r4, pc}
100097d4:	100083b5 	.word	0x100083b5

100097d8 <weak_raw_vprintf>:
100097d8:	b510      	push	{r4, lr}
100097da:	4a09      	ldr	r2, [pc, #36]	@ (10009800 <weak_raw_vprintf+0x28>)
100097dc:	b084      	sub	sp, #16
100097de:	6814      	ldr	r4, [r2, #0]
100097e0:	b14c      	cbz	r4, 100097f6 <weak_raw_vprintf+0x1e>
100097e2:	4603      	mov	r3, r0
100097e4:	9100      	str	r1, [sp, #0]
100097e6:	f04f 32ff 	mov.w	r2, #4294967295	@ 0xffffffff
100097ea:	a903      	add	r1, sp, #12
100097ec:	4805      	ldr	r0, [pc, #20]	@ (10009804 <weak_raw_vprintf+0x2c>)
100097ee:	47a0      	blx	r4
100097f0:	2001      	movs	r0, #1
100097f2:	b004      	add	sp, #16
100097f4:	bd10      	pop	{r4, pc}
100097f6:	f000 f97f 	bl	10009af8 <__wrap_puts>
100097fa:	4620      	mov	r0, r4
100097fc:	b004      	add	sp, #16
100097fe:	bd10      	pop	{r4, pc}
10009800:	20008ae0 	.word	0x20008ae0
10009804:	100083ad 	.word	0x100083ad

10009808 <_exit>:
10009808:	be00      	bkpt	0x0000
1000980a:	e7fd      	b.n	10009808 <_exit>

1000980c <_sbrk>:
1000980c:	4a07      	ldr	r2, [pc, #28]	@ (1000982c <_sbrk+0x20>)
1000980e:	4603      	mov	r3, r0
10009810:	6810      	ldr	r0, [r2, #0]
10009812:	b138      	cbz	r0, 10009824 <_sbrk+0x18>
10009814:	4906      	ldr	r1, [pc, #24]	@ (10009830 <_sbrk+0x24>)
10009816:	4403      	add	r3, r0
10009818:	428b      	cmp	r3, r1
1000981a:	bf8c      	ite	hi
1000981c:	f04f 30ff 	movhi.w	r0, #4294967295	@ 0xffffffff
10009820:	6013      	strls	r3, [r2, #0]
10009822:	4770      	bx	lr
10009824:	4903      	ldr	r1, [pc, #12]	@ (10009834 <_sbrk+0x28>)
10009826:	4608      	mov	r0, r1
10009828:	6011      	str	r1, [r2, #0]
1000982a:	e7f3      	b.n	10009814 <_sbrk+0x8>
1000982c:	20008ad8 	.word	0x20008ad8
10009830:	20080000 	.word	0x20080000
10009834:	2001f3d4 	.word	0x2001f3d4

10009838 <exit>:
10009838:	b508      	push	{r3, lr}
1000983a:	f7ff ffe5 	bl	10009808 <_exit>
1000983e:	bf00      	nop

10009840 <runtime_init>:
10009840:	b538      	push	{r3, r4, r5, lr}
10009842:	4c06      	ldr	r4, [pc, #24]	@ (1000985c <runtime_init+0x1c>)
10009844:	4d06      	ldr	r5, [pc, #24]	@ (10009860 <runtime_init+0x20>)
10009846:	f7fd f911 	bl	10006a6c <runtime_run_initializers>
1000984a:	42ac      	cmp	r4, r5
1000984c:	d204      	bcs.n	10009858 <runtime_init+0x18>
1000984e:	f854 3b04 	ldr.w	r3, [r4], #4
10009852:	4798      	blx	r3
10009854:	42ac      	cmp	r4, r5
10009856:	d3fa      	bcc.n	1000984e <runtime_init+0xe>
10009858:	bd38      	pop	{r3, r4, r5, pc}
1000985a:	bf00      	nop
1000985c:	1000b318 	.word	0x1000b318
10009860:	1000b31c 	.word	0x1000b31c

10009864 <stdio_out_chars_no_crlf>:
10009864:	6803      	ldr	r3, [r0, #0]
10009866:	4608      	mov	r0, r1
10009868:	4611      	mov	r1, r2
1000986a:	4718      	bx	r3

1000986c <stdio_out_chars_crlf>:
1000986c:	b570      	push	{r4, r5, r6, lr}
1000986e:	4605      	mov	r5, r0
10009870:	4608      	mov	r0, r1
10009872:	7d69      	ldrb	r1, [r5, #21]
10009874:	b082      	sub	sp, #8
10009876:	2900      	cmp	r1, #0
10009878:	d04f      	beq.n	1000991a <stdio_out_chars_crlf+0xae>
1000987a:	2a00      	cmp	r2, #0
1000987c:	dd25      	ble.n	100098ca <stdio_out_chars_crlf+0x5e>
1000987e:	7803      	ldrb	r3, [r0, #0]
10009880:	4614      	mov	r4, r2
10009882:	2b0a      	cmp	r3, #10
10009884:	4606      	mov	r6, r0
10009886:	d022      	beq.n	100098ce <stdio_out_chars_crlf+0x62>
10009888:	2c01      	cmp	r4, #1
1000988a:	f04f 0e00 	mov.w	lr, #0
1000988e:	d00d      	beq.n	100098ac <stdio_out_chars_crlf+0x40>
10009890:	4632      	mov	r2, r6
10009892:	2301      	movs	r3, #1
10009894:	f812 cf01 	ldrb.w	ip, [r2, #1]!
10009898:	4619      	mov	r1, r3
1000989a:	f1bc 0f0a 	cmp.w	ip, #10
1000989e:	f103 0301 	add.w	r3, r3, #1
100098a2:	d020      	beq.n	100098e6 <stdio_out_chars_crlf+0x7a>
100098a4:	429c      	cmp	r4, r3
100098a6:	d1f5      	bne.n	10009894 <stdio_out_chars_crlf+0x28>
100098a8:	4574      	cmp	r4, lr
100098aa:	dd05      	ble.n	100098b8 <stdio_out_chars_crlf+0x4c>
100098ac:	682b      	ldr	r3, [r5, #0]
100098ae:	eba4 010e 	sub.w	r1, r4, lr
100098b2:	eb06 000e 	add.w	r0, r6, lr
100098b6:	4798      	blx	r3
100098b8:	1931      	adds	r1, r6, r4
100098ba:	f811 3c01 	ldrb.w	r3, [r1, #-1]
100098be:	f1a3 030d 	sub.w	r3, r3, #13
100098c2:	fab3 f383 	clz	r3, r3
100098c6:	095b      	lsrs	r3, r3, #5
100098c8:	752b      	strb	r3, [r5, #20]
100098ca:	b002      	add	sp, #8
100098cc:	bd70      	pop	{r4, r5, r6, pc}
100098ce:	7d2b      	ldrb	r3, [r5, #20]
100098d0:	2b00      	cmp	r3, #0
100098d2:	d1d9      	bne.n	10009888 <stdio_out_chars_crlf+0x1c>
100098d4:	2102      	movs	r1, #2
100098d6:	682b      	ldr	r3, [r5, #0]
100098d8:	4813      	ldr	r0, [pc, #76]	@ (10009928 <stdio_out_chars_crlf+0xbc>)
100098da:	4798      	blx	r3
100098dc:	2c01      	cmp	r4, #1
100098de:	d0eb      	beq.n	100098b8 <stdio_out_chars_crlf+0x4c>
100098e0:	f04f 0e01 	mov.w	lr, #1
100098e4:	e7d4      	b.n	10009890 <stdio_out_chars_crlf+0x24>
100098e6:	f812 0c01 	ldrb.w	r0, [r2, #-1]
100098ea:	280d      	cmp	r0, #13
100098ec:	d0da      	beq.n	100098a4 <stdio_out_chars_crlf+0x38>
100098ee:	458e      	cmp	lr, r1
100098f0:	eb06 000e 	add.w	r0, r6, lr
100098f4:	eba1 010e 	sub.w	r1, r1, lr
100098f8:	da05      	bge.n	10009906 <stdio_out_chars_crlf+0x9a>
100098fa:	e9cd 3200 	strd	r3, r2, [sp]
100098fe:	682b      	ldr	r3, [r5, #0]
10009900:	4798      	blx	r3
10009902:	e9dd 3200 	ldrd	r3, r2, [sp]
10009906:	e9cd 3200 	strd	r3, r2, [sp]
1000990a:	2102      	movs	r1, #2
1000990c:	682b      	ldr	r3, [r5, #0]
1000990e:	4806      	ldr	r0, [pc, #24]	@ (10009928 <stdio_out_chars_crlf+0xbc>)
10009910:	4798      	blx	r3
10009912:	9b00      	ldr	r3, [sp, #0]
10009914:	9a01      	ldr	r2, [sp, #4]
10009916:	469e      	mov	lr, r3
10009918:	e7c4      	b.n	100098a4 <stdio_out_chars_crlf+0x38>
1000991a:	4611      	mov	r1, r2
1000991c:	682b      	ldr	r3, [r5, #0]
1000991e:	b002      	add	sp, #8
10009920:	e8bd 4070 	ldmia.w	sp!, {r4, r5, r6, lr}
10009924:	4718      	bx	r3
10009926:	bf00      	nop
10009928:	10018328 	.word	0x10018328

1000992c <stdio_buffered_printer>:
1000992c:	b570      	push	{r4, r5, r6, lr}
1000992e:	680b      	ldr	r3, [r1, #0]
10009930:	460c      	mov	r4, r1
10009932:	2b80      	cmp	r3, #128	@ 0x80
10009934:	4605      	mov	r5, r0
10009936:	b082      	sub	sp, #8
10009938:	d005      	beq.n	10009946 <stdio_buffered_printer+0x1a>
1000993a:	1c5a      	adds	r2, r3, #1
1000993c:	4423      	add	r3, r4
1000993e:	6022      	str	r2, [r4, #0]
10009940:	711d      	strb	r5, [r3, #4]
10009942:	b002      	add	sp, #8
10009944:	bd70      	pop	{r4, r5, r6, pc}
10009946:	4b0e      	ldr	r3, [pc, #56]	@ (10009980 <stdio_buffered_printer+0x54>)
10009948:	6818      	ldr	r0, [r3, #0]
1000994a:	b978      	cbnz	r0, 1000996c <stdio_buffered_printer+0x40>
1000994c:	2300      	movs	r3, #0
1000994e:	2201      	movs	r2, #1
10009950:	4423      	add	r3, r4
10009952:	6022      	str	r2, [r4, #0]
10009954:	711d      	strb	r5, [r3, #4]
10009956:	b002      	add	sp, #8
10009958:	bd70      	pop	{r4, r5, r6, pc}
1000995a:	6822      	ldr	r2, [r4, #0]
1000995c:	1d21      	adds	r1, r4, #4
1000995e:	9001      	str	r0, [sp, #4]
10009960:	f7ff ff84 	bl	1000986c <stdio_out_chars_crlf>
10009964:	9801      	ldr	r0, [sp, #4]
10009966:	6900      	ldr	r0, [r0, #16]
10009968:	2800      	cmp	r0, #0
1000996a:	d0ef      	beq.n	1000994c <stdio_buffered_printer+0x20>
1000996c:	6803      	ldr	r3, [r0, #0]
1000996e:	2b00      	cmp	r3, #0
10009970:	d0f9      	beq.n	10009966 <stdio_buffered_printer+0x3a>
10009972:	4b04      	ldr	r3, [pc, #16]	@ (10009984 <stdio_buffered_printer+0x58>)
10009974:	681b      	ldr	r3, [r3, #0]
10009976:	2b00      	cmp	r3, #0
10009978:	d0ef      	beq.n	1000995a <stdio_buffered_printer+0x2e>
1000997a:	4283      	cmp	r3, r0
1000997c:	d1f3      	bne.n	10009966 <stdio_buffered_printer+0x3a>
1000997e:	e7ec      	b.n	1000995a <stdio_buffered_printer+0x2e>
10009980:	20008ac8 	.word	0x20008ac8
10009984:	20008ad0 	.word	0x20008ad0

10009988 <stdio_put_string>:
10009988:	e92d 47f0 	stmdb	sp!, {r4, r5, r6, r7, r8, r9, sl, lr}
1000998c:	b082      	sub	sp, #8
1000998e:	4690      	mov	r8, r2
10009990:	461c      	mov	r4, r3
10009992:	460d      	mov	r5, r1
10009994:	4607      	mov	r7, r0
10009996:	f7fc fcf1 	bl	1000637c <time_us_64>
1000999a:	f04f 3cff 	mov.w	ip, #4294967295	@ 0xffffffff
1000999e:	f06f 4600 	mvn.w	r6, #2147483648	@ 0x80000000
100099a2:	4a2e      	ldr	r2, [pc, #184]	@ (10009a5c <stdio_put_string+0xd4>)
100099a4:	1882      	adds	r2, r0, r2
100099a6:	f141 0300 	adc.w	r3, r1, #0
100099aa:	4594      	cmp	ip, r2
100099ac:	eb76 0103 	sbcs.w	r1, r6, r3
100099b0:	bf3c      	itt	cc
100099b2:	4662      	movcc	r2, ip
100099b4:	4633      	movcc	r3, r6
100099b6:	482a      	ldr	r0, [pc, #168]	@ (10009a60 <stdio_put_string+0xd8>)
100099b8:	f001 fc8a 	bl	1000b2d0 <__mutex_try_enter_block_until_veneer>
100099bc:	1c6b      	adds	r3, r5, #1
100099be:	4682      	mov	sl, r0
100099c0:	d040      	beq.n	10009a44 <stdio_put_string+0xbc>
100099c2:	b30c      	cbz	r4, 10009a08 <stdio_put_string+0x80>
100099c4:	4e27      	ldr	r6, [pc, #156]	@ (10009a64 <stdio_put_string+0xdc>)
100099c6:	4b28      	ldr	r3, [pc, #160]	@ (10009a68 <stdio_put_string+0xe0>)
100099c8:	681c      	ldr	r4, [r3, #0]
100099ca:	b1b4      	cbz	r4, 100099fa <stdio_put_string+0x72>
100099cc:	f1b8 0f00 	cmp.w	r8, #0
100099d0:	d11c      	bne.n	10009a0c <stdio_put_string+0x84>
100099d2:	f8df 809c 	ldr.w	r8, [pc, #156]	@ 10009a70 <stdio_put_string+0xe8>
100099d6:	e001      	b.n	100099dc <stdio_put_string+0x54>
100099d8:	6924      	ldr	r4, [r4, #16]
100099da:	b174      	cbz	r4, 100099fa <stdio_put_string+0x72>
100099dc:	6823      	ldr	r3, [r4, #0]
100099de:	2b00      	cmp	r3, #0
100099e0:	d0fa      	beq.n	100099d8 <stdio_put_string+0x50>
100099e2:	f8d8 3000 	ldr.w	r3, [r8]
100099e6:	b10b      	cbz	r3, 100099ec <stdio_put_string+0x64>
100099e8:	429c      	cmp	r4, r3
100099ea:	d1f5      	bne.n	100099d8 <stdio_put_string+0x50>
100099ec:	4620      	mov	r0, r4
100099ee:	462a      	mov	r2, r5
100099f0:	4639      	mov	r1, r7
100099f2:	47b0      	blx	r6
100099f4:	6924      	ldr	r4, [r4, #16]
100099f6:	2c00      	cmp	r4, #0
100099f8:	d1f0      	bne.n	100099dc <stdio_put_string+0x54>
100099fa:	f1ba 0f00 	cmp.w	sl, #0
100099fe:	d126      	bne.n	10009a4e <stdio_put_string+0xc6>
10009a00:	4628      	mov	r0, r5
10009a02:	b002      	add	sp, #8
10009a04:	e8bd 87f0 	ldmia.w	sp!, {r4, r5, r6, r7, r8, r9, sl, pc}
10009a08:	4e18      	ldr	r6, [pc, #96]	@ (10009a6c <stdio_put_string+0xe4>)
10009a0a:	e7dc      	b.n	100099c6 <stdio_put_string+0x3e>
10009a0c:	f04f 090a 	mov.w	r9, #10
10009a10:	f8df 805c 	ldr.w	r8, [pc, #92]	@ 10009a70 <stdio_put_string+0xe8>
10009a14:	e002      	b.n	10009a1c <stdio_put_string+0x94>
10009a16:	6924      	ldr	r4, [r4, #16]
10009a18:	2c00      	cmp	r4, #0
10009a1a:	d0ee      	beq.n	100099fa <stdio_put_string+0x72>
10009a1c:	6823      	ldr	r3, [r4, #0]
10009a1e:	2b00      	cmp	r3, #0
10009a20:	d0f9      	beq.n	10009a16 <stdio_put_string+0x8e>
10009a22:	f8d8 3000 	ldr.w	r3, [r8]
10009a26:	b10b      	cbz	r3, 10009a2c <stdio_put_string+0xa4>
10009a28:	42a3      	cmp	r3, r4
10009a2a:	d1f4      	bne.n	10009a16 <stdio_put_string+0x8e>
10009a2c:	462a      	mov	r2, r5
10009a2e:	4639      	mov	r1, r7
10009a30:	4620      	mov	r0, r4
10009a32:	47b0      	blx	r6
10009a34:	2201      	movs	r2, #1
10009a36:	4620      	mov	r0, r4
10009a38:	f10d 0107 	add.w	r1, sp, #7
10009a3c:	f88d 9007 	strb.w	r9, [sp, #7]
10009a40:	47b0      	blx	r6
10009a42:	e7e8      	b.n	10009a16 <stdio_put_string+0x8e>
10009a44:	4638      	mov	r0, r7
10009a46:	f001 fa9b 	bl	1000af80 <strlen>
10009a4a:	4605      	mov	r5, r0
10009a4c:	e7b9      	b.n	100099c2 <stdio_put_string+0x3a>
10009a4e:	4804      	ldr	r0, [pc, #16]	@ (10009a60 <stdio_put_string+0xd8>)
10009a50:	f001 fc2e 	bl	1000b2b0 <__mutex_exit_veneer>
10009a54:	4628      	mov	r0, r5
10009a56:	b002      	add	sp, #8
10009a58:	e8bd 87f0 	ldmia.w	sp!, {r4, r5, r6, r7, r8, r9, sl, pc}
10009a5c:	000f4240 	.word	0x000f4240
10009a60:	200019f8 	.word	0x200019f8
10009a64:	1000986d 	.word	0x1000986d
10009a68:	20008ac8 	.word	0x20008ac8
10009a6c:	10009865 	.word	0x10009865
10009a70:	20008ad0 	.word	0x20008ad0

10009a74 <__wrap_putchar>:
10009a74:	b5f0      	push	{r4, r5, r6, r7, lr}
10009a76:	b083      	sub	sp, #12
10009a78:	4606      	mov	r6, r0
10009a7a:	f88d 0007 	strb.w	r0, [sp, #7]
10009a7e:	f7fc fc7d 	bl	1000637c <time_us_64>
10009a82:	f04f 35ff 	mov.w	r5, #4294967295	@ 0xffffffff
10009a86:	f06f 4400 	mvn.w	r4, #2147483648	@ 0x80000000
10009a8a:	4a17      	ldr	r2, [pc, #92]	@ (10009ae8 <__wrap_putchar+0x74>)
10009a8c:	1882      	adds	r2, r0, r2
10009a8e:	f141 0300 	adc.w	r3, r1, #0
10009a92:	4295      	cmp	r5, r2
10009a94:	eb74 0103 	sbcs.w	r1, r4, r3
10009a98:	bf3c      	itt	cc
10009a9a:	4623      	movcc	r3, r4
10009a9c:	462a      	movcc	r2, r5
10009a9e:	4813      	ldr	r0, [pc, #76]	@ (10009aec <__wrap_putchar+0x78>)
10009aa0:	f001 fc16 	bl	1000b2d0 <__mutex_try_enter_block_until_veneer>
10009aa4:	4b12      	ldr	r3, [pc, #72]	@ (10009af0 <__wrap_putchar+0x7c>)
10009aa6:	4607      	mov	r7, r0
10009aa8:	681c      	ldr	r4, [r3, #0]
10009aaa:	b19c      	cbz	r4, 10009ad4 <__wrap_putchar+0x60>
10009aac:	4d11      	ldr	r5, [pc, #68]	@ (10009af4 <__wrap_putchar+0x80>)
10009aae:	e001      	b.n	10009ab4 <__wrap_putchar+0x40>
10009ab0:	6924      	ldr	r4, [r4, #16]
10009ab2:	b17c      	cbz	r4, 10009ad4 <__wrap_putchar+0x60>
10009ab4:	6823      	ldr	r3, [r4, #0]
10009ab6:	2b00      	cmp	r3, #0
10009ab8:	d0fa      	beq.n	10009ab0 <__wrap_putchar+0x3c>
10009aba:	682b      	ldr	r3, [r5, #0]
10009abc:	b10b      	cbz	r3, 10009ac2 <__wrap_putchar+0x4e>
10009abe:	429c      	cmp	r4, r3
10009ac0:	d1f6      	bne.n	10009ab0 <__wrap_putchar+0x3c>
10009ac2:	4620      	mov	r0, r4
10009ac4:	2201      	movs	r2, #1
10009ac6:	f10d 0107 	add.w	r1, sp, #7
10009aca:	f7ff fecf 	bl	1000986c <stdio_out_chars_crlf>
10009ace:	6924      	ldr	r4, [r4, #16]
10009ad0:	2c00      	cmp	r4, #0
10009ad2:	d1ef      	bne.n	10009ab4 <__wrap_putchar+0x40>
10009ad4:	b917      	cbnz	r7, 10009adc <__wrap_putchar+0x68>
10009ad6:	4630      	mov	r0, r6
10009ad8:	b003      	add	sp, #12
10009ada:	bdf0      	pop	{r4, r5, r6, r7, pc}
10009adc:	4803      	ldr	r0, [pc, #12]	@ (10009aec <__wrap_putchar+0x78>)
10009ade:	f001 fbe7 	bl	1000b2b0 <__mutex_exit_veneer>
10009ae2:	4630      	mov	r0, r6
10009ae4:	b003      	add	sp, #12
10009ae6:	bdf0      	pop	{r4, r5, r6, r7, pc}
10009ae8:	000f4240 	.word	0x000f4240
10009aec:	200019f8 	.word	0x200019f8
10009af0:	20008ac8 	.word	0x20008ac8
10009af4:	20008ad0 	.word	0x20008ad0

10009af8 <__wrap_puts>:
10009af8:	b538      	push	{r3, r4, r5, lr}
10009afa:	4604      	mov	r4, r0
10009afc:	f001 fa40 	bl	1000af80 <strlen>
10009b00:	2301      	movs	r3, #1
10009b02:	4605      	mov	r5, r0
10009b04:	461a      	mov	r2, r3
10009b06:	4620      	mov	r0, r4
10009b08:	4629      	mov	r1, r5
10009b0a:	f7ff ff3d 	bl	10009988 <stdio_put_string>
10009b0e:	4b08      	ldr	r3, [pc, #32]	@ (10009b30 <__wrap_puts+0x38>)
10009b10:	681c      	ldr	r4, [r3, #0]
10009b12:	b12c      	cbz	r4, 10009b20 <__wrap_puts+0x28>
10009b14:	6863      	ldr	r3, [r4, #4]
10009b16:	b12b      	cbz	r3, 10009b24 <__wrap_puts+0x2c>
10009b18:	4798      	blx	r3
10009b1a:	6924      	ldr	r4, [r4, #16]
10009b1c:	2c00      	cmp	r4, #0
10009b1e:	d1f9      	bne.n	10009b14 <__wrap_puts+0x1c>
10009b20:	4628      	mov	r0, r5
10009b22:	bd38      	pop	{r3, r4, r5, pc}
10009b24:	6924      	ldr	r4, [r4, #16]
10009b26:	2c00      	cmp	r4, #0
10009b28:	d1f4      	bne.n	10009b14 <__wrap_puts+0x1c>
10009b2a:	4628      	mov	r0, r5
10009b2c:	bd38      	pop	{r3, r4, r5, pc}
10009b2e:	bf00      	nop
10009b30:	20008ac8 	.word	0x20008ac8

10009b34 <__wrap_vprintf>:
10009b34:	e92d 41f0 	stmdb	sp!, {r4, r5, r6, r7, r8, lr}
10009b38:	b0a2      	sub	sp, #136	@ 0x88
10009b3a:	460e      	mov	r6, r1
10009b3c:	4605      	mov	r5, r0
10009b3e:	f7fc fc1d 	bl	1000637c <time_us_64>
10009b42:	f04f 3cff 	mov.w	ip, #4294967295	@ 0xffffffff
10009b46:	f06f 4400 	mvn.w	r4, #2147483648	@ 0x80000000
10009b4a:	4a25      	ldr	r2, [pc, #148]	@ (10009be0 <__wrap_vprintf+0xac>)
10009b4c:	1882      	adds	r2, r0, r2
10009b4e:	f141 0300 	adc.w	r3, r1, #0
10009b52:	4594      	cmp	ip, r2
10009b54:	eb74 0103 	sbcs.w	r1, r4, r3
10009b58:	bf3c      	itt	cc
10009b5a:	4623      	movcc	r3, r4
10009b5c:	4662      	movcc	r2, ip
10009b5e:	4821      	ldr	r0, [pc, #132]	@ (10009be4 <__wrap_vprintf+0xb0>)
10009b60:	f001 fbb6 	bl	1000b2d0 <__mutex_try_enter_block_until_veneer>
10009b64:	2400      	movs	r4, #0
10009b66:	4633      	mov	r3, r6
10009b68:	4607      	mov	r7, r0
10009b6a:	462a      	mov	r2, r5
10009b6c:	481e      	ldr	r0, [pc, #120]	@ (10009be8 <__wrap_vprintf+0xb4>)
10009b6e:	a901      	add	r1, sp, #4
10009b70:	9401      	str	r4, [sp, #4]
10009b72:	f7ff fe1f 	bl	100097b4 <vfctprintf>
10009b76:	4e1d      	ldr	r6, [pc, #116]	@ (10009bec <__wrap_vprintf+0xb8>)
10009b78:	9b01      	ldr	r3, [sp, #4]
10009b7a:	4680      	mov	r8, r0
10009b7c:	6834      	ldr	r4, [r6, #0]
10009b7e:	b1bb      	cbz	r3, 10009bb0 <__wrap_vprintf+0x7c>
10009b80:	2c00      	cmp	r4, #0
10009b82:	d02a      	beq.n	10009bda <__wrap_vprintf+0xa6>
10009b84:	4d1a      	ldr	r5, [pc, #104]	@ (10009bf0 <__wrap_vprintf+0xbc>)
10009b86:	e001      	b.n	10009b8c <__wrap_vprintf+0x58>
10009b88:	6924      	ldr	r4, [r4, #16]
10009b8a:	b174      	cbz	r4, 10009baa <__wrap_vprintf+0x76>
10009b8c:	6823      	ldr	r3, [r4, #0]
10009b8e:	2b00      	cmp	r3, #0
10009b90:	d0fa      	beq.n	10009b88 <__wrap_vprintf+0x54>
10009b92:	682b      	ldr	r3, [r5, #0]
10009b94:	b10b      	cbz	r3, 10009b9a <__wrap_vprintf+0x66>
10009b96:	42a3      	cmp	r3, r4
10009b98:	d1f6      	bne.n	10009b88 <__wrap_vprintf+0x54>
10009b9a:	4620      	mov	r0, r4
10009b9c:	9a01      	ldr	r2, [sp, #4]
10009b9e:	a902      	add	r1, sp, #8
10009ba0:	f7ff fe64 	bl	1000986c <stdio_out_chars_crlf>
10009ba4:	6924      	ldr	r4, [r4, #16]
10009ba6:	2c00      	cmp	r4, #0
10009ba8:	d1f0      	bne.n	10009b8c <__wrap_vprintf+0x58>
10009baa:	4623      	mov	r3, r4
10009bac:	6834      	ldr	r4, [r6, #0]
10009bae:	9301      	str	r3, [sp, #4]
10009bb0:	b12c      	cbz	r4, 10009bbe <__wrap_vprintf+0x8a>
10009bb2:	6863      	ldr	r3, [r4, #4]
10009bb4:	b143      	cbz	r3, 10009bc8 <__wrap_vprintf+0x94>
10009bb6:	4798      	blx	r3
10009bb8:	6924      	ldr	r4, [r4, #16]
10009bba:	2c00      	cmp	r4, #0
10009bbc:	d1f9      	bne.n	10009bb2 <__wrap_vprintf+0x7e>
10009bbe:	b92f      	cbnz	r7, 10009bcc <__wrap_vprintf+0x98>
10009bc0:	4640      	mov	r0, r8
10009bc2:	b022      	add	sp, #136	@ 0x88
10009bc4:	e8bd 81f0 	ldmia.w	sp!, {r4, r5, r6, r7, r8, pc}
10009bc8:	6924      	ldr	r4, [r4, #16]
10009bca:	e7f1      	b.n	10009bb0 <__wrap_vprintf+0x7c>
10009bcc:	4805      	ldr	r0, [pc, #20]	@ (10009be4 <__wrap_vprintf+0xb0>)
10009bce:	f001 fb6f 	bl	1000b2b0 <__mutex_exit_veneer>
10009bd2:	4640      	mov	r0, r8
10009bd4:	b022      	add	sp, #136	@ 0x88
10009bd6:	e8bd 81f0 	ldmia.w	sp!, {r4, r5, r6, r7, r8, pc}
10009bda:	9401      	str	r4, [sp, #4]
10009bdc:	e7ef      	b.n	10009bbe <__wrap_vprintf+0x8a>
10009bde:	bf00      	nop
10009be0:	000f4240 	.word	0x000f4240
10009be4:	200019f8 	.word	0x200019f8
10009be8:	1000992d 	.word	0x1000992d
10009bec:	20008ac8 	.word	0x20008ac8
10009bf0:	20008ad0 	.word	0x20008ad0

10009bf4 <__wrap_printf>:
10009bf4:	b40f      	push	{r0, r1, r2, r3}
10009bf6:	b500      	push	{lr}
10009bf8:	b083      	sub	sp, #12
10009bfa:	a904      	add	r1, sp, #16
10009bfc:	f851 0b04 	ldr.w	r0, [r1], #4
10009c00:	9101      	str	r1, [sp, #4]
10009c02:	f7ff ff97 	bl	10009b34 <__wrap_vprintf>
10009c06:	b003      	add	sp, #12
10009c08:	f85d eb04 	ldr.w	lr, [sp], #4
10009c0c:	b004      	add	sp, #16
10009c0e:	4770      	bx	lr

10009c10 <core1_trampoline>:
10009c10:	bd03      	pop	{r0, r1, pc}
10009c12:	bf00      	nop

10009c14 <core1_wrapper>:
10009c14:	b500      	push	{lr}
10009c16:	b083      	sub	sp, #12
10009c18:	9001      	str	r0, [sp, #4]
10009c1a:	f7fc ff37 	bl	10006a8c <runtime_run_per_core_initializers>
10009c1e:	9801      	ldr	r0, [sp, #4]
10009c20:	b003      	add	sp, #12
10009c22:	f85d eb04 	ldr.w	lr, [sp], #4
10009c26:	4700      	bx	r0

10009c28 <multicore_launch_core1_raw>:
10009c28:	b570      	push	{r4, r5, r6, lr}
10009c2a:	4605      	mov	r5, r0
10009c2c:	b088      	sub	sp, #32
10009c2e:	2019      	movs	r0, #25
10009c30:	460c      	mov	r4, r1
10009c32:	9201      	str	r2, [sp, #4]
10009c34:	f7fb fe6e 	bl	10005914 <irq_is_enabled>
10009c38:	2100      	movs	r1, #0
10009c3a:	4606      	mov	r6, r0
10009c3c:	2019      	movs	r0, #25
10009c3e:	f7fb fe53 	bl	100058e8 <irq_set_enabled>
10009c42:	2300      	movs	r3, #0
10009c44:	4619      	mov	r1, r3
10009c46:	9a01      	ldr	r2, [sp, #4]
10009c48:	e9cd 3302 	strd	r3, r3, [sp, #8]
10009c4c:	9205      	str	r2, [sp, #20]
10009c4e:	2201      	movs	r2, #1
10009c50:	f04f 4350 	mov.w	r3, #3489660928	@ 0xd0000000
10009c54:	4608      	mov	r0, r1
10009c56:	9406      	str	r4, [sp, #24]
10009c58:	9507      	str	r5, [sp, #28]
10009c5a:	9204      	str	r2, [sp, #16]
10009c5c:	b1a1      	cbz	r1, 10009c88 <multicore_launch_core1_raw+0x60>
10009c5e:	6d1a      	ldr	r2, [r3, #80]	@ 0x50
10009c60:	0795      	lsls	r5, r2, #30
10009c62:	d5fc      	bpl.n	10009c5e <multicore_launch_core1_raw+0x36>
10009c64:	6559      	str	r1, [r3, #84]	@ 0x54
10009c66:	bf40      	sev
10009c68:	6d1a      	ldr	r2, [r3, #80]	@ 0x50
10009c6a:	07d4      	lsls	r4, r2, #31
10009c6c:	d403      	bmi.n	10009c76 <multicore_launch_core1_raw+0x4e>
10009c6e:	bf20      	wfe
10009c70:	6d1a      	ldr	r2, [r3, #80]	@ 0x50
10009c72:	07d2      	lsls	r2, r2, #31
10009c74:	d5fb      	bpl.n	10009c6e <multicore_launch_core1_raw+0x46>
10009c76:	6d9a      	ldr	r2, [r3, #88]	@ 0x58
10009c78:	428a      	cmp	r2, r1
10009c7a:	d00a      	beq.n	10009c92 <multicore_launch_core1_raw+0x6a>
10009c7c:	2000      	movs	r0, #0
10009c7e:	eb0d 0280 	add.w	r2, sp, r0, lsl #2
10009c82:	6891      	ldr	r1, [r2, #8]
10009c84:	e7ea      	b.n	10009c5c <multicore_launch_core1_raw+0x34>
10009c86:	6d9a      	ldr	r2, [r3, #88]	@ 0x58
10009c88:	6d1a      	ldr	r2, [r3, #80]	@ 0x50
10009c8a:	07d2      	lsls	r2, r2, #31
10009c8c:	d4fb      	bmi.n	10009c86 <multicore_launch_core1_raw+0x5e>
10009c8e:	bf40      	sev
10009c90:	e7e5      	b.n	10009c5e <multicore_launch_core1_raw+0x36>
10009c92:	3001      	adds	r0, #1
10009c94:	2806      	cmp	r0, #6
10009c96:	d1f2      	bne.n	10009c7e <multicore_launch_core1_raw+0x56>
10009c98:	4631      	mov	r1, r6
10009c9a:	2019      	movs	r0, #25
10009c9c:	b008      	add	sp, #32
10009c9e:	e8bd 4070 	ldmia.w	sp!, {r4, r5, r6, lr}
10009ca2:	f7fb be21 	b.w	100058e8 <irq_set_enabled>
10009ca6:	bf00      	nop

10009ca8 <multicore_launch_core1>:
10009ca8:	4b0c      	ldr	r3, [pc, #48]	@ (10009cdc <multicore_launch_core1+0x34>)
10009caa:	4a0d      	ldr	r2, [pc, #52]	@ (10009ce0 <multicore_launch_core1+0x38>)
10009cac:	4293      	cmp	r3, r2
10009cae:	d30e      	bcc.n	10009cce <multicore_launch_core1+0x26>
10009cb0:	469c      	mov	ip, r3
10009cb2:	f203 71f4 	addw	r1, r3, #2036	@ 0x7f4
10009cb6:	4a0b      	ldr	r2, [pc, #44]	@ (10009ce4 <multicore_launch_core1+0x3c>)
10009cb8:	6892      	ldr	r2, [r2, #8]
10009cba:	f8cc 07f4 	str.w	r0, [ip, #2036]	@ 0x7f4
10009cbe:	480a      	ldr	r0, [pc, #40]	@ (10009ce8 <multicore_launch_core1+0x40>)
10009cc0:	f8cc 37f8 	str.w	r3, [ip, #2040]	@ 0x7f8
10009cc4:	f8cc 07fc 	str.w	r0, [ip, #2044]	@ 0x7fc
10009cc8:	4808      	ldr	r0, [pc, #32]	@ (10009cec <multicore_launch_core1+0x44>)
10009cca:	f7ff bfad 	b.w	10009c28 <multicore_launch_core1_raw>
10009cce:	f04f 33ff 	mov.w	r3, #4294967295	@ 0xffffffff
10009cd2:	f240 71f3 	movw	r1, #2035	@ 0x7f3
10009cd6:	469c      	mov	ip, r3
10009cd8:	e7ed      	b.n	10009cb6 <multicore_launch_core1+0xe>
10009cda:	bf00      	nop
10009cdc:	20080800 	.word	0x20080800
10009ce0:	20080000 	.word	0x20080000
10009ce4:	e000ed00 	.word	0xe000ed00
10009ce8:	10009c15 	.word	0x10009c15
10009cec:	10009c11 	.word	0x10009c11

10009cf0 <adc_init>:
10009cf0:	2301      	movs	r3, #1
10009cf2:	4807      	ldr	r0, [pc, #28]	@ (10009d10 <adc_init+0x20>)
10009cf4:	4907      	ldr	r1, [pc, #28]	@ (10009d14 <adc_init+0x24>)
10009cf6:	4a08      	ldr	r2, [pc, #32]	@ (10009d18 <adc_init+0x28>)
10009cf8:	6003      	str	r3, [r0, #0]
10009cfa:	600b      	str	r3, [r1, #0]
10009cfc:	6893      	ldr	r3, [r2, #8]
10009cfe:	07d9      	lsls	r1, r3, #31
10009d00:	d5fc      	bpl.n	10009cfc <adc_init+0xc>
10009d02:	2301      	movs	r3, #1
10009d04:	4a05      	ldr	r2, [pc, #20]	@ (10009d1c <adc_init+0x2c>)
10009d06:	6013      	str	r3, [r2, #0]
10009d08:	6813      	ldr	r3, [r2, #0]
10009d0a:	05db      	lsls	r3, r3, #23
10009d0c:	d5fc      	bpl.n	10009d08 <adc_init+0x18>
10009d0e:	4770      	bx	lr
10009d10:	40022000 	.word	0x40022000
10009d14:	40023000 	.word	0x40023000
10009d18:	40020000 	.word	0x40020000
10009d1c:	400a0000 	.word	0x400a0000

10009d20 <pio_sm_claim>:
10009d20:	f100 402f 	add.w	r0, r0, #2936012800	@ 0xaf000000
10009d24:	f500 0060 	add.w	r0, r0, #14680064	@ 0xe00000
10009d28:	0d03      	lsrs	r3, r0, #20
10009d2a:	2b02      	cmp	r3, #2
10009d2c:	d00d      	beq.n	10009d4a <pio_sm_claim+0x2a>
10009d2e:	2b01      	cmp	r3, #1
10009d30:	d005      	beq.n	10009d3e <pio_sm_claim+0x1e>
10009d32:	4a09      	ldr	r2, [pc, #36]	@ (10009d58 <pio_sm_claim+0x38>)
10009d34:	4809      	ldr	r0, [pc, #36]	@ (10009d5c <pio_sm_claim+0x3c>)
10009d36:	eb01 0183 	add.w	r1, r1, r3, lsl #2
10009d3a:	f7fb bd61 	b.w	10005800 <hw_claim_or_assert>
10009d3e:	4a08      	ldr	r2, [pc, #32]	@ (10009d60 <pio_sm_claim+0x40>)
10009d40:	4806      	ldr	r0, [pc, #24]	@ (10009d5c <pio_sm_claim+0x3c>)
10009d42:	eb01 0183 	add.w	r1, r1, r3, lsl #2
10009d46:	f7fb bd5b 	b.w	10005800 <hw_claim_or_assert>
10009d4a:	4a06      	ldr	r2, [pc, #24]	@ (10009d64 <pio_sm_claim+0x44>)
10009d4c:	4803      	ldr	r0, [pc, #12]	@ (10009d5c <pio_sm_claim+0x3c>)
10009d4e:	eb01 0183 	add.w	r1, r1, r3, lsl #2
10009d52:	f7fb bd55 	b.w	10005800 <hw_claim_or_assert>
10009d56:	bf00      	nop
10009d58:	1000c0c4 	.word	0x1000c0c4
10009d5c:	20008a04 	.word	0x20008a04
10009d60:	1000c104 	.word	0x1000c104
10009d64:	1000c0e0 	.word	0x1000c0e0

10009d68 <pio_add_program>:
10009d68:	e92d 47f0 	stmdb	sp!, {r4, r5, r6, r7, r8, r9, sl, lr}
10009d6c:	4688      	mov	r8, r1
10009d6e:	4605      	mov	r5, r0
10009d70:	f7fb fd2a 	bl	100057c8 <hw_claim_lock>
10009d74:	2201      	movs	r2, #1
10009d76:	f898 e004 	ldrb.w	lr, [r8, #4]
10009d7a:	4681      	mov	r9, r0
10009d7c:	f998 c005 	ldrsb.w	ip, [r8, #5]
10009d80:	f105 402f 	add.w	r0, r5, #2936012800	@ 0xaf000000
10009d84:	4f39      	ldr	r7, [pc, #228]	@ (10009e6c <pio_add_program+0x104>)
10009d86:	f500 0060 	add.w	r0, r0, #14680064	@ 0xe00000
10009d8a:	fa02 f20e 	lsl.w	r2, r2, lr
10009d8e:	0d00      	lsrs	r0, r0, #20
10009d90:	f1bc 0f00 	cmp.w	ip, #0
10009d94:	f857 6020 	ldr.w	r6, [r7, r0, lsl #2]
10009d98:	f102 32ff 	add.w	r2, r2, #4294967295	@ 0xffffffff
10009d9c:	f1ce 0420 	rsb	r4, lr, #32
10009da0:	db3b      	blt.n	10009e1a <pio_add_program+0xb2>
10009da2:	45a4      	cmp	ip, r4
10009da4:	dc03      	bgt.n	10009dae <pio_add_program+0x46>
10009da6:	fa02 f30c 	lsl.w	r3, r2, ip
10009daa:	4233      	tst	r3, r6
10009dac:	d007      	beq.n	10009dbe <pio_add_program+0x56>
10009dae:	f04f 34ff 	mov.w	r4, #4294967295	@ 0xffffffff
10009db2:	4648      	mov	r0, r9
10009db4:	f7fb fd1a 	bl	100057ec <hw_claim_unlock>
10009db8:	4620      	mov	r0, r4
10009dba:	e8bd 87f0 	ldmia.w	sp!, {r4, r5, r6, r7, r8, r9, sl, pc}
10009dbe:	f8d5 3168 	ldr.w	r3, [r5, #360]	@ 0x168
10009dc2:	f898 4007 	ldrb.w	r4, [r8, #7]
10009dc6:	2b00      	cmp	r3, #0
10009dc8:	d149      	bne.n	10009e5e <pio_add_program+0xf6>
10009dca:	0763      	lsls	r3, r4, #29
10009dcc:	d437      	bmi.n	10009e3e <pio_add_program+0xd6>
10009dce:	4664      	mov	r4, ip
10009dd0:	fa02 f30c 	lsl.w	r3, r2, ip
10009dd4:	421e      	tst	r6, r3
10009dd6:	469a      	mov	sl, r3
10009dd8:	d139      	bne.n	10009e4e <pio_add_program+0xe6>
10009dda:	f1be 0f00 	cmp.w	lr, #0
10009dde:	d012      	beq.n	10009e06 <pio_add_program+0x9e>
10009de0:	f8d8 1000 	ldr.w	r1, [r8]
10009de4:	eb01 084e 	add.w	r8, r1, lr, lsl #1
10009de8:	46e6      	mov	lr, ip
10009dea:	f831 3b02 	ldrh.w	r3, [r1], #2
10009dee:	f10e 0212 	add.w	r2, lr, #18
10009df2:	f5b3 5f00 	cmp.w	r3, #8192	@ 0x2000
10009df6:	bf38      	it	cc
10009df8:	4463      	addcc	r3, ip
10009dfa:	4541      	cmp	r1, r8
10009dfc:	f10e 0e01 	add.w	lr, lr, #1
10009e00:	f845 3022 	str.w	r3, [r5, r2, lsl #2]
10009e04:	d1f1      	bne.n	10009dea <pio_add_program+0x82>
10009e06:	ea46 060a 	orr.w	r6, r6, sl
10009e0a:	f847 6020 	str.w	r6, [r7, r0, lsl #2]
10009e0e:	4648      	mov	r0, r9
10009e10:	f7fb fcec 	bl	100057ec <hw_claim_unlock>
10009e14:	4620      	mov	r0, r4
10009e16:	e8bd 87f0 	ldmia.w	sp!, {r4, r5, r6, r7, r8, r9, sl, pc}
10009e1a:	f1be 0f20 	cmp.w	lr, #32
10009e1e:	dd02      	ble.n	10009e26 <pio_add_program+0xbe>
10009e20:	e015      	b.n	10009e4e <pio_add_program+0xe6>
10009e22:	3c01      	subs	r4, #1
10009e24:	d313      	bcc.n	10009e4e <pio_add_program+0xe6>
10009e26:	fa02 f304 	lsl.w	r3, r2, r4
10009e2a:	4233      	tst	r3, r6
10009e2c:	46a4      	mov	ip, r4
10009e2e:	d1f8      	bne.n	10009e22 <pio_add_program+0xba>
10009e30:	f8d5 1168 	ldr.w	r1, [r5, #360]	@ 0x168
10009e34:	f898 3007 	ldrb.w	r3, [r8, #7]
10009e38:	b9a1      	cbnz	r1, 10009e64 <pio_add_program+0xfc>
10009e3a:	075b      	lsls	r3, r3, #29
10009e3c:	d5c8      	bpl.n	10009dd0 <pio_add_program+0x68>
10009e3e:	f06f 040a 	mvn.w	r4, #10
10009e42:	4648      	mov	r0, r9
10009e44:	f7fb fcd2 	bl	100057ec <hw_claim_unlock>
10009e48:	4620      	mov	r0, r4
10009e4a:	e8bd 87f0 	ldmia.w	sp!, {r4, r5, r6, r7, r8, r9, sl, pc}
10009e4e:	f06f 0408 	mvn.w	r4, #8
10009e52:	4648      	mov	r0, r9
10009e54:	f7fb fcca 	bl	100057ec <hw_claim_unlock>
10009e58:	4620      	mov	r0, r4
10009e5a:	e8bd 87f0 	ldmia.w	sp!, {r4, r5, r6, r7, r8, r9, sl, pc}
10009e5e:	07e1      	lsls	r1, r4, #31
10009e60:	d5b5      	bpl.n	10009dce <pio_add_program+0x66>
10009e62:	e7ec      	b.n	10009e3e <pio_add_program+0xd6>
10009e64:	07d9      	lsls	r1, r3, #31
10009e66:	d5b3      	bpl.n	10009dd0 <pio_add_program+0x68>
10009e68:	e7e9      	b.n	10009e3e <pio_add_program+0xd6>
10009e6a:	bf00      	nop
10009e6c:	20008450 	.word	0x20008450

10009e70 <pio_sm_set_pins>:
10009e70:	e92d 41f0 	stmdb	sp!, {r4, r5, r6, r7, r8, lr}
10009e74:	4606      	mov	r6, r0
10009e76:	eb01 0541 	add.w	r5, r1, r1, lsl #1
10009e7a:	eb06 04c5 	add.w	r4, r6, r5, lsl #3
10009e7e:	f8d4 10dc 	ldr.w	r1, [r4, #220]	@ 0xdc
10009e82:	4696      	mov	lr, r2
10009e84:	f44f 3200 	mov.w	r2, #131072	@ 0x20000
10009e88:	2000      	movs	r0, #0
10009e8a:	f04f 0c20 	mov.w	ip, #32
10009e8e:	4688      	mov	r8, r1
10009e90:	f504 5343 	add.w	r3, r4, #12480	@ 0x30c0
10009e94:	f8d4 70cc 	ldr.w	r7, [r4, #204]	@ 0xcc
10009e98:	60da      	str	r2, [r3, #12]
10009e9a:	4663      	mov	r3, ip
10009e9c:	2b05      	cmp	r3, #5
10009e9e:	bf28      	it	cs
10009ea0:	2305      	movcs	r3, #5
10009ea2:	0142      	lsls	r2, r0, #5
10009ea4:	f00e 011f 	and.w	r1, lr, #31
10009ea8:	f441 4160 	orr.w	r1, r1, #57344	@ 0xe000
10009eac:	ea42 6283 	orr.w	r2, r2, r3, lsl #26
10009eb0:	ebbc 0c03 	subs.w	ip, ip, r3
10009eb4:	f8c4 20dc 	str.w	r2, [r4, #220]	@ 0xdc
10009eb8:	ea4f 1e5e 	mov.w	lr, lr, lsr #5
10009ebc:	4418      	add	r0, r3
10009ebe:	f8c4 10d8 	str.w	r1, [r4, #216]	@ 0xd8
10009ec2:	d1ea      	bne.n	10009e9a <pio_sm_set_pins+0x2a>
10009ec4:	eb06 06c5 	add.w	r6, r6, r5, lsl #3
10009ec8:	f8c4 80dc 	str.w	r8, [r4, #220]	@ 0xdc
10009ecc:	f8c6 70cc 	str.w	r7, [r6, #204]	@ 0xcc
10009ed0:	e8bd 81f0 	ldmia.w	sp!, {r4, r5, r6, r7, r8, pc}

10009ed4 <pio_sm_set_pindirs_with_mask>:
10009ed4:	e92d 47f0 	stmdb	sp!, {r4, r5, r6, r7, r8, r9, sl, lr}
10009ed8:	460f      	mov	r7, r1
10009eda:	eb07 0447 	add.w	r4, r7, r7, lsl #1
10009ede:	4615      	mov	r5, r2
10009ee0:	eb00 02c4 	add.w	r2, r0, r4, lsl #3
10009ee4:	eb00 04c4 	add.w	r4, r0, r4, lsl #3
10009ee8:	4680      	mov	r8, r0
10009eea:	f8d4 00dc 	ldr.w	r0, [r4, #220]	@ 0xdc
10009eee:	f44f 3100 	mov.w	r1, #131072	@ 0x20000
10009ef2:	4681      	mov	r9, r0
10009ef4:	4618      	mov	r0, r3
10009ef6:	f8d4 30cc 	ldr.w	r3, [r4, #204]	@ 0xcc
10009efa:	f502 5243 	add.w	r2, r2, #12480	@ 0x30c0
10009efe:	469a      	mov	sl, r3
10009f00:	60d1      	str	r1, [r2, #12]
10009f02:	b1b0      	cbz	r0, 10009f32 <pio_sm_set_pindirs_with_mask+0x5e>
10009f04:	f24e 0680 	movw	r6, #57472	@ 0xe080
10009f08:	fa90 fca0 	rbit	ip, r0
10009f0c:	fabc fc8c 	clz	ip, ip
10009f10:	fa25 f20c 	lsr.w	r2, r5, ip
10009f14:	1e41      	subs	r1, r0, #1
10009f16:	ea4f 1c4c 	mov.w	ip, ip, lsl #5
10009f1a:	f002 0e01 	and.w	lr, r2, #1
10009f1e:	f04c 6380 	orr.w	r3, ip, #67108864	@ 0x4000000
10009f22:	ea4e 0206 	orr.w	r2, lr, r6
10009f26:	4008      	ands	r0, r1
10009f28:	f8c4 30dc 	str.w	r3, [r4, #220]	@ 0xdc
10009f2c:	f8c4 20d8 	str.w	r2, [r4, #216]	@ 0xd8
10009f30:	d1ea      	bne.n	10009f08 <pio_sm_set_pindirs_with_mask+0x34>
10009f32:	eb07 0747 	add.w	r7, r7, r7, lsl #1
10009f36:	eb08 08c7 	add.w	r8, r8, r7, lsl #3
10009f3a:	f8c8 90dc 	str.w	r9, [r8, #220]	@ 0xdc
10009f3e:	f8c8 a0cc 	str.w	sl, [r8, #204]	@ 0xcc
10009f42:	e8bd 87f0 	ldmia.w	sp!, {r4, r5, r6, r7, r8, r9, sl, pc}
10009f46:	bf00      	nop

10009f48 <pio_sm_init>:
10009f48:	b5f0      	push	{r4, r5, r6, r7, lr}
10009f4a:	2401      	movs	r4, #1
10009f4c:	fa04 f501 	lsl.w	r5, r4, r1
10009f50:	6804      	ldr	r4, [r0, #0]
10009f52:	ea24 0405 	bic.w	r4, r4, r5
10009f56:	6004      	str	r4, [r0, #0]
10009f58:	b3a3      	cbz	r3, 10009fc4 <pio_sm_init+0x7c>
10009f5a:	e9d3 5601 	ldrd	r5, r6, [r3, #4]
10009f5e:	681f      	ldr	r7, [r3, #0]
10009f60:	68dc      	ldr	r4, [r3, #12]
10009f62:	eb01 0341 	add.w	r3, r1, r1, lsl #1
10009f66:	eb00 03c3 	add.w	r3, r0, r3, lsl #3
10009f6a:	f8c3 70c8 	str.w	r7, [r3, #200]	@ 0xc8
10009f6e:	ea4f 0c41 	mov.w	ip, r1, lsl #1
10009f72:	f8c3 60d0 	str.w	r6, [r3, #208]	@ 0xd0
10009f76:	f8c3 50cc 	str.w	r5, [r3, #204]	@ 0xcc
10009f7a:	f8c3 40dc 	str.w	r4, [r3, #220]	@ 0xdc
10009f7e:	eb0c 0301 	add.w	r3, ip, r1
10009f82:	f04f 3501 	mov.w	r5, #16843009	@ 0x1010101
10009f86:	eb00 0cc3 	add.w	ip, r0, r3, lsl #3
10009f8a:	f04f 4600 	mov.w	r6, #2147483648	@ 0x80000000
10009f8e:	eb00 0ec3 	add.w	lr, r0, r3, lsl #3
10009f92:	2301      	movs	r3, #1
10009f94:	f50e 5e86 	add.w	lr, lr, #4288	@ 0x10c0
10009f98:	1d0c      	adds	r4, r1, #4
10009f9a:	f101 0708 	add.w	r7, r1, #8
10009f9e:	408d      	lsls	r5, r1
10009fa0:	f8ce 6010 	str.w	r6, [lr, #16]
10009fa4:	fa03 f404 	lsl.w	r4, r3, r4
10009fa8:	f8ce 6010 	str.w	r6, [lr, #16]
10009fac:	f002 021f 	and.w	r2, r2, #31
10009fb0:	6085      	str	r5, [r0, #8]
10009fb2:	40bb      	lsls	r3, r7
10009fb4:	f500 5000 	add.w	r0, r0, #8192	@ 0x2000
10009fb8:	6004      	str	r4, [r0, #0]
10009fba:	6003      	str	r3, [r0, #0]
10009fbc:	2000      	movs	r0, #0
10009fbe:	f8cc 20d8 	str.w	r2, [ip, #216]	@ 0xd8
10009fc2:	bdf0      	pop	{r4, r5, r6, r7, pc}
10009fc4:	f44f 3780 	mov.w	r7, #65536	@ 0x10000
10009fc8:	f44f 2640 	mov.w	r6, #786432	@ 0xc0000
10009fcc:	f44f 35f8 	mov.w	r5, #126976	@ 0x1f000
10009fd0:	eb01 0441 	add.w	r4, r1, r1, lsl #1
10009fd4:	eb00 04c4 	add.w	r4, r0, r4, lsl #3
10009fd8:	f8c4 70c8 	str.w	r7, [r4, #200]	@ 0xc8
10009fdc:	ea4f 0c41 	mov.w	ip, r1, lsl #1
10009fe0:	f8c4 60d0 	str.w	r6, [r4, #208]	@ 0xd0
10009fe4:	f8c4 50cc 	str.w	r5, [r4, #204]	@ 0xcc
10009fe8:	f8c4 30dc 	str.w	r3, [r4, #220]	@ 0xdc
10009fec:	e7c7      	b.n	10009f7e <pio_sm_init+0x36>
10009fee:	bf00      	nop

10009ff0 <wrap_consumer_take>:
10009ff0:	b530      	push	{r4, r5, lr}
10009ff2:	460d      	mov	r5, r1
10009ff4:	6901      	ldr	r1, [r0, #16]
10009ff6:	4c12      	ldr	r4, [pc, #72]	@ (1000a040 <wrap_consumer_take+0x50>)
10009ff8:	6849      	ldr	r1, [r1, #4]
10009ffa:	6863      	ldr	r3, [r4, #4]
10009ffc:	6809      	ldr	r1, [r1, #0]
10009ffe:	4602      	mov	r2, r0
1000a000:	4299      	cmp	r1, r3
1000a002:	b083      	sub	sp, #12
1000a004:	d015      	beq.n	1000a032 <wrap_consumer_take+0x42>
1000a006:	9000      	str	r0, [sp, #0]
1000a008:	2005      	movs	r0, #5
1000a00a:	9101      	str	r1, [sp, #4]
1000a00c:	f7fc fb56 	bl	100066bc <clock_get_hz>
1000a010:	9901      	ldr	r1, [sp, #4]
1000a012:	0080      	lsls	r0, r0, #2
1000a014:	fbb0 f0f1 	udiv	r0, r0, r1
1000a018:	7a23      	ldrb	r3, [r4, #8]
1000a01a:	0200      	lsls	r0, r0, #8
1000a01c:	eb03 0343 	add.w	r3, r3, r3, lsl #1
1000a020:	00db      	lsls	r3, r3, #3
1000a022:	f103 43a0 	add.w	r3, r3, #1342177280	@ 0x50000000
1000a026:	f503 1300 	add.w	r3, r3, #2097152	@ 0x200000
1000a02a:	9a00      	ldr	r2, [sp, #0]
1000a02c:	f8c3 00c8 	str.w	r0, [r3, #200]	@ 0xc8
1000a030:	6061      	str	r1, [r4, #4]
1000a032:	4629      	mov	r1, r5
1000a034:	4610      	mov	r0, r2
1000a036:	b003      	add	sp, #12
1000a038:	e8bd 4030 	ldmia.w	sp!, {r4, r5, lr}
1000a03c:	f000 bab6 	b.w	1000a5ac <stereo_to_stereo_consumer_take>
1000a040:	2001e988 	.word	0x2001e988

1000a044 <audio_i2s_setup>:
1000a044:	e92d 4ff0 	stmdb	sp!, {r4, r5, r6, r7, r8, r9, sl, fp, lr}
1000a048:	460e      	mov	r6, r1
1000a04a:	b087      	sub	sp, #28
1000a04c:	9001      	str	r0, [sp, #4]
1000a04e:	2106      	movs	r1, #6
1000a050:	7830      	ldrb	r0, [r6, #0]
1000a052:	f7fb fb2b 	bl	100056ac <gpio_set_function>
1000a056:	7870      	ldrb	r0, [r6, #1]
1000a058:	2106      	movs	r1, #6
1000a05a:	f7fb fb27 	bl	100056ac <gpio_set_function>
1000a05e:	7870      	ldrb	r0, [r6, #1]
1000a060:	2106      	movs	r1, #6
1000a062:	3001      	adds	r0, #1
1000a064:	f7fb fb22 	bl	100056ac <gpio_set_function>
1000a068:	4d39      	ldr	r5, [pc, #228]	@ (1000a150 <audio_i2s_setup+0x10c>)
1000a06a:	78f4      	ldrb	r4, [r6, #3]
1000a06c:	f8df a0f8 	ldr.w	sl, [pc, #248]	@ 1000a168 <audio_i2s_setup+0x124>
1000a070:	4628      	mov	r0, r5
1000a072:	4621      	mov	r1, r4
1000a074:	f88a 4008 	strb.w	r4, [sl, #8]
1000a078:	f7ff fe52 	bl	10009d20 <pio_sm_claim>
1000a07c:	4628      	mov	r0, r5
1000a07e:	4935      	ldr	r1, [pc, #212]	@ (1000a154 <audio_i2s_setup+0x110>)
1000a080:	f7ff fe72 	bl	10009d68 <pio_add_program>
1000a084:	f44f 3380 	mov.w	r3, #65536	@ 0x10000
1000a088:	f896 b001 	ldrb.w	fp, [r6, #1]
1000a08c:	7837      	ldrb	r7, [r6, #0]
1000a08e:	9302      	str	r3, [sp, #8]
1000a090:	ea4f 238b 	mov.w	r3, fp, lsl #10
1000a094:	f007 011f 	and.w	r1, r7, #31
1000a098:	f403 43f8 	and.w	r3, r3, #31744	@ 0x7c00
1000a09c:	430b      	orrs	r3, r1
1000a09e:	f043 4380 	orr.w	r3, r3, #1073741824	@ 0x40000000
1000a0a2:	f100 0907 	add.w	r9, r0, #7
1000a0a6:	f443 1380 	orr.w	r3, r3, #1048576	@ 0x100000
1000a0aa:	9305      	str	r3, [sp, #20]
1000a0ac:	ea4f 3309 	mov.w	r3, r9, lsl #12
1000a0b0:	ea43 13c0 	orr.w	r3, r3, r0, lsl #7
1000a0b4:	f023 43c0 	bic.w	r3, r3, #1610612736	@ 0x60000000
1000a0b8:	9303      	str	r3, [sp, #12]
1000a0ba:	4b27      	ldr	r3, [pc, #156]	@ (1000a158 <audio_i2s_setup+0x114>)
1000a0bc:	4602      	mov	r2, r0
1000a0be:	4621      	mov	r1, r4
1000a0c0:	9304      	str	r3, [sp, #16]
1000a0c2:	4628      	mov	r0, r5
1000a0c4:	ab02      	add	r3, sp, #8
1000a0c6:	f7ff ff3f 	bl	10009f48 <pio_sm_init>
1000a0ca:	f04f 0801 	mov.w	r8, #1
1000a0ce:	2203      	movs	r2, #3
1000a0d0:	fa08 f307 	lsl.w	r3, r8, r7
1000a0d4:	fa02 f20b 	lsl.w	r2, r2, fp
1000a0d8:	4313      	orrs	r3, r2
1000a0da:	461a      	mov	r2, r3
1000a0dc:	4621      	mov	r1, r4
1000a0de:	4628      	mov	r0, r5
1000a0e0:	f7ff fef8 	bl	10009ed4 <pio_sm_set_pindirs_with_mask>
1000a0e4:	4628      	mov	r0, r5
1000a0e6:	2200      	movs	r2, #0
1000a0e8:	4621      	mov	r1, r4
1000a0ea:	f7ff fec1 	bl	10009e70 <pio_sm_set_pins>
1000a0ee:	eb04 0244 	add.w	r2, r4, r4, lsl #1
1000a0f2:	f009 031f 	and.w	r3, r9, #31
1000a0f6:	eb05 05c2 	add.w	r5, r5, r2, lsl #3
1000a0fa:	f8c5 30d8 	str.w	r3, [r5, #216]	@ 0xd8
1000a0fe:	f3bf 8f5f 	dmb	sy
1000a102:	2700      	movs	r7, #0
1000a104:	78b5      	ldrb	r5, [r6, #2]
1000a106:	4e15      	ldr	r6, [pc, #84]	@ (1000a15c <audio_i2s_setup+0x118>)
1000a108:	4628      	mov	r0, r5
1000a10a:	f000 f8df 	bl	1000a2cc <dma_channel_claim>
1000a10e:	036b      	lsls	r3, r5, #13
1000a110:	f423 03fc 	bic.w	r3, r3, #8257536	@ 0x7e0000
1000a114:	eb06 0684 	add.w	r6, r6, r4, lsl #2
1000a118:	ea43 4344 	orr.w	r3, r3, r4, lsl #17
1000a11c:	01ac      	lsls	r4, r5, #6
1000a11e:	f104 44a0 	add.w	r4, r4, #1342177280	@ 0x50000000
1000a122:	f043 0319 	orr.w	r3, r3, #25
1000a126:	f88a 5009 	strb.w	r5, [sl, #9]
1000a12a:	2280      	movs	r2, #128	@ 0x80
1000a12c:	6027      	str	r7, [r4, #0]
1000a12e:	200a      	movs	r0, #10
1000a130:	6066      	str	r6, [r4, #4]
1000a132:	490b      	ldr	r1, [pc, #44]	@ (1000a160 <audio_i2s_setup+0x11c>)
1000a134:	60a7      	str	r7, [r4, #8]
1000a136:	6123      	str	r3, [r4, #16]
1000a138:	f7fb fc40 	bl	100059bc <irq_add_shared_handler>
1000a13c:	4a09      	ldr	r2, [pc, #36]	@ (1000a164 <audio_i2s_setup+0x120>)
1000a13e:	9801      	ldr	r0, [sp, #4]
1000a140:	fa08 f505 	lsl.w	r5, r8, r5
1000a144:	f8c2 5404 	str.w	r5, [r2, #1028]	@ 0x404
1000a148:	b007      	add	sp, #28
1000a14a:	e8bd 8ff0 	ldmia.w	sp!, {r4, r5, r6, r7, r8, r9, sl, fp, pc}
1000a14e:	bf00      	nop
1000a150:	50200000 	.word	0x50200000
1000a154:	1001832c 	.word	0x1001832c
1000a158:	40060000 	.word	0x40060000
1000a15c:	50200010 	.word	0x50200010
1000a160:	200008b9 	.word	0x200008b9
1000a164:	50002000 	.word	0x50002000
1000a168:	2001e988 	.word	0x2001e988

1000a16c <audio_i2s_connect>:
1000a16c:	b5f8      	push	{r3, r4, r5, r6, r7, lr}
1000a16e:	4604      	mov	r4, r0
1000a170:	481e      	ldr	r0, [pc, #120]	@ (1000a1ec <audio_i2s_connect+0x80>)
1000a172:	f7ff fcc1 	bl	10009af8 <__wrap_puts>
1000a176:	f04f 0c04 	mov.w	ip, #4
1000a17a:	6866      	ldr	r6, [r4, #4]
1000a17c:	4b1c      	ldr	r3, [pc, #112]	@ (1000a1f0 <audio_i2s_connect+0x84>)
1000a17e:	6836      	ldr	r6, [r6, #0]
1000a180:	4d1c      	ldr	r5, [pc, #112]	@ (1000a1f4 <audio_i2s_connect+0x88>)
1000a182:	481d      	ldr	r0, [pc, #116]	@ (1000a1f8 <audio_i2s_connect+0x8c>)
1000a184:	2102      	movs	r1, #2
1000a186:	f44f 7280 	mov.w	r2, #256	@ 0x100
1000a18a:	e9c3 6500 	strd	r6, r5, [r3]
1000a18e:	f8a0 c004 	strh.w	ip, [r0, #4]
1000a192:	f000 f9ed 	bl	1000a570 <audio_new_consumer_pool>
1000a196:	4602      	mov	r2, r0
1000a198:	6863      	ldr	r3, [r4, #4]
1000a19a:	4d18      	ldr	r5, [pc, #96]	@ (1000a1fc <audio_i2s_connect+0x90>)
1000a19c:	2005      	movs	r0, #5
1000a19e:	681e      	ldr	r6, [r3, #0]
1000a1a0:	602a      	str	r2, [r5, #0]
1000a1a2:	f7fc fa8b 	bl	100066bc <clock_get_hz>
1000a1a6:	0080      	lsls	r0, r0, #2
1000a1a8:	fbb0 f0f6 	udiv	r0, r0, r6
1000a1ac:	4a14      	ldr	r2, [pc, #80]	@ (1000a200 <audio_i2s_connect+0x94>)
1000a1ae:	0200      	lsls	r0, r0, #8
1000a1b0:	7a13      	ldrb	r3, [r2, #8]
1000a1b2:	eb03 0343 	add.w	r3, r3, r3, lsl #1
1000a1b6:	00db      	lsls	r3, r3, #3
1000a1b8:	f103 43a0 	add.w	r3, r3, #1342177280	@ 0x50000000
1000a1bc:	f503 1300 	add.w	r3, r3, #2097152	@ 0x200000
1000a1c0:	f8c3 00c8 	str.w	r0, [r3, #200]	@ 0xc8
1000a1c4:	6056      	str	r6, [r2, #4]
1000a1c6:	f3bf 8f5f 	dmb	sy
1000a1ca:	6863      	ldr	r3, [r4, #4]
1000a1cc:	88da      	ldrh	r2, [r3, #6]
1000a1ce:	6819      	ldr	r1, [r3, #0]
1000a1d0:	2a02      	cmp	r2, #2
1000a1d2:	bf0c      	ite	eq
1000a1d4:	480b      	ldreq	r0, [pc, #44]	@ (1000a204 <audio_i2s_connect+0x98>)
1000a1d6:	480c      	ldrne	r0, [pc, #48]	@ (1000a208 <audio_i2s_connect+0x9c>)
1000a1d8:	f7ff fd0c 	bl	10009bf4 <__wrap_printf>
1000a1dc:	4621      	mov	r1, r4
1000a1de:	682a      	ldr	r2, [r5, #0]
1000a1e0:	480a      	ldr	r0, [pc, #40]	@ (1000a20c <audio_i2s_connect+0xa0>)
1000a1e2:	f000 f9cb 	bl	1000a57c <audio_complete_connection>
1000a1e6:	2001      	movs	r0, #1
1000a1e8:	bdf8      	pop	{r3, r4, r5, r6, r7, pc}
1000a1ea:	bf00      	nop
1000a1ec:	1000c128 	.word	0x1000c128
1000a1f0:	20008b50 	.word	0x20008b50
1000a1f4:	00020001 	.word	0x00020001
1000a1f8:	200013b4 	.word	0x200013b4
1000a1fc:	20008860 	.word	0x20008860
1000a200:	2001e988 	.word	0x2001e988
1000a204:	1000c144 	.word	0x1000c144
1000a208:	1000c168 	.word	0x1000c168
1000a20c:	20001394 	.word	0x20001394

1000a210 <audio_i2s_set_enabled>:
1000a210:	b510      	push	{r4, lr}
1000a212:	4c29      	ldr	r4, [pc, #164]	@ (1000a2b8 <audio_i2s_set_enabled+0xa8>)
1000a214:	b082      	sub	sp, #8
1000a216:	7823      	ldrb	r3, [r4, #0]
1000a218:	4283      	cmp	r3, r0
1000a21a:	d101      	bne.n	1000a220 <audio_i2s_set_enabled+0x10>
1000a21c:	b002      	add	sp, #8
1000a21e:	bd10      	pop	{r4, pc}
1000a220:	4601      	mov	r1, r0
1000a222:	9000      	str	r0, [sp, #0]
1000a224:	200a      	movs	r0, #10
1000a226:	f7fb fb5f 	bl	100058e8 <irq_set_enabled>
1000a22a:	9b00      	ldr	r3, [sp, #0]
1000a22c:	b9e3      	cbnz	r3, 1000a268 <audio_i2s_set_enabled+0x58>
1000a22e:	4a23      	ldr	r2, [pc, #140]	@ (1000a2bc <audio_i2s_set_enabled+0xac>)
1000a230:	6811      	ldr	r1, [r2, #0]
1000a232:	b141      	cbz	r1, 1000a246 <audio_i2s_set_enabled+0x36>
1000a234:	4822      	ldr	r0, [pc, #136]	@ (1000a2c0 <audio_i2s_set_enabled+0xb0>)
1000a236:	e9cd 2300 	strd	r2, r3, [sp]
1000a23a:	6800      	ldr	r0, [r0, #0]
1000a23c:	f000 f9a4 	bl	1000a588 <give_audio_buffer>
1000a240:	e9dd 2300 	ldrd	r2, r3, [sp]
1000a244:	6013      	str	r3, [r2, #0]
1000a246:	2101      	movs	r1, #1
1000a248:	481e      	ldr	r0, [pc, #120]	@ (1000a2c4 <audio_i2s_set_enabled+0xb4>)
1000a24a:	f892 c008 	ldrb.w	ip, [r2, #8]
1000a24e:	6802      	ldr	r2, [r0, #0]
1000a250:	fa01 f10c 	lsl.w	r1, r1, ip
1000a254:	fa03 fe0c 	lsl.w	lr, r3, ip
1000a258:	ea22 0201 	bic.w	r2, r2, r1
1000a25c:	ea42 020e 	orr.w	r2, r2, lr
1000a260:	6002      	str	r2, [r0, #0]
1000a262:	7023      	strb	r3, [r4, #0]
1000a264:	b002      	add	sp, #8
1000a266:	bd10      	pop	{r4, pc}
1000a268:	4a15      	ldr	r2, [pc, #84]	@ (1000a2c0 <audio_i2s_set_enabled+0xb0>)
1000a26a:	2100      	movs	r1, #0
1000a26c:	6810      	ldr	r0, [r2, #0]
1000a26e:	f000 f995 	bl	1000a59c <take_audio_buffer>
1000a272:	4a12      	ldr	r2, [pc, #72]	@ (1000a2bc <audio_i2s_set_enabled+0xac>)
1000a274:	9b00      	ldr	r3, [sp, #0]
1000a276:	7a51      	ldrb	r1, [r2, #9]
1000a278:	6010      	str	r0, [r2, #0]
1000a27a:	0189      	lsls	r1, r1, #6
1000a27c:	f101 41a0 	add.w	r1, r1, #1342177280	@ 0x50000000
1000a280:	b180      	cbz	r0, 1000a2a4 <audio_i2s_set_enabled+0x94>
1000a282:	f8d1 c00c 	ldr.w	ip, [r1, #12]
1000a286:	f02c 0c30 	bic.w	ip, ip, #48	@ 0x30
1000a28a:	f04c 0c10 	orr.w	ip, ip, #16
1000a28e:	f8c1 c010 	str.w	ip, [r1, #16]
1000a292:	f8d0 c000 	ldr.w	ip, [r0]
1000a296:	6880      	ldr	r0, [r0, #8]
1000a298:	f8dc c004 	ldr.w	ip, [ip, #4]
1000a29c:	f8c1 c000 	str.w	ip, [r1]
1000a2a0:	61c8      	str	r0, [r1, #28]
1000a2a2:	e7d0      	b.n	1000a246 <audio_i2s_set_enabled+0x36>
1000a2a4:	68c8      	ldr	r0, [r1, #12]
1000a2a6:	f020 0030 	bic.w	r0, r0, #48	@ 0x30
1000a2aa:	6108      	str	r0, [r1, #16]
1000a2ac:	4806      	ldr	r0, [pc, #24]	@ (1000a2c8 <audio_i2s_set_enabled+0xb8>)
1000a2ae:	6008      	str	r0, [r1, #0]
1000a2b0:	f44f 7080 	mov.w	r0, #256	@ 0x100
1000a2b4:	61c8      	str	r0, [r1, #28]
1000a2b6:	e7c6      	b.n	1000a246 <audio_i2s_set_enabled+0x36>
1000a2b8:	2001f3c3 	.word	0x2001f3c3
1000a2bc:	2001e988 	.word	0x2001e988
1000a2c0:	20008860 	.word	0x20008860
1000a2c4:	50200000 	.word	0x50200000
1000a2c8:	2001f3ac 	.word	0x2001f3ac

1000a2cc <dma_channel_claim>:
1000a2cc:	4601      	mov	r1, r0
1000a2ce:	4a02      	ldr	r2, [pc, #8]	@ (1000a2d8 <dma_channel_claim+0xc>)
1000a2d0:	4802      	ldr	r0, [pc, #8]	@ (1000a2dc <dma_channel_claim+0x10>)
1000a2d2:	f7fb ba95 	b.w	10005800 <hw_claim_or_assert>
1000a2d6:	bf00      	nop
1000a2d8:	1000c18c 	.word	0x1000c18c
1000a2dc:	2001f3b0 	.word	0x2001f3b0

1000a2e0 <producer_pool_give_buffer_default>:
1000a2e0:	6903      	ldr	r3, [r0, #16]
1000a2e2:	b500      	push	{lr}
1000a2e4:	695a      	ldr	r2, [r3, #20]
1000a2e6:	f3ef 8010 	mrs	r0, PRIMASK
1000a2ea:	b672      	cpsid	i
1000a2ec:	e8d2 efcf 	ldaexb	lr, [r2]
1000a2f0:	f05f 0c01 	movs.w	ip, #1
1000a2f4:	f1be 0f00 	cmp.w	lr, #0
1000a2f8:	d1f8      	bne.n	1000a2ec <producer_pool_give_buffer_default+0xc>
1000a2fa:	e8c2 cf4e 	strexb	lr, ip, [r2]
1000a2fe:	f1be 0f00 	cmp.w	lr, #0
1000a302:	d1f3      	bne.n	1000a2ec <producer_pool_give_buffer_default+0xc>
1000a304:	f3bf 8f5f 	dmb	sy
1000a308:	699a      	ldr	r2, [r3, #24]
1000a30a:	b152      	cbz	r2, 1000a322 <producer_pool_give_buffer_default+0x42>
1000a30c:	69da      	ldr	r2, [r3, #28]
1000a30e:	6151      	str	r1, [r2, #20]
1000a310:	61d9      	str	r1, [r3, #28]
1000a312:	2200      	movs	r2, #0
1000a314:	695b      	ldr	r3, [r3, #20]
1000a316:	e8c3 2f8f 	stlb	r2, [r3]
1000a31a:	f380 8810 	msr	PRIMASK, r0
1000a31e:	bf40      	sev
1000a320:	bd00      	pop	{pc}
1000a322:	61d9      	str	r1, [r3, #28]
1000a324:	614a      	str	r2, [r1, #20]
1000a326:	6199      	str	r1, [r3, #24]
1000a328:	e7f3      	b.n	1000a312 <producer_pool_give_buffer_default+0x32>
1000a32a:	bf00      	nop

1000a32c <producer_pool_take_buffer_default>:
1000a32c:	6903      	ldr	r3, [r0, #16]
1000a32e:	b510      	push	{r4, lr}
1000a330:	68d8      	ldr	r0, [r3, #12]
1000a332:	f3ef 8c10 	mrs	ip, PRIMASK
1000a336:	b672      	cpsid	i
1000a338:	4662      	mov	r2, ip
1000a33a:	e8d0 4fcf 	ldaexb	r4, [r0]
1000a33e:	f05f 0e01 	movs.w	lr, #1
1000a342:	2c00      	cmp	r4, #0
1000a344:	d1f9      	bne.n	1000a33a <producer_pool_take_buffer_default+0xe>
1000a346:	e8c0 ef44 	strexb	r4, lr, [r0]
1000a34a:	2c00      	cmp	r4, #0
1000a34c:	d1f5      	bne.n	1000a33a <producer_pool_take_buffer_default+0xe>
1000a34e:	f3bf 8f5f 	dmb	sy
1000a352:	6918      	ldr	r0, [r3, #16]
1000a354:	b150      	cbz	r0, 1000a36c <producer_pool_take_buffer_default+0x40>
1000a356:	2100      	movs	r1, #0
1000a358:	6944      	ldr	r4, [r0, #20]
1000a35a:	f8d3 c00c 	ldr.w	ip, [r3, #12]
1000a35e:	611c      	str	r4, [r3, #16]
1000a360:	6141      	str	r1, [r0, #20]
1000a362:	e8cc 1f8f 	stlb	r1, [ip]
1000a366:	f382 8810 	msr	PRIMASK, r2
1000a36a:	bd10      	pop	{r4, pc}
1000a36c:	b1d9      	cbz	r1, 1000a3a6 <producer_pool_take_buffer_default+0x7a>
1000a36e:	4684      	mov	ip, r0
1000a370:	68d9      	ldr	r1, [r3, #12]
1000a372:	e8c1 cf8f 	stlb	ip, [r1]
1000a376:	f382 8810 	msr	PRIMASK, r2
1000a37a:	bf20      	wfe
1000a37c:	68d9      	ldr	r1, [r3, #12]
1000a37e:	f3ef 8210 	mrs	r2, PRIMASK
1000a382:	b672      	cpsid	i
1000a384:	e8d1 efcf 	ldaexb	lr, [r1]
1000a388:	2001      	movs	r0, #1
1000a38a:	f1be 0f00 	cmp.w	lr, #0
1000a38e:	d1f9      	bne.n	1000a384 <producer_pool_take_buffer_default+0x58>
1000a390:	e8c1 0f4e 	strexb	lr, r0, [r1]
1000a394:	f1be 0f00 	cmp.w	lr, #0
1000a398:	d1f4      	bne.n	1000a384 <producer_pool_take_buffer_default+0x58>
1000a39a:	f3bf 8f5f 	dmb	sy
1000a39e:	6918      	ldr	r0, [r3, #16]
1000a3a0:	2800      	cmp	r0, #0
1000a3a2:	d1d8      	bne.n	1000a356 <producer_pool_take_buffer_default+0x2a>
1000a3a4:	e7e4      	b.n	1000a370 <producer_pool_take_buffer_default+0x44>
1000a3a6:	68db      	ldr	r3, [r3, #12]
1000a3a8:	e8c3 0f8f 	stlb	r0, [r3]
1000a3ac:	f38c 8810 	msr	PRIMASK, ip
1000a3b0:	bd10      	pop	{r4, pc}
1000a3b2:	bf00      	nop

1000a3b4 <consumer_pool_give_buffer_default>:
1000a3b4:	6943      	ldr	r3, [r0, #20]
1000a3b6:	b510      	push	{r4, lr}
1000a3b8:	68da      	ldr	r2, [r3, #12]
1000a3ba:	f3ef 8010 	mrs	r0, PRIMASK
1000a3be:	b672      	cpsid	i
1000a3c0:	e8d2 efcf 	ldaexb	lr, [r2]
1000a3c4:	f05f 0c01 	movs.w	ip, #1
1000a3c8:	f1be 0f00 	cmp.w	lr, #0
1000a3cc:	d1f8      	bne.n	1000a3c0 <consumer_pool_give_buffer_default+0xc>
1000a3ce:	e8c2 cf4e 	strexb	lr, ip, [r2]
1000a3d2:	f1be 0f00 	cmp.w	lr, #0
1000a3d6:	d1f3      	bne.n	1000a3c0 <consumer_pool_give_buffer_default+0xc>
1000a3d8:	f3bf 8f5f 	dmb	sy
1000a3dc:	691c      	ldr	r4, [r3, #16]
1000a3de:	2200      	movs	r2, #0
1000a3e0:	614c      	str	r4, [r1, #20]
1000a3e2:	6119      	str	r1, [r3, #16]
1000a3e4:	68db      	ldr	r3, [r3, #12]
1000a3e6:	e8c3 2f8f 	stlb	r2, [r3]
1000a3ea:	f380 8810 	msr	PRIMASK, r0
1000a3ee:	bf40      	sev
1000a3f0:	bd10      	pop	{r4, pc}
1000a3f2:	bf00      	nop

1000a3f4 <get_full_audio_buffer>:
1000a3f4:	4603      	mov	r3, r0
1000a3f6:	b510      	push	{r4, lr}
1000a3f8:	6940      	ldr	r0, [r0, #20]
1000a3fa:	f3ef 8c10 	mrs	ip, PRIMASK
1000a3fe:	b672      	cpsid	i
1000a400:	4662      	mov	r2, ip
1000a402:	e8d0 4fcf 	ldaexb	r4, [r0]
1000a406:	f05f 0e01 	movs.w	lr, #1
1000a40a:	2c00      	cmp	r4, #0
1000a40c:	d1f9      	bne.n	1000a402 <get_full_audio_buffer+0xe>
1000a40e:	e8c0 ef44 	strexb	r4, lr, [r0]
1000a412:	2c00      	cmp	r4, #0
1000a414:	d1f5      	bne.n	1000a402 <get_full_audio_buffer+0xe>
1000a416:	f3bf 8f5f 	dmb	sy
1000a41a:	6998      	ldr	r0, [r3, #24]
1000a41c:	b188      	cbz	r0, 1000a442 <get_full_audio_buffer+0x4e>
1000a41e:	6941      	ldr	r1, [r0, #20]
1000a420:	f8d3 c014 	ldr.w	ip, [r3, #20]
1000a424:	6199      	str	r1, [r3, #24]
1000a426:	b131      	cbz	r1, 1000a436 <get_full_audio_buffer+0x42>
1000a428:	2300      	movs	r3, #0
1000a42a:	6143      	str	r3, [r0, #20]
1000a42c:	e8cc 3f8f 	stlb	r3, [ip]
1000a430:	f382 8810 	msr	PRIMASK, r2
1000a434:	bd10      	pop	{r4, pc}
1000a436:	61d9      	str	r1, [r3, #28]
1000a438:	e8cc 1f8f 	stlb	r1, [ip]
1000a43c:	f382 8810 	msr	PRIMASK, r2
1000a440:	bd10      	pop	{r4, pc}
1000a442:	b1d9      	cbz	r1, 1000a47c <get_full_audio_buffer+0x88>
1000a444:	4684      	mov	ip, r0
1000a446:	6959      	ldr	r1, [r3, #20]
1000a448:	e8c1 cf8f 	stlb	ip, [r1]
1000a44c:	f382 8810 	msr	PRIMASK, r2
1000a450:	bf20      	wfe
1000a452:	6959      	ldr	r1, [r3, #20]
1000a454:	f3ef 8210 	mrs	r2, PRIMASK
1000a458:	b672      	cpsid	i
1000a45a:	e8d1 efcf 	ldaexb	lr, [r1]
1000a45e:	2001      	movs	r0, #1
1000a460:	f1be 0f00 	cmp.w	lr, #0
1000a464:	d1f9      	bne.n	1000a45a <get_full_audio_buffer+0x66>
1000a466:	e8c1 0f4e 	strexb	lr, r0, [r1]
1000a46a:	f1be 0f00 	cmp.w	lr, #0
1000a46e:	d1f4      	bne.n	1000a45a <get_full_audio_buffer+0x66>
1000a470:	f3bf 8f5f 	dmb	sy
1000a474:	6998      	ldr	r0, [r3, #24]
1000a476:	2800      	cmp	r0, #0
1000a478:	d1d1      	bne.n	1000a41e <get_full_audio_buffer+0x2a>
1000a47a:	e7e4      	b.n	1000a446 <get_full_audio_buffer+0x52>
1000a47c:	695b      	ldr	r3, [r3, #20]
1000a47e:	e8c3 0f8f 	stlb	r0, [r3]
1000a482:	f38c 8810 	msr	PRIMASK, ip
1000a486:	bd10      	pop	{r4, pc}

1000a488 <consumer_pool_take_buffer_default>:
1000a488:	6940      	ldr	r0, [r0, #20]
1000a48a:	f7ff bfb3 	b.w	1000a3f4 <get_full_audio_buffer>
1000a48e:	bf00      	nop

1000a490 <_Z21audio_new_buffer_poolP19audio_buffer_formatii>:
1000a490:	e92d 4ff0 	stmdb	sp!, {r4, r5, r6, r7, r8, r9, sl, fp, lr}
1000a494:	4682      	mov	sl, r0
1000a496:	4688      	mov	r8, r1
1000a498:	2001      	movs	r0, #1
1000a49a:	2120      	movs	r1, #32
1000a49c:	b083      	sub	sp, #12
1000a49e:	4691      	mov	r9, r2
1000a4a0:	f7fd fe0a 	bl	100080b8 <__wrap_calloc>
1000a4a4:	4605      	mov	r5, r0
1000a4a6:	f1b8 0f00 	cmp.w	r8, #0
1000a4aa:	d119      	bne.n	1000a4e0 <_Z21audio_new_buffer_poolP19audio_buffer_formatii+0x50>
1000a4ac:	f8da 3000 	ldr.w	r3, [sl]
1000a4b0:	f8cd 8000 	str.w	r8, [sp]
1000a4b4:	6043      	str	r3, [r0, #4]
1000a4b6:	2006      	movs	r0, #6
1000a4b8:	f7fb f9ee 	bl	10005898 <spin_lock_init>
1000a4bc:	4603      	mov	r3, r0
1000a4be:	9a00      	ldr	r2, [sp, #0]
1000a4c0:	2007      	movs	r0, #7
1000a4c2:	e9c5 3203 	strd	r3, r2, [r5, #12]
1000a4c6:	f7fb f9e7 	bl	10005898 <spin_lock_init>
1000a4ca:	2300      	movs	r3, #0
1000a4cc:	4601      	mov	r1, r0
1000a4ce:	4628      	mov	r0, r5
1000a4d0:	4a23      	ldr	r2, [pc, #140]	@ (1000a560 <_Z21audio_new_buffer_poolP19audio_buffer_formatii+0xd0>)
1000a4d2:	e9c5 1305 	strd	r1, r3, [r5, #20]
1000a4d6:	61eb      	str	r3, [r5, #28]
1000a4d8:	60aa      	str	r2, [r5, #8]
1000a4da:	b003      	add	sp, #12
1000a4dc:	e8bd 8ff0 	ldmia.w	sp!, {r4, r5, r6, r7, r8, r9, sl, fp, pc}
1000a4e0:	2118      	movs	r1, #24
1000a4e2:	4640      	mov	r0, r8
1000a4e4:	f7fd fde8 	bl	100080b8 <__wrap_calloc>
1000a4e8:	f8da 2000 	ldr.w	r2, [sl]
1000a4ec:	f1b8 0f00 	cmp.w	r8, #0
1000a4f0:	9000      	str	r0, [sp, #0]
1000a4f2:	606a      	str	r2, [r5, #4]
1000a4f4:	dddf      	ble.n	1000a4b6 <_Z21audio_new_buffer_poolP19audio_buffer_formatii+0x26>
1000a4f6:	f8ba 7004 	ldrh.w	r7, [sl, #4]
1000a4fa:	9501      	str	r5, [sp, #4]
1000a4fc:	4655      	mov	r5, sl
1000a4fe:	f04f 0a00 	mov.w	sl, #0
1000a502:	fb09 f707 	mul.w	r7, r9, r7
1000a506:	f108 3bff 	add.w	fp, r8, #4294967295	@ 0xffffffff
1000a50a:	f100 0418 	add.w	r4, r0, #24
1000a50e:	200c      	movs	r0, #12
1000a510:	f844 5c14 	str.w	r5, [r4, #-20]
1000a514:	f7fd fdb4 	bl	10008080 <__wrap_malloc>
1000a518:	4606      	mov	r6, r0
1000a51a:	b1f0      	cbz	r0, 1000a55a <_Z21audio_new_buffer_poolP19audio_buffer_formatii+0xca>
1000a51c:	4639      	mov	r1, r7
1000a51e:	2001      	movs	r0, #1
1000a520:	f7fd fdca 	bl	100080b8 <__wrap_calloc>
1000a524:	6070      	str	r0, [r6, #4]
1000a526:	b1a8      	cbz	r0, 1000a554 <_Z21audio_new_buffer_poolP19audio_buffer_formatii+0xc4>
1000a528:	6037      	str	r7, [r6, #0]
1000a52a:	2300      	movs	r3, #0
1000a52c:	45da      	cmp	sl, fp
1000a52e:	bf14      	ite	ne
1000a530:	4622      	movne	r2, r4
1000a532:	2200      	moveq	r2, #0
1000a534:	f10a 0a01 	add.w	sl, sl, #1
1000a538:	f844 6c18 	str.w	r6, [r4, #-24]
1000a53c:	f844 9c0c 	str.w	r9, [r4, #-12]
1000a540:	f844 3c10 	str.w	r3, [r4, #-16]
1000a544:	45d0      	cmp	r8, sl
1000a546:	f104 0418 	add.w	r4, r4, #24
1000a54a:	f844 2c1c 	str.w	r2, [r4, #-28]
1000a54e:	d1de      	bne.n	1000a50e <_Z21audio_new_buffer_poolP19audio_buffer_formatii+0x7e>
1000a550:	9d01      	ldr	r5, [sp, #4]
1000a552:	e7b0      	b.n	1000a4b6 <_Z21audio_new_buffer_poolP19audio_buffer_formatii+0x26>
1000a554:	4630      	mov	r0, r6
1000a556:	f7fd fdcf 	bl	100080f8 <__wrap_free>
1000a55a:	2600      	movs	r6, #0
1000a55c:	e7e5      	b.n	1000a52a <_Z21audio_new_buffer_poolP19audio_buffer_formatii+0x9a>
1000a55e:	bf00      	nop
1000a560:	200013bc 	.word	0x200013bc

1000a564 <audio_new_producer_pool>:
1000a564:	b508      	push	{r3, lr}
1000a566:	f7ff ff93 	bl	1000a490 <_Z21audio_new_buffer_poolP19audio_buffer_formatii>
1000a56a:	2300      	movs	r3, #0
1000a56c:	7003      	strb	r3, [r0, #0]
1000a56e:	bd08      	pop	{r3, pc}

1000a570 <audio_new_consumer_pool>:
1000a570:	b508      	push	{r3, lr}
1000a572:	f7ff ff8d 	bl	1000a490 <_Z21audio_new_buffer_poolP19audio_buffer_formatii>
1000a576:	2301      	movs	r3, #1
1000a578:	7003      	strb	r3, [r0, #0]
1000a57a:	bd08      	pop	{r3, pc}

1000a57c <audio_complete_connection>:
1000a57c:	6088      	str	r0, [r1, #8]
1000a57e:	6090      	str	r0, [r2, #8]
1000a580:	e9c0 1204 	strd	r1, r2, [r0, #16]
1000a584:	4770      	bx	lr
1000a586:	bf00      	nop

1000a588 <give_audio_buffer>:
1000a588:	2200      	movs	r2, #0
1000a58a:	7803      	ldrb	r3, [r0, #0]
1000a58c:	6880      	ldr	r0, [r0, #8]
1000a58e:	610a      	str	r2, [r1, #16]
1000a590:	b90b      	cbnz	r3, 1000a596 <give_audio_buffer+0xe>
1000a592:	6843      	ldr	r3, [r0, #4]
1000a594:	4718      	bx	r3
1000a596:	68c3      	ldr	r3, [r0, #12]
1000a598:	4718      	bx	r3
1000a59a:	bf00      	nop

1000a59c <take_audio_buffer>:
1000a59c:	7803      	ldrb	r3, [r0, #0]
1000a59e:	6880      	ldr	r0, [r0, #8]
1000a5a0:	b90b      	cbnz	r3, 1000a5a6 <take_audio_buffer+0xa>
1000a5a2:	6803      	ldr	r3, [r0, #0]
1000a5a4:	4718      	bx	r3
1000a5a6:	6883      	ldr	r3, [r0, #8]
1000a5a8:	4718      	bx	r3
1000a5aa:	bf00      	nop

1000a5ac <stereo_to_stereo_consumer_take>:
1000a5ac:	6943      	ldr	r3, [r0, #20]
1000a5ae:	e92d 41f0 	stmdb	sp!, {r4, r5, r6, r7, r8, lr}
1000a5b2:	460f      	mov	r7, r1
1000a5b4:	4606      	mov	r6, r0
1000a5b6:	68d9      	ldr	r1, [r3, #12]
1000a5b8:	f3ef 8010 	mrs	r0, PRIMASK
1000a5bc:	b672      	cpsid	i
1000a5be:	4602      	mov	r2, r0
1000a5c0:	e8d1 5fcf 	ldaexb	r5, [r1]
1000a5c4:	2401      	movs	r4, #1
1000a5c6:	2d00      	cmp	r5, #0
1000a5c8:	d1fa      	bne.n	1000a5c0 <stereo_to_stereo_consumer_take+0x14>
1000a5ca:	e8c1 4f45 	strexb	r5, r4, [r1]
1000a5ce:	2d00      	cmp	r5, #0
1000a5d0:	d1f6      	bne.n	1000a5c0 <stereo_to_stereo_consumer_take+0x14>
1000a5d2:	f3bf 8f5f 	dmb	sy
1000a5d6:	f8d3 8010 	ldr.w	r8, [r3, #16]
1000a5da:	f1b8 0f00 	cmp.w	r8, #0
1000a5de:	f000 808c 	beq.w	1000a6fa <stereo_to_stereo_consumer_take+0x14e>
1000a5e2:	2500      	movs	r5, #0
1000a5e4:	f8d8 1014 	ldr.w	r1, [r8, #20]
1000a5e8:	68dc      	ldr	r4, [r3, #12]
1000a5ea:	6119      	str	r1, [r3, #16]
1000a5ec:	f8c8 5014 	str.w	r5, [r8, #20]
1000a5f0:	e8c4 5f8f 	stlb	r5, [r4]
1000a5f4:	f382 8810 	msr	PRIMASK, r2
1000a5f8:	f8d8 200c 	ldr.w	r2, [r8, #12]
1000a5fc:	2a00      	cmp	r2, #0
1000a5fe:	d077      	beq.n	1000a6f0 <stereo_to_stereo_consumer_take+0x144>
1000a600:	69b0      	ldr	r0, [r6, #24]
1000a602:	2800      	cmp	r0, #0
1000a604:	d04d      	beq.n	1000a6a2 <stereo_to_stereo_consumer_take+0xf6>
1000a606:	69f3      	ldr	r3, [r6, #28]
1000a608:	e003      	b.n	1000a612 <stereo_to_stereo_consumer_take+0x66>
1000a60a:	f8d8 200c 	ldr.w	r2, [r8, #12]
1000a60e:	4295      	cmp	r5, r2
1000a610:	d26d      	bcs.n	1000a6ee <stereo_to_stereo_consumer_take+0x142>
1000a612:	0099      	lsls	r1, r3, #2
1000a614:	6884      	ldr	r4, [r0, #8]
1000a616:	1b52      	subs	r2, r2, r5
1000a618:	1ae4      	subs	r4, r4, r3
1000a61a:	4294      	cmp	r4, r2
1000a61c:	bf28      	it	cs
1000a61e:	4614      	movcs	r4, r2
1000a620:	f8d8 3000 	ldr.w	r3, [r8]
1000a624:	6802      	ldr	r2, [r0, #0]
1000a626:	6858      	ldr	r0, [r3, #4]
1000a628:	6853      	ldr	r3, [r2, #4]
1000a62a:	eb00 0085 	add.w	r0, r0, r5, lsl #2
1000a62e:	4419      	add	r1, r3
1000a630:	00a2      	lsls	r2, r4, #2
1000a632:	f000 fc2f 	bl	1000ae94 <memcpy>
1000a636:	e9d6 0306 	ldrd	r0, r3, [r6, #24]
1000a63a:	6882      	ldr	r2, [r0, #8]
1000a63c:	4423      	add	r3, r4
1000a63e:	4293      	cmp	r3, r2
1000a640:	61f3      	str	r3, [r6, #28]
1000a642:	4425      	add	r5, r4
1000a644:	d1e1      	bne.n	1000a60a <stereo_to_stereo_consumer_take+0x5e>
1000a646:	6933      	ldr	r3, [r6, #16]
1000a648:	68da      	ldr	r2, [r3, #12]
1000a64a:	f3ef 8410 	mrs	r4, PRIMASK
1000a64e:	b672      	cpsid	i
1000a650:	e8d2 cfcf 	ldaexb	ip, [r2]
1000a654:	2101      	movs	r1, #1
1000a656:	f1bc 0f00 	cmp.w	ip, #0
1000a65a:	d1f9      	bne.n	1000a650 <stereo_to_stereo_consumer_take+0xa4>
1000a65c:	e8c2 1f4c 	strexb	ip, r1, [r2]
1000a660:	f1bc 0f00 	cmp.w	ip, #0
1000a664:	d1f4      	bne.n	1000a650 <stereo_to_stereo_consumer_take+0xa4>
1000a666:	f3bf 8f5f 	dmb	sy
1000a66a:	6919      	ldr	r1, [r3, #16]
1000a66c:	2200      	movs	r2, #0
1000a66e:	6141      	str	r1, [r0, #20]
1000a670:	68d9      	ldr	r1, [r3, #12]
1000a672:	6118      	str	r0, [r3, #16]
1000a674:	e8c1 2f8f 	stlb	r2, [r1]
1000a678:	f384 8810 	msr	PRIMASK, r4
1000a67c:	bf40      	sev
1000a67e:	f8d8 300c 	ldr.w	r3, [r8, #12]
1000a682:	61b2      	str	r2, [r6, #24]
1000a684:	429d      	cmp	r5, r3
1000a686:	d232      	bcs.n	1000a6ee <stereo_to_stereo_consumer_take+0x142>
1000a688:	4639      	mov	r1, r7
1000a68a:	6930      	ldr	r0, [r6, #16]
1000a68c:	f7ff feb2 	bl	1000a3f4 <get_full_audio_buffer>
1000a690:	61b0      	str	r0, [r6, #24]
1000a692:	2800      	cmp	r0, #0
1000a694:	d029      	beq.n	1000a6ea <stereo_to_stereo_consumer_take+0x13e>
1000a696:	2300      	movs	r3, #0
1000a698:	f8d8 200c 	ldr.w	r2, [r8, #12]
1000a69c:	4619      	mov	r1, r3
1000a69e:	61f3      	str	r3, [r6, #28]
1000a6a0:	e7b8      	b.n	1000a614 <stereo_to_stereo_consumer_take+0x68>
1000a6a2:	4639      	mov	r1, r7
1000a6a4:	6930      	ldr	r0, [r6, #16]
1000a6a6:	f7ff fea5 	bl	1000a3f4 <get_full_audio_buffer>
1000a6aa:	61b0      	str	r0, [r6, #24]
1000a6ac:	2800      	cmp	r0, #0
1000a6ae:	d1f2      	bne.n	1000a696 <stereo_to_stereo_consumer_take+0xea>
1000a6b0:	6973      	ldr	r3, [r6, #20]
1000a6b2:	68da      	ldr	r2, [r3, #12]
1000a6b4:	f3ef 8110 	mrs	r1, PRIMASK
1000a6b8:	b672      	cpsid	i
1000a6ba:	e8d2 4fcf 	ldaexb	r4, [r2]
1000a6be:	2001      	movs	r0, #1
1000a6c0:	2c00      	cmp	r4, #0
1000a6c2:	d1fa      	bne.n	1000a6ba <stereo_to_stereo_consumer_take+0x10e>
1000a6c4:	e8c2 0f44 	strexb	r4, r0, [r2]
1000a6c8:	2c00      	cmp	r4, #0
1000a6ca:	d1f6      	bne.n	1000a6ba <stereo_to_stereo_consumer_take+0x10e>
1000a6cc:	f3bf 8f5f 	dmb	sy
1000a6d0:	6918      	ldr	r0, [r3, #16]
1000a6d2:	2200      	movs	r2, #0
1000a6d4:	f8c8 0014 	str.w	r0, [r8, #20]
1000a6d8:	f8c3 8010 	str.w	r8, [r3, #16]
1000a6dc:	68db      	ldr	r3, [r3, #12]
1000a6de:	e8c3 2f8f 	stlb	r2, [r3]
1000a6e2:	f381 8810 	msr	PRIMASK, r1
1000a6e6:	bf40      	sev
1000a6e8:	e02a      	b.n	1000a740 <stereo_to_stereo_consumer_take+0x194>
1000a6ea:	2d00      	cmp	r5, #0
1000a6ec:	d0e0      	beq.n	1000a6b0 <stereo_to_stereo_consumer_take+0x104>
1000a6ee:	462a      	mov	r2, r5
1000a6f0:	4640      	mov	r0, r8
1000a6f2:	f8c8 2008 	str.w	r2, [r8, #8]
1000a6f6:	e8bd 81f0 	ldmia.w	sp!, {r4, r5, r6, r7, r8, pc}
1000a6fa:	b1e7      	cbz	r7, 1000a736 <stereo_to_stereo_consumer_take+0x18a>
1000a6fc:	4645      	mov	r5, r8
1000a6fe:	68dc      	ldr	r4, [r3, #12]
1000a700:	e8c4 5f8f 	stlb	r5, [r4]
1000a704:	f382 8810 	msr	PRIMASK, r2
1000a708:	bf20      	wfe
1000a70a:	68dc      	ldr	r4, [r3, #12]
1000a70c:	f3ef 8210 	mrs	r2, PRIMASK
1000a710:	b672      	cpsid	i
1000a712:	e8d4 1fcf 	ldaexb	r1, [r4]
1000a716:	2001      	movs	r0, #1
1000a718:	2900      	cmp	r1, #0
1000a71a:	d1fa      	bne.n	1000a712 <stereo_to_stereo_consumer_take+0x166>
1000a71c:	e8c4 0f41 	strexb	r1, r0, [r4]
1000a720:	2900      	cmp	r1, #0
1000a722:	d1f6      	bne.n	1000a712 <stereo_to_stereo_consumer_take+0x166>
1000a724:	f3bf 8f5f 	dmb	sy
1000a728:	f8d3 8010 	ldr.w	r8, [r3, #16]
1000a72c:	f1b8 0f00 	cmp.w	r8, #0
1000a730:	f47f af57 	bne.w	1000a5e2 <stereo_to_stereo_consumer_take+0x36>
1000a734:	e7e3      	b.n	1000a6fe <stereo_to_stereo_consumer_take+0x152>
1000a736:	68db      	ldr	r3, [r3, #12]
1000a738:	e8c3 7f8f 	stlb	r7, [r3]
1000a73c:	f380 8810 	msr	PRIMASK, r0
1000a740:	f04f 0800 	mov.w	r8, #0
1000a744:	4640      	mov	r0, r8
1000a746:	e8bd 81f0 	ldmia.w	sp!, {r4, r5, r6, r7, r8, pc}
1000a74a:	bf00      	nop

1000a74c <calloc>:
1000a74c:	4b02      	ldr	r3, [pc, #8]	@ (1000a758 <calloc+0xc>)
1000a74e:	460a      	mov	r2, r1
1000a750:	4601      	mov	r1, r0
1000a752:	6818      	ldr	r0, [r3, #0]
1000a754:	f000 b802 	b.w	1000a75c <_calloc_r>
1000a758:	200017e8 	.word	0x200017e8

1000a75c <_calloc_r>:
1000a75c:	b510      	push	{r4, lr}
1000a75e:	fba1 1402 	umull	r1, r4, r1, r2
1000a762:	b082      	sub	sp, #8
1000a764:	bb54      	cbnz	r4, 1000a7bc <_calloc_r+0x60>
1000a766:	f000 f847 	bl	1000a7f8 <_malloc_r>
1000a76a:	4603      	mov	r3, r0
1000a76c:	b350      	cbz	r0, 1000a7c4 <_calloc_r+0x68>
1000a76e:	f850 2c04 	ldr.w	r2, [r0, #-4]
1000a772:	f022 0203 	bic.w	r2, r2, #3
1000a776:	3a04      	subs	r2, #4
1000a778:	2a24      	cmp	r2, #36	@ 0x24
1000a77a:	d80c      	bhi.n	1000a796 <_calloc_r+0x3a>
1000a77c:	2a13      	cmp	r2, #19
1000a77e:	d912      	bls.n	1000a7a6 <_calloc_r+0x4a>
1000a780:	2a1b      	cmp	r2, #27
1000a782:	e9c0 4400 	strd	r4, r4, [r0]
1000a786:	d916      	bls.n	1000a7b6 <_calloc_r+0x5a>
1000a788:	2a24      	cmp	r2, #36	@ 0x24
1000a78a:	e9c0 4402 	strd	r4, r4, [r0, #8]
1000a78e:	d01d      	beq.n	1000a7cc <_calloc_r+0x70>
1000a790:	f100 0110 	add.w	r1, r0, #16
1000a794:	e008      	b.n	1000a7a8 <_calloc_r+0x4c>
1000a796:	4621      	mov	r1, r4
1000a798:	9001      	str	r0, [sp, #4]
1000a79a:	f000 fb0d 	bl	1000adb8 <memset>
1000a79e:	9b01      	ldr	r3, [sp, #4]
1000a7a0:	4618      	mov	r0, r3
1000a7a2:	b002      	add	sp, #8
1000a7a4:	bd10      	pop	{r4, pc}
1000a7a6:	4601      	mov	r1, r0
1000a7a8:	2200      	movs	r2, #0
1000a7aa:	4618      	mov	r0, r3
1000a7ac:	e9c1 2200 	strd	r2, r2, [r1]
1000a7b0:	608a      	str	r2, [r1, #8]
1000a7b2:	b002      	add	sp, #8
1000a7b4:	bd10      	pop	{r4, pc}
1000a7b6:	f100 0108 	add.w	r1, r0, #8
1000a7ba:	e7f5      	b.n	1000a7a8 <_calloc_r+0x4c>
1000a7bc:	f000 fb52 	bl	1000ae64 <__errno>
1000a7c0:	230c      	movs	r3, #12
1000a7c2:	6003      	str	r3, [r0, #0]
1000a7c4:	2300      	movs	r3, #0
1000a7c6:	4618      	mov	r0, r3
1000a7c8:	b002      	add	sp, #8
1000a7ca:	bd10      	pop	{r4, pc}
1000a7cc:	f100 0118 	add.w	r1, r0, #24
1000a7d0:	e9c0 4404 	strd	r4, r4, [r0, #16]
1000a7d4:	e7e8      	b.n	1000a7a8 <_calloc_r+0x4c>
1000a7d6:	bf00      	nop

1000a7d8 <malloc>:
1000a7d8:	4b02      	ldr	r3, [pc, #8]	@ (1000a7e4 <malloc+0xc>)
1000a7da:	4601      	mov	r1, r0
1000a7dc:	6818      	ldr	r0, [r3, #0]
1000a7de:	f000 b80b 	b.w	1000a7f8 <_malloc_r>
1000a7e2:	bf00      	nop
1000a7e4:	200017e8 	.word	0x200017e8

1000a7e8 <free>:
1000a7e8:	4b02      	ldr	r3, [pc, #8]	@ (1000a7f4 <free+0xc>)
1000a7ea:	4601      	mov	r1, r0
1000a7ec:	6818      	ldr	r0, [r3, #0]
1000a7ee:	f000 bc4b 	b.w	1000b088 <_free_r>
1000a7f2:	bf00      	nop
1000a7f4:	200017e8 	.word	0x200017e8

1000a7f8 <_malloc_r>:
1000a7f8:	f101 030b 	add.w	r3, r1, #11
1000a7fc:	2b16      	cmp	r3, #22
1000a7fe:	e92d 4ff0 	stmdb	sp!, {r4, r5, r6, r7, r8, r9, sl, fp, lr}
1000a802:	4680      	mov	r8, r0
1000a804:	b085      	sub	sp, #20
1000a806:	d82c      	bhi.n	1000a862 <_malloc_r+0x6a>
1000a808:	2910      	cmp	r1, #16
1000a80a:	d822      	bhi.n	1000a852 <_malloc_r+0x5a>
1000a80c:	f000 fac8 	bl	1000ada0 <__malloc_lock>
1000a810:	2118      	movs	r1, #24
1000a812:	f04f 0e02 	mov.w	lr, #2
1000a816:	2210      	movs	r2, #16
1000a818:	4cb6      	ldr	r4, [pc, #728]	@ (1000aaf4 <_malloc_r+0x2fc>)
1000a81a:	4421      	add	r1, r4
1000a81c:	684d      	ldr	r5, [r1, #4]
1000a81e:	f1a1 0008 	sub.w	r0, r1, #8
1000a822:	4285      	cmp	r5, r0
1000a824:	f000 815f 	beq.w	1000aae6 <_malloc_r+0x2ee>
1000a828:	686a      	ldr	r2, [r5, #4]
1000a82a:	4640      	mov	r0, r8
1000a82c:	f022 0203 	bic.w	r2, r2, #3
1000a830:	e9d5 4102 	ldrd	r4, r1, [r5, #8]
1000a834:	442a      	add	r2, r5
1000a836:	60e1      	str	r1, [r4, #12]
1000a838:	608c      	str	r4, [r1, #8]
1000a83a:	f105 0408 	add.w	r4, r5, #8
1000a83e:	6851      	ldr	r1, [r2, #4]
1000a840:	f041 0101 	orr.w	r1, r1, #1
1000a844:	6051      	str	r1, [r2, #4]
1000a846:	f000 fab1 	bl	1000adac <__malloc_unlock>
1000a84a:	4620      	mov	r0, r4
1000a84c:	b005      	add	sp, #20
1000a84e:	e8bd 8ff0 	ldmia.w	sp!, {r4, r5, r6, r7, r8, r9, sl, fp, pc}
1000a852:	230c      	movs	r3, #12
1000a854:	f8c8 3000 	str.w	r3, [r8]
1000a858:	2400      	movs	r4, #0
1000a85a:	4620      	mov	r0, r4
1000a85c:	b005      	add	sp, #20
1000a85e:	e8bd 8ff0 	ldmia.w	sp!, {r4, r5, r6, r7, r8, r9, sl, fp, pc}
1000a862:	2b00      	cmp	r3, #0
1000a864:	f023 0207 	bic.w	r2, r3, #7
1000a868:	dbf3      	blt.n	1000a852 <_malloc_r+0x5a>
1000a86a:	4291      	cmp	r1, r2
1000a86c:	d8f1      	bhi.n	1000a852 <_malloc_r+0x5a>
1000a86e:	9200      	str	r2, [sp, #0]
1000a870:	f000 fa96 	bl	1000ada0 <__malloc_lock>
1000a874:	9a00      	ldr	r2, [sp, #0]
1000a876:	f5b2 7ffc 	cmp.w	r2, #504	@ 0x1f8
1000a87a:	f0c0 819f 	bcc.w	1000abbc <_malloc_r+0x3c4>
1000a87e:	0a53      	lsrs	r3, r2, #9
1000a880:	d073      	beq.n	1000a96a <_malloc_r+0x172>
1000a882:	2b04      	cmp	r3, #4
1000a884:	f200 8164 	bhi.w	1000ab50 <_malloc_r+0x358>
1000a888:	0993      	lsrs	r3, r2, #6
1000a88a:	f103 0e39 	add.w	lr, r3, #57	@ 0x39
1000a88e:	f103 0638 	add.w	r6, r3, #56	@ 0x38
1000a892:	ea4f 03ce 	mov.w	r3, lr, lsl #3
1000a896:	4c97      	ldr	r4, [pc, #604]	@ (1000aaf4 <_malloc_r+0x2fc>)
1000a898:	4423      	add	r3, r4
1000a89a:	f1a3 0508 	sub.w	r5, r3, #8
1000a89e:	685f      	ldr	r7, [r3, #4]
1000a8a0:	42bd      	cmp	r5, r7
1000a8a2:	d107      	bne.n	1000a8b4 <_malloc_r+0xbc>
1000a8a4:	e00d      	b.n	1000a8c2 <_malloc_r+0xca>
1000a8a6:	2800      	cmp	r0, #0
1000a8a8:	68fb      	ldr	r3, [r7, #12]
1000a8aa:	f280 810b 	bge.w	1000aac4 <_malloc_r+0x2cc>
1000a8ae:	429d      	cmp	r5, r3
1000a8b0:	461f      	mov	r7, r3
1000a8b2:	d006      	beq.n	1000a8c2 <_malloc_r+0xca>
1000a8b4:	6879      	ldr	r1, [r7, #4]
1000a8b6:	f021 0103 	bic.w	r1, r1, #3
1000a8ba:	1a88      	subs	r0, r1, r2
1000a8bc:	280f      	cmp	r0, #15
1000a8be:	ddf2      	ble.n	1000a8a6 <_malloc_r+0xae>
1000a8c0:	46b6      	mov	lr, r6
1000a8c2:	6923      	ldr	r3, [r4, #16]
1000a8c4:	498c      	ldr	r1, [pc, #560]	@ (1000aaf8 <_malloc_r+0x300>)
1000a8c6:	428b      	cmp	r3, r1
1000a8c8:	f000 80e9 	beq.w	1000aa9e <_malloc_r+0x2a6>
1000a8cc:	685e      	ldr	r6, [r3, #4]
1000a8ce:	f026 0603 	bic.w	r6, r6, #3
1000a8d2:	1ab1      	subs	r1, r6, r2
1000a8d4:	290f      	cmp	r1, #15
1000a8d6:	f300 8183 	bgt.w	1000abe0 <_malloc_r+0x3e8>
1000a8da:	4887      	ldr	r0, [pc, #540]	@ (1000aaf8 <_malloc_r+0x300>)
1000a8dc:	2900      	cmp	r1, #0
1000a8de:	e9c4 0004 	strd	r0, r0, [r4, #16]
1000a8e2:	f280 8170 	bge.w	1000abc6 <_malloc_r+0x3ce>
1000a8e6:	f5b6 7f00 	cmp.w	r6, #512	@ 0x200
1000a8ea:	6867      	ldr	r7, [r4, #4]
1000a8ec:	f080 8110 	bcs.w	1000ab10 <_malloc_r+0x318>
1000a8f0:	08f1      	lsrs	r1, r6, #3
1000a8f2:	2001      	movs	r0, #1
1000a8f4:	0976      	lsrs	r6, r6, #5
1000a8f6:	3101      	adds	r1, #1
1000a8f8:	40b0      	lsls	r0, r6
1000a8fa:	f854 5031 	ldr.w	r5, [r4, r1, lsl #3]
1000a8fe:	4307      	orrs	r7, r0
1000a900:	eb04 00c1 	add.w	r0, r4, r1, lsl #3
1000a904:	3808      	subs	r0, #8
1000a906:	6067      	str	r7, [r4, #4]
1000a908:	e9c3 5002 	strd	r5, r0, [r3, #8]
1000a90c:	f844 3031 	str.w	r3, [r4, r1, lsl #3]
1000a910:	60eb      	str	r3, [r5, #12]
1000a912:	ea4f 03ae 	mov.w	r3, lr, asr #2
1000a916:	2601      	movs	r6, #1
1000a918:	409e      	lsls	r6, r3
1000a91a:	42be      	cmp	r6, r7
1000a91c:	d82b      	bhi.n	1000a976 <_malloc_r+0x17e>
1000a91e:	423e      	tst	r6, r7
1000a920:	d106      	bne.n	1000a930 <_malloc_r+0x138>
1000a922:	f02e 0e03 	bic.w	lr, lr, #3
1000a926:	0076      	lsls	r6, r6, #1
1000a928:	f10e 0e04 	add.w	lr, lr, #4
1000a92c:	423e      	tst	r6, r7
1000a92e:	d0fa      	beq.n	1000a926 <_malloc_r+0x12e>
1000a930:	eb04 0ace 	add.w	sl, r4, lr, lsl #3
1000a934:	46f1      	mov	r9, lr
1000a936:	eb04 07ce 	add.w	r7, r4, lr, lsl #3
1000a93a:	68f9      	ldr	r1, [r7, #12]
1000a93c:	e00c      	b.n	1000a958 <_malloc_r+0x160>
1000a93e:	6848      	ldr	r0, [r1, #4]
1000a940:	460b      	mov	r3, r1
1000a942:	68c9      	ldr	r1, [r1, #12]
1000a944:	f020 0c03 	bic.w	ip, r0, #3
1000a948:	ebac 0502 	sub.w	r5, ip, r2
1000a94c:	2d0f      	cmp	r5, #15
1000a94e:	f300 810c 	bgt.w	1000ab6a <_malloc_r+0x372>
1000a952:	2d00      	cmp	r5, #0
1000a954:	f280 8122 	bge.w	1000ab9c <_malloc_r+0x3a4>
1000a958:	428f      	cmp	r7, r1
1000a95a:	d1f0      	bne.n	1000a93e <_malloc_r+0x146>
1000a95c:	f109 0301 	add.w	r3, r9, #1
1000a960:	3708      	adds	r7, #8
1000a962:	0798      	lsls	r0, r3, #30
1000a964:	4699      	mov	r9, r3
1000a966:	d1e8      	bne.n	1000a93a <_malloc_r+0x142>
1000a968:	e174      	b.n	1000ac54 <_malloc_r+0x45c>
1000a96a:	f44f 7300 	mov.w	r3, #512	@ 0x200
1000a96e:	f04f 0e40 	mov.w	lr, #64	@ 0x40
1000a972:	263f      	movs	r6, #63	@ 0x3f
1000a974:	e78f      	b.n	1000a896 <_malloc_r+0x9e>
1000a976:	68a7      	ldr	r7, [r4, #8]
1000a978:	6879      	ldr	r1, [r7, #4]
1000a97a:	f021 0603 	bic.w	r6, r1, #3
1000a97e:	4296      	cmp	r6, r2
1000a980:	eba6 0002 	sub.w	r0, r6, r2
1000a984:	d302      	bcc.n	1000a98c <_malloc_r+0x194>
1000a986:	280f      	cmp	r0, #15
1000a988:	f300 808b 	bgt.w	1000aaa2 <_malloc_r+0x2aa>
1000a98c:	495b      	ldr	r1, [pc, #364]	@ (1000aafc <_malloc_r+0x304>)
1000a98e:	2008      	movs	r0, #8
1000a990:	6809      	ldr	r1, [r1, #0]
1000a992:	3110      	adds	r1, #16
1000a994:	4411      	add	r1, r2
1000a996:	e9cd 1200 	strd	r1, r2, [sp]
1000a99a:	f000 fa69 	bl	1000ae70 <sysconf>
1000a99e:	9900      	ldr	r1, [sp, #0]
1000a9a0:	4603      	mov	r3, r0
1000a9a2:	4682      	mov	sl, r0
1000a9a4:	1e48      	subs	r0, r1, #1
1000a9a6:	425d      	negs	r5, r3
1000a9a8:	4418      	add	r0, r3
1000a9aa:	4b55      	ldr	r3, [pc, #340]	@ (1000ab00 <_malloc_r+0x308>)
1000a9ac:	4005      	ands	r5, r0
1000a9ae:	6818      	ldr	r0, [r3, #0]
1000a9b0:	f1b0 3fff 	cmp.w	r0, #4294967295	@ 0xffffffff
1000a9b4:	bf18      	it	ne
1000a9b6:	4629      	movne	r1, r5
1000a9b8:	4640      	mov	r0, r8
1000a9ba:	9100      	str	r1, [sp, #0]
1000a9bc:	f000 fa40 	bl	1000ae40 <_sbrk_r>
1000a9c0:	1c41      	adds	r1, r0, #1
1000a9c2:	4605      	mov	r5, r0
1000a9c4:	e9dd 1200 	ldrd	r1, r2, [sp]
1000a9c8:	f000 8127 	beq.w	1000ac1a <_malloc_r+0x422>
1000a9cc:	eb07 0c06 	add.w	ip, r7, r6
1000a9d0:	4584      	cmp	ip, r0
1000a9d2:	f200 8120 	bhi.w	1000ac16 <_malloc_r+0x41e>
1000a9d6:	f8df 9134 	ldr.w	r9, [pc, #308]	@ 1000ab0c <_malloc_r+0x314>
1000a9da:	f10a 3eff 	add.w	lr, sl, #4294967295	@ 0xffffffff
1000a9de:	f8d9 0000 	ldr.w	r0, [r9]
1000a9e2:	4408      	add	r0, r1
1000a9e4:	f8c9 0000 	str.w	r0, [r9]
1000a9e8:	f000 8183 	beq.w	1000acf2 <_malloc_r+0x4fa>
1000a9ec:	4b44      	ldr	r3, [pc, #272]	@ (1000ab00 <_malloc_r+0x308>)
1000a9ee:	681b      	ldr	r3, [r3, #0]
1000a9f0:	3301      	adds	r3, #1
1000a9f2:	f000 8188 	beq.w	1000ad06 <_malloc_r+0x50e>
1000a9f6:	eba5 0c0c 	sub.w	ip, r5, ip
1000a9fa:	4460      	add	r0, ip
1000a9fc:	f8c9 0000 	str.w	r0, [r9]
1000aa00:	f015 0307 	ands.w	r3, r5, #7
1000aa04:	e9cd 2901 	strd	r2, r9, [sp, #4]
1000aa08:	469b      	mov	fp, r3
1000aa0a:	f000 813f 	beq.w	1000ac8c <_malloc_r+0x494>
1000aa0e:	f1c3 0008 	rsb	r0, r3, #8
1000aa12:	4405      	add	r5, r0
1000aa14:	eb0a 0c00 	add.w	ip, sl, r0
1000aa18:	4640      	mov	r0, r8
1000aa1a:	186b      	adds	r3, r5, r1
1000aa1c:	ea03 010e 	and.w	r1, r3, lr
1000aa20:	469a      	mov	sl, r3
1000aa22:	ebac 0101 	sub.w	r1, ip, r1
1000aa26:	ea01 030e 	and.w	r3, r1, lr
1000aa2a:	4619      	mov	r1, r3
1000aa2c:	9300      	str	r3, [sp, #0]
1000aa2e:	f000 fa07 	bl	1000ae40 <_sbrk_r>
1000aa32:	1c42      	adds	r2, r0, #1
1000aa34:	e9dd 2901 	ldrd	r2, r9, [sp, #4]
1000aa38:	f000 8180 	beq.w	1000ad3c <_malloc_r+0x544>
1000aa3c:	1b41      	subs	r1, r0, r5
1000aa3e:	9b00      	ldr	r3, [sp, #0]
1000aa40:	f8d9 0000 	ldr.w	r0, [r9]
1000aa44:	42a7      	cmp	r7, r4
1000aa46:	4419      	add	r1, r3
1000aa48:	60a5      	str	r5, [r4, #8]
1000aa4a:	4418      	add	r0, r3
1000aa4c:	f041 0101 	orr.w	r1, r1, #1
1000aa50:	f8c9 0000 	str.w	r0, [r9]
1000aa54:	6069      	str	r1, [r5, #4]
1000aa56:	d016      	beq.n	1000aa86 <_malloc_r+0x28e>
1000aa58:	2e0f      	cmp	r6, #15
1000aa5a:	f240 8157 	bls.w	1000ad0c <_malloc_r+0x514>
1000aa5e:	f1a6 010c 	sub.w	r1, r6, #12
1000aa62:	2605      	movs	r6, #5
1000aa64:	f021 0c07 	bic.w	ip, r1, #7
1000aa68:	6879      	ldr	r1, [r7, #4]
1000aa6a:	f001 0101 	and.w	r1, r1, #1
1000aa6e:	f1bc 0f0f 	cmp.w	ip, #15
1000aa72:	ea41 010c 	orr.w	r1, r1, ip
1000aa76:	6079      	str	r1, [r7, #4]
1000aa78:	eb07 010c 	add.w	r1, r7, ip
1000aa7c:	e9c1 6601 	strd	r6, r6, [r1, #4]
1000aa80:	f200 8163 	bhi.w	1000ad4a <_malloc_r+0x552>
1000aa84:	6869      	ldr	r1, [r5, #4]
1000aa86:	4b1f      	ldr	r3, [pc, #124]	@ (1000ab04 <_malloc_r+0x30c>)
1000aa88:	681e      	ldr	r6, [r3, #0]
1000aa8a:	4286      	cmp	r6, r0
1000aa8c:	bf38      	it	cc
1000aa8e:	6018      	strcc	r0, [r3, #0]
1000aa90:	4b1d      	ldr	r3, [pc, #116]	@ (1000ab08 <_malloc_r+0x310>)
1000aa92:	681e      	ldr	r6, [r3, #0]
1000aa94:	4286      	cmp	r6, r0
1000aa96:	d200      	bcs.n	1000aa9a <_malloc_r+0x2a2>
1000aa98:	6018      	str	r0, [r3, #0]
1000aa9a:	462f      	mov	r7, r5
1000aa9c:	e0bf      	b.n	1000ac1e <_malloc_r+0x426>
1000aa9e:	6867      	ldr	r7, [r4, #4]
1000aaa0:	e737      	b.n	1000a912 <_malloc_r+0x11a>
1000aaa2:	18bd      	adds	r5, r7, r2
1000aaa4:	f042 0201 	orr.w	r2, r2, #1
1000aaa8:	f040 0101 	orr.w	r1, r0, #1
1000aaac:	4640      	mov	r0, r8
1000aaae:	607a      	str	r2, [r7, #4]
1000aab0:	60a5      	str	r5, [r4, #8]
1000aab2:	f107 0408 	add.w	r4, r7, #8
1000aab6:	6069      	str	r1, [r5, #4]
1000aab8:	f000 f978 	bl	1000adac <__malloc_unlock>
1000aabc:	4620      	mov	r0, r4
1000aabe:	b005      	add	sp, #20
1000aac0:	e8bd 8ff0 	ldmia.w	sp!, {r4, r5, r6, r7, r8, r9, sl, fp, pc}
1000aac4:	68ba      	ldr	r2, [r7, #8]
1000aac6:	4439      	add	r1, r7
1000aac8:	f107 0408 	add.w	r4, r7, #8
1000aacc:	4640      	mov	r0, r8
1000aace:	60d3      	str	r3, [r2, #12]
1000aad0:	609a      	str	r2, [r3, #8]
1000aad2:	684a      	ldr	r2, [r1, #4]
1000aad4:	f042 0201 	orr.w	r2, r2, #1
1000aad8:	604a      	str	r2, [r1, #4]
1000aada:	f000 f967 	bl	1000adac <__malloc_unlock>
1000aade:	4620      	mov	r0, r4
1000aae0:	b005      	add	sp, #20
1000aae2:	e8bd 8ff0 	ldmia.w	sp!, {r4, r5, r6, r7, r8, r9, sl, fp, pc}
1000aae6:	68cd      	ldr	r5, [r1, #12]
1000aae8:	42a9      	cmp	r1, r5
1000aaea:	f47f ae9d 	bne.w	1000a828 <_malloc_r+0x30>
1000aaee:	f10e 0e02 	add.w	lr, lr, #2
1000aaf2:	e6e6      	b.n	1000a8c2 <_malloc_r+0xca>
1000aaf4:	200013e0 	.word	0x200013e0
1000aaf8:	200013e8 	.word	0x200013e8
1000aafc:	200082f4 	.word	0x200082f4
1000ab00:	200013d4 	.word	0x200013d4
1000ab04:	200082ec 	.word	0x200082ec
1000ab08:	200082f0 	.word	0x200082f0
1000ab0c:	200082c4 	.word	0x200082c4
1000ab10:	f5b6 6f20 	cmp.w	r6, #2560	@ 0xa00
1000ab14:	ea4f 2056 	mov.w	r0, r6, lsr #9
1000ab18:	d377      	bcc.n	1000ac0a <_malloc_r+0x412>
1000ab1a:	2814      	cmp	r0, #20
1000ab1c:	f200 80cc 	bhi.w	1000acb8 <_malloc_r+0x4c0>
1000ab20:	f100 015c 	add.w	r1, r0, #92	@ 0x5c
1000ab24:	305b      	adds	r0, #91	@ 0x5b
1000ab26:	00c9      	lsls	r1, r1, #3
1000ab28:	1865      	adds	r5, r4, r1
1000ab2a:	5861      	ldr	r1, [r4, r1]
1000ab2c:	3d08      	subs	r5, #8
1000ab2e:	428d      	cmp	r5, r1
1000ab30:	d103      	bne.n	1000ab3a <_malloc_r+0x342>
1000ab32:	e0a4      	b.n	1000ac7e <_malloc_r+0x486>
1000ab34:	6889      	ldr	r1, [r1, #8]
1000ab36:	428d      	cmp	r5, r1
1000ab38:	d004      	beq.n	1000ab44 <_malloc_r+0x34c>
1000ab3a:	6848      	ldr	r0, [r1, #4]
1000ab3c:	f020 0003 	bic.w	r0, r0, #3
1000ab40:	42b0      	cmp	r0, r6
1000ab42:	d8f7      	bhi.n	1000ab34 <_malloc_r+0x33c>
1000ab44:	68cd      	ldr	r5, [r1, #12]
1000ab46:	e9c3 1502 	strd	r1, r5, [r3, #8]
1000ab4a:	60ab      	str	r3, [r5, #8]
1000ab4c:	60cb      	str	r3, [r1, #12]
1000ab4e:	e6e0      	b.n	1000a912 <_malloc_r+0x11a>
1000ab50:	2b14      	cmp	r3, #20
1000ab52:	d971      	bls.n	1000ac38 <_malloc_r+0x440>
1000ab54:	2b54      	cmp	r3, #84	@ 0x54
1000ab56:	f200 80b7 	bhi.w	1000acc8 <_malloc_r+0x4d0>
1000ab5a:	0b13      	lsrs	r3, r2, #12
1000ab5c:	f103 0e6f 	add.w	lr, r3, #111	@ 0x6f
1000ab60:	f103 066e 	add.w	r6, r3, #110	@ 0x6e
1000ab64:	ea4f 03ce 	mov.w	r3, lr, lsl #3
1000ab68:	e695      	b.n	1000a896 <_malloc_r+0x9e>
1000ab6a:	189e      	adds	r6, r3, r2
1000ab6c:	f042 0201 	orr.w	r2, r2, #1
1000ab70:	689f      	ldr	r7, [r3, #8]
1000ab72:	4640      	mov	r0, r8
1000ab74:	605a      	str	r2, [r3, #4]
1000ab76:	4a87      	ldr	r2, [pc, #540]	@ (1000ad94 <_malloc_r+0x59c>)
1000ab78:	60f9      	str	r1, [r7, #12]
1000ab7a:	608f      	str	r7, [r1, #8]
1000ab7c:	9300      	str	r3, [sp, #0]
1000ab7e:	e9c4 6604 	strd	r6, r6, [r4, #16]
1000ab82:	e9c6 2202 	strd	r2, r2, [r6, #8]
1000ab86:	f045 0201 	orr.w	r2, r5, #1
1000ab8a:	6072      	str	r2, [r6, #4]
1000ab8c:	f843 500c 	str.w	r5, [r3, ip]
1000ab90:	f000 f90c 	bl	1000adac <__malloc_unlock>
1000ab94:	9b00      	ldr	r3, [sp, #0]
1000ab96:	f103 0408 	add.w	r4, r3, #8
1000ab9a:	e65e      	b.n	1000a85a <_malloc_r+0x62>
1000ab9c:	449c      	add	ip, r3
1000ab9e:	461c      	mov	r4, r3
1000aba0:	4640      	mov	r0, r8
1000aba2:	f8dc 3004 	ldr.w	r3, [ip, #4]
1000aba6:	f043 0301 	orr.w	r3, r3, #1
1000abaa:	f8cc 3004 	str.w	r3, [ip, #4]
1000abae:	f854 3f08 	ldr.w	r3, [r4, #8]!
1000abb2:	60d9      	str	r1, [r3, #12]
1000abb4:	608b      	str	r3, [r1, #8]
1000abb6:	f000 f8f9 	bl	1000adac <__malloc_unlock>
1000abba:	e64e      	b.n	1000a85a <_malloc_r+0x62>
1000abbc:	ea4f 0ed2 	mov.w	lr, r2, lsr #3
1000abc0:	f102 0108 	add.w	r1, r2, #8
1000abc4:	e628      	b.n	1000a818 <_malloc_r+0x20>
1000abc6:	441e      	add	r6, r3
1000abc8:	4640      	mov	r0, r8
1000abca:	9300      	str	r3, [sp, #0]
1000abcc:	6872      	ldr	r2, [r6, #4]
1000abce:	f042 0201 	orr.w	r2, r2, #1
1000abd2:	6072      	str	r2, [r6, #4]
1000abd4:	f000 f8ea 	bl	1000adac <__malloc_unlock>
1000abd8:	9b00      	ldr	r3, [sp, #0]
1000abda:	f103 0408 	add.w	r4, r3, #8
1000abde:	e63c      	b.n	1000a85a <_malloc_r+0x62>
1000abe0:	189d      	adds	r5, r3, r2
1000abe2:	f042 0201 	orr.w	r2, r2, #1
1000abe6:	4640      	mov	r0, r8
1000abe8:	9300      	str	r3, [sp, #0]
1000abea:	605a      	str	r2, [r3, #4]
1000abec:	4a69      	ldr	r2, [pc, #420]	@ (1000ad94 <_malloc_r+0x59c>)
1000abee:	e9c4 5504 	strd	r5, r5, [r4, #16]
1000abf2:	e9c5 2202 	strd	r2, r2, [r5, #8]
1000abf6:	f041 0201 	orr.w	r2, r1, #1
1000abfa:	606a      	str	r2, [r5, #4]
1000abfc:	5199      	str	r1, [r3, r6]
1000abfe:	f000 f8d5 	bl	1000adac <__malloc_unlock>
1000ac02:	9b00      	ldr	r3, [sp, #0]
1000ac04:	f103 0408 	add.w	r4, r3, #8
1000ac08:	e627      	b.n	1000a85a <_malloc_r+0x62>
1000ac0a:	09b0      	lsrs	r0, r6, #6
1000ac0c:	f100 0139 	add.w	r1, r0, #57	@ 0x39
1000ac10:	3038      	adds	r0, #56	@ 0x38
1000ac12:	00c9      	lsls	r1, r1, #3
1000ac14:	e788      	b.n	1000ab28 <_malloc_r+0x330>
1000ac16:	42a7      	cmp	r7, r4
1000ac18:	d061      	beq.n	1000acde <_malloc_r+0x4e6>
1000ac1a:	68a7      	ldr	r7, [r4, #8]
1000ac1c:	6879      	ldr	r1, [r7, #4]
1000ac1e:	f021 0103 	bic.w	r1, r1, #3
1000ac22:	4291      	cmp	r1, r2
1000ac24:	eba1 0002 	sub.w	r0, r1, r2
1000ac28:	d302      	bcc.n	1000ac30 <_malloc_r+0x438>
1000ac2a:	280f      	cmp	r0, #15
1000ac2c:	f73f af39 	bgt.w	1000aaa2 <_malloc_r+0x2aa>
1000ac30:	4640      	mov	r0, r8
1000ac32:	f000 f8bb 	bl	1000adac <__malloc_unlock>
1000ac36:	e60f      	b.n	1000a858 <_malloc_r+0x60>
1000ac38:	f103 0e5c 	add.w	lr, r3, #92	@ 0x5c
1000ac3c:	f103 065b 	add.w	r6, r3, #91	@ 0x5b
1000ac40:	ea4f 03ce 	mov.w	r3, lr, lsl #3
1000ac44:	e627      	b.n	1000a896 <_malloc_r+0x9e>
1000ac46:	4651      	mov	r1, sl
1000ac48:	f851 3908 	ldr.w	r3, [r1], #-8
1000ac4c:	428b      	cmp	r3, r1
1000ac4e:	468a      	mov	sl, r1
1000ac50:	f040 809e 	bne.w	1000ad90 <_malloc_r+0x598>
1000ac54:	f01e 0f03 	tst.w	lr, #3
1000ac58:	f10e 3eff 	add.w	lr, lr, #4294967295	@ 0xffffffff
1000ac5c:	d1f3      	bne.n	1000ac46 <_malloc_r+0x44e>
1000ac5e:	6863      	ldr	r3, [r4, #4]
1000ac60:	ea23 0306 	bic.w	r3, r3, r6
1000ac64:	6063      	str	r3, [r4, #4]
1000ac66:	0076      	lsls	r6, r6, #1
1000ac68:	1e71      	subs	r1, r6, #1
1000ac6a:	4299      	cmp	r1, r3
1000ac6c:	d303      	bcc.n	1000ac76 <_malloc_r+0x47e>
1000ac6e:	e682      	b.n	1000a976 <_malloc_r+0x17e>
1000ac70:	0076      	lsls	r6, r6, #1
1000ac72:	f109 0904 	add.w	r9, r9, #4
1000ac76:	421e      	tst	r6, r3
1000ac78:	d0fa      	beq.n	1000ac70 <_malloc_r+0x478>
1000ac7a:	46ce      	mov	lr, r9
1000ac7c:	e658      	b.n	1000a930 <_malloc_r+0x138>
1000ac7e:	1080      	asrs	r0, r0, #2
1000ac80:	2601      	movs	r6, #1
1000ac82:	fa06 f000 	lsl.w	r0, r6, r0
1000ac86:	4307      	orrs	r7, r0
1000ac88:	6067      	str	r7, [r4, #4]
1000ac8a:	e75c      	b.n	1000ab46 <_malloc_r+0x34e>
1000ac8c:	186b      	adds	r3, r5, r1
1000ac8e:	4640      	mov	r0, r8
1000ac90:	ea03 010e 	and.w	r1, r3, lr
1000ac94:	9303      	str	r3, [sp, #12]
1000ac96:	ebaa 0101 	sub.w	r1, sl, r1
1000ac9a:	ea01 030e 	and.w	r3, r1, lr
1000ac9e:	4619      	mov	r1, r3
1000aca0:	9300      	str	r3, [sp, #0]
1000aca2:	f000 f8cd 	bl	1000ae40 <_sbrk_r>
1000aca6:	1c43      	adds	r3, r0, #1
1000aca8:	e9dd 2901 	ldrd	r2, r9, [sp, #4]
1000acac:	f47f aec6 	bne.w	1000aa3c <_malloc_r+0x244>
1000acb0:	9803      	ldr	r0, [sp, #12]
1000acb2:	f8cd b000 	str.w	fp, [sp]
1000acb6:	e6c1      	b.n	1000aa3c <_malloc_r+0x244>
1000acb8:	2854      	cmp	r0, #84	@ 0x54
1000acba:	d82a      	bhi.n	1000ad12 <_malloc_r+0x51a>
1000acbc:	0b30      	lsrs	r0, r6, #12
1000acbe:	f100 016f 	add.w	r1, r0, #111	@ 0x6f
1000acc2:	306e      	adds	r0, #110	@ 0x6e
1000acc4:	00c9      	lsls	r1, r1, #3
1000acc6:	e72f      	b.n	1000ab28 <_malloc_r+0x330>
1000acc8:	f5b3 7faa 	cmp.w	r3, #340	@ 0x154
1000accc:	d82a      	bhi.n	1000ad24 <_malloc_r+0x52c>
1000acce:	0bd3      	lsrs	r3, r2, #15
1000acd0:	f103 0e78 	add.w	lr, r3, #120	@ 0x78
1000acd4:	f103 0677 	add.w	r6, r3, #119	@ 0x77
1000acd8:	ea4f 03ce 	mov.w	r3, lr, lsl #3
1000acdc:	e5db      	b.n	1000a896 <_malloc_r+0x9e>
1000acde:	f8df 90bc 	ldr.w	r9, [pc, #188]	@ 1000ad9c <_malloc_r+0x5a4>
1000ace2:	f10a 3eff 	add.w	lr, sl, #4294967295	@ 0xffffffff
1000ace6:	f8d9 0000 	ldr.w	r0, [r9]
1000acea:	4408      	add	r0, r1
1000acec:	f8c9 0000 	str.w	r0, [r9]
1000acf0:	e67c      	b.n	1000a9ec <_malloc_r+0x1f4>
1000acf2:	ea15 0f0e 	tst.w	r5, lr
1000acf6:	f47f ae79 	bne.w	1000a9ec <_malloc_r+0x1f4>
1000acfa:	4431      	add	r1, r6
1000acfc:	68a5      	ldr	r5, [r4, #8]
1000acfe:	f041 0101 	orr.w	r1, r1, #1
1000ad02:	6069      	str	r1, [r5, #4]
1000ad04:	e6bf      	b.n	1000aa86 <_malloc_r+0x28e>
1000ad06:	4b24      	ldr	r3, [pc, #144]	@ (1000ad98 <_malloc_r+0x5a0>)
1000ad08:	601d      	str	r5, [r3, #0]
1000ad0a:	e679      	b.n	1000aa00 <_malloc_r+0x208>
1000ad0c:	2301      	movs	r3, #1
1000ad0e:	606b      	str	r3, [r5, #4]
1000ad10:	e78e      	b.n	1000ac30 <_malloc_r+0x438>
1000ad12:	f5b0 7faa 	cmp.w	r0, #340	@ 0x154
1000ad16:	d827      	bhi.n	1000ad68 <_malloc_r+0x570>
1000ad18:	0bf0      	lsrs	r0, r6, #15
1000ad1a:	f100 0178 	add.w	r1, r0, #120	@ 0x78
1000ad1e:	3077      	adds	r0, #119	@ 0x77
1000ad20:	00c9      	lsls	r1, r1, #3
1000ad22:	e701      	b.n	1000ab28 <_malloc_r+0x330>
1000ad24:	f240 5154 	movw	r1, #1364	@ 0x554
1000ad28:	428b      	cmp	r3, r1
1000ad2a:	d827      	bhi.n	1000ad7c <_malloc_r+0x584>
1000ad2c:	0c93      	lsrs	r3, r2, #18
1000ad2e:	f103 0e7d 	add.w	lr, r3, #125	@ 0x7d
1000ad32:	f103 067c 	add.w	r6, r3, #124	@ 0x7c
1000ad36:	ea4f 03ce 	mov.w	r3, lr, lsl #3
1000ad3a:	e5ac      	b.n	1000a896 <_malloc_r+0x9e>
1000ad3c:	f1ab 0108 	sub.w	r1, fp, #8
1000ad40:	2300      	movs	r3, #0
1000ad42:	eb0a 0001 	add.w	r0, sl, r1
1000ad46:	9300      	str	r3, [sp, #0]
1000ad48:	e678      	b.n	1000aa3c <_malloc_r+0x244>
1000ad4a:	f107 0108 	add.w	r1, r7, #8
1000ad4e:	4640      	mov	r0, r8
1000ad50:	e9cd 2900 	strd	r2, r9, [sp]
1000ad54:	f000 f998 	bl	1000b088 <_free_r>
1000ad58:	68a5      	ldr	r5, [r4, #8]
1000ad5a:	f8dd 9004 	ldr.w	r9, [sp, #4]
1000ad5e:	6869      	ldr	r1, [r5, #4]
1000ad60:	f8d9 0000 	ldr.w	r0, [r9]
1000ad64:	9a00      	ldr	r2, [sp, #0]
1000ad66:	e68e      	b.n	1000aa86 <_malloc_r+0x28e>
1000ad68:	f240 5154 	movw	r1, #1364	@ 0x554
1000ad6c:	4288      	cmp	r0, r1
1000ad6e:	d80b      	bhi.n	1000ad88 <_malloc_r+0x590>
1000ad70:	0cb0      	lsrs	r0, r6, #18
1000ad72:	f100 017d 	add.w	r1, r0, #125	@ 0x7d
1000ad76:	307c      	adds	r0, #124	@ 0x7c
1000ad78:	00c9      	lsls	r1, r1, #3
1000ad7a:	e6d5      	b.n	1000ab28 <_malloc_r+0x330>
1000ad7c:	f44f 737e 	mov.w	r3, #1016	@ 0x3f8
1000ad80:	f04f 0e7f 	mov.w	lr, #127	@ 0x7f
1000ad84:	267e      	movs	r6, #126	@ 0x7e
1000ad86:	e586      	b.n	1000a896 <_malloc_r+0x9e>
1000ad88:	f44f 717e 	mov.w	r1, #1016	@ 0x3f8
1000ad8c:	207e      	movs	r0, #126	@ 0x7e
1000ad8e:	e6cb      	b.n	1000ab28 <_malloc_r+0x330>
1000ad90:	6863      	ldr	r3, [r4, #4]
1000ad92:	e768      	b.n	1000ac66 <_malloc_r+0x46e>
1000ad94:	200013e8 	.word	0x200013e8
1000ad98:	200013d4 	.word	0x200013d4
1000ad9c:	200082c4 	.word	0x200082c4

1000ada0 <__malloc_lock>:
1000ada0:	4801      	ldr	r0, [pc, #4]	@ (1000ada8 <__malloc_lock+0x8>)
1000ada2:	f000 b873 	b.w	1000ae8c <__retarget_lock_acquire_recursive>
1000ada6:	bf00      	nop
1000ada8:	200082c0 	.word	0x200082c0

1000adac <__malloc_unlock>:
1000adac:	4801      	ldr	r0, [pc, #4]	@ (1000adb4 <__malloc_unlock+0x8>)
1000adae:	f000 b86f 	b.w	1000ae90 <__retarget_lock_release_recursive>
1000adb2:	bf00      	nop
1000adb4:	200082c0 	.word	0x200082c0

1000adb8 <memset>:
1000adb8:	b530      	push	{r4, r5, lr}
1000adba:	0784      	lsls	r4, r0, #30
1000adbc:	4686      	mov	lr, r0
1000adbe:	4603      	mov	r3, r0
1000adc0:	d006      	beq.n	1000add0 <memset+0x18>
1000adc2:	b3a2      	cbz	r2, 1000ae2e <memset+0x76>
1000adc4:	f803 1b01 	strb.w	r1, [r3], #1
1000adc8:	0798      	lsls	r0, r3, #30
1000adca:	f102 32ff 	add.w	r2, r2, #4294967295	@ 0xffffffff
1000adce:	d1f8      	bne.n	1000adc2 <memset+0xa>
1000add0:	2a03      	cmp	r2, #3
1000add2:	d926      	bls.n	1000ae22 <memset+0x6a>
1000add4:	fa5f fc81 	uxtb.w	ip, r1
1000add8:	2a0f      	cmp	r2, #15
1000adda:	eb0c 2c0c 	add.w	ip, ip, ip, lsl #8
1000adde:	eb0c 400c 	add.w	r0, ip, ip, lsl #16
1000ade2:	d92a      	bls.n	1000ae3a <memset+0x82>
1000ade4:	f022 0c0f 	bic.w	ip, r2, #15
1000ade8:	449c      	add	ip, r3
1000adea:	e9c3 0000 	strd	r0, r0, [r3]
1000adee:	e9c3 0002 	strd	r0, r0, [r3, #8]
1000adf2:	3310      	adds	r3, #16
1000adf4:	4563      	cmp	r3, ip
1000adf6:	d1f8      	bne.n	1000adea <memset+0x32>
1000adf8:	f012 0f0c 	tst.w	r2, #12
1000adfc:	f002 050f 	and.w	r5, r2, #15
1000ae00:	d017      	beq.n	1000ae32 <memset+0x7a>
1000ae02:	ea4f 0c95 	mov.w	ip, r5, lsr #2
1000ae06:	461a      	mov	r2, r3
1000ae08:	f10c 34ff 	add.w	r4, ip, #4294967295	@ 0xffffffff
1000ae0c:	eb03 0c8c 	add.w	ip, r3, ip, lsl #2
1000ae10:	f842 0b04 	str.w	r0, [r2], #4
1000ae14:	4562      	cmp	r2, ip
1000ae16:	d1fb      	bne.n	1000ae10 <memset+0x58>
1000ae18:	3304      	adds	r3, #4
1000ae1a:	f005 0203 	and.w	r2, r5, #3
1000ae1e:	eb03 0384 	add.w	r3, r3, r4, lsl #2
1000ae22:	b122      	cbz	r2, 1000ae2e <memset+0x76>
1000ae24:	441a      	add	r2, r3
1000ae26:	f803 1b01 	strb.w	r1, [r3], #1
1000ae2a:	429a      	cmp	r2, r3
1000ae2c:	d1fb      	bne.n	1000ae26 <memset+0x6e>
1000ae2e:	4670      	mov	r0, lr
1000ae30:	bd30      	pop	{r4, r5, pc}
1000ae32:	462a      	mov	r2, r5
1000ae34:	2a00      	cmp	r2, #0
1000ae36:	d1f5      	bne.n	1000ae24 <memset+0x6c>
1000ae38:	e7f9      	b.n	1000ae2e <memset+0x76>
1000ae3a:	4615      	mov	r5, r2
1000ae3c:	e7e1      	b.n	1000ae02 <memset+0x4a>
1000ae3e:	bf00      	nop

1000ae40 <_sbrk_r>:
1000ae40:	b538      	push	{r3, r4, r5, lr}
1000ae42:	2300      	movs	r3, #0
1000ae44:	4c06      	ldr	r4, [pc, #24]	@ (1000ae60 <_sbrk_r+0x20>)
1000ae46:	4605      	mov	r5, r0
1000ae48:	4608      	mov	r0, r1
1000ae4a:	6023      	str	r3, [r4, #0]
1000ae4c:	f7fe fcde 	bl	1000980c <_sbrk>
1000ae50:	1c43      	adds	r3, r0, #1
1000ae52:	d000      	beq.n	1000ae56 <_sbrk_r+0x16>
1000ae54:	bd38      	pop	{r3, r4, r5, pc}
1000ae56:	6823      	ldr	r3, [r4, #0]
1000ae58:	2b00      	cmp	r3, #0
1000ae5a:	d0fb      	beq.n	1000ae54 <_sbrk_r+0x14>
1000ae5c:	602b      	str	r3, [r5, #0]
1000ae5e:	bd38      	pop	{r3, r4, r5, pc}
1000ae60:	20008acc 	.word	0x20008acc

1000ae64 <__errno>:
1000ae64:	4b01      	ldr	r3, [pc, #4]	@ (1000ae6c <__errno+0x8>)
1000ae66:	6818      	ldr	r0, [r3, #0]
1000ae68:	4770      	bx	lr
1000ae6a:	bf00      	nop
1000ae6c:	200017e8 	.word	0x200017e8

1000ae70 <sysconf>:
1000ae70:	2808      	cmp	r0, #8
1000ae72:	d102      	bne.n	1000ae7a <sysconf+0xa>
1000ae74:	f44f 5080 	mov.w	r0, #4096	@ 0x1000
1000ae78:	4770      	bx	lr
1000ae7a:	b508      	push	{r3, lr}
1000ae7c:	f7ff fff2 	bl	1000ae64 <__errno>
1000ae80:	2216      	movs	r2, #22
1000ae82:	4603      	mov	r3, r0
1000ae84:	f04f 30ff 	mov.w	r0, #4294967295	@ 0xffffffff
1000ae88:	601a      	str	r2, [r3, #0]
1000ae8a:	bd08      	pop	{r3, pc}

1000ae8c <__retarget_lock_acquire_recursive>:
1000ae8c:	4770      	bx	lr
1000ae8e:	bf00      	nop

1000ae90 <__retarget_lock_release_recursive>:
1000ae90:	4770      	bx	lr
1000ae92:	bf00      	nop

1000ae94 <memcpy>:
1000ae94:	4684      	mov	ip, r0
1000ae96:	ea41 0300 	orr.w	r3, r1, r0
1000ae9a:	f013 0303 	ands.w	r3, r3, #3
1000ae9e:	d149      	bne.n	1000af34 <memcpy+0xa0>
1000aea0:	3a40      	subs	r2, #64	@ 0x40
1000aea2:	d323      	bcc.n	1000aeec <memcpy+0x58>
1000aea4:	680b      	ldr	r3, [r1, #0]
1000aea6:	6003      	str	r3, [r0, #0]
1000aea8:	684b      	ldr	r3, [r1, #4]
1000aeaa:	6043      	str	r3, [r0, #4]
1000aeac:	688b      	ldr	r3, [r1, #8]
1000aeae:	6083      	str	r3, [r0, #8]
1000aeb0:	68cb      	ldr	r3, [r1, #12]
1000aeb2:	60c3      	str	r3, [r0, #12]
1000aeb4:	690b      	ldr	r3, [r1, #16]
1000aeb6:	6103      	str	r3, [r0, #16]
1000aeb8:	694b      	ldr	r3, [r1, #20]
1000aeba:	6143      	str	r3, [r0, #20]
1000aebc:	698b      	ldr	r3, [r1, #24]
1000aebe:	6183      	str	r3, [r0, #24]
1000aec0:	69cb      	ldr	r3, [r1, #28]
1000aec2:	61c3      	str	r3, [r0, #28]
1000aec4:	6a0b      	ldr	r3, [r1, #32]
1000aec6:	6203      	str	r3, [r0, #32]
1000aec8:	6a4b      	ldr	r3, [r1, #36]	@ 0x24
1000aeca:	6243      	str	r3, [r0, #36]	@ 0x24
1000aecc:	6a8b      	ldr	r3, [r1, #40]	@ 0x28
1000aece:	6283      	str	r3, [r0, #40]	@ 0x28
1000aed0:	6acb      	ldr	r3, [r1, #44]	@ 0x2c
1000aed2:	62c3      	str	r3, [r0, #44]	@ 0x2c
1000aed4:	6b0b      	ldr	r3, [r1, #48]	@ 0x30
1000aed6:	6303      	str	r3, [r0, #48]	@ 0x30
1000aed8:	6b4b      	ldr	r3, [r1, #52]	@ 0x34
1000aeda:	6343      	str	r3, [r0, #52]	@ 0x34
1000aedc:	6b8b      	ldr	r3, [r1, #56]	@ 0x38
1000aede:	6383      	str	r3, [r0, #56]	@ 0x38
1000aee0:	6bcb      	ldr	r3, [r1, #60]	@ 0x3c
1000aee2:	63c3      	str	r3, [r0, #60]	@ 0x3c
1000aee4:	3040      	adds	r0, #64	@ 0x40
1000aee6:	3140      	adds	r1, #64	@ 0x40
1000aee8:	3a40      	subs	r2, #64	@ 0x40
1000aeea:	d2db      	bcs.n	1000aea4 <memcpy+0x10>
1000aeec:	3230      	adds	r2, #48	@ 0x30
1000aeee:	d30b      	bcc.n	1000af08 <memcpy+0x74>
1000aef0:	680b      	ldr	r3, [r1, #0]
1000aef2:	6003      	str	r3, [r0, #0]
1000aef4:	684b      	ldr	r3, [r1, #4]
1000aef6:	6043      	str	r3, [r0, #4]
1000aef8:	688b      	ldr	r3, [r1, #8]
1000aefa:	6083      	str	r3, [r0, #8]
1000aefc:	68cb      	ldr	r3, [r1, #12]
1000aefe:	60c3      	str	r3, [r0, #12]
1000af00:	3010      	adds	r0, #16
1000af02:	3110      	adds	r1, #16
1000af04:	3a10      	subs	r2, #16
1000af06:	d2f3      	bcs.n	1000aef0 <memcpy+0x5c>
1000af08:	320c      	adds	r2, #12
1000af0a:	d305      	bcc.n	1000af18 <memcpy+0x84>
1000af0c:	f851 3b04 	ldr.w	r3, [r1], #4
1000af10:	f840 3b04 	str.w	r3, [r0], #4
1000af14:	3a04      	subs	r2, #4
1000af16:	d2f9      	bcs.n	1000af0c <memcpy+0x78>
1000af18:	3204      	adds	r2, #4
1000af1a:	d008      	beq.n	1000af2e <memcpy+0x9a>
1000af1c:	07d2      	lsls	r2, r2, #31
1000af1e:	bf1c      	itt	ne
1000af20:	f811 3b01 	ldrbne.w	r3, [r1], #1
1000af24:	f800 3b01 	strbne.w	r3, [r0], #1
1000af28:	d301      	bcc.n	1000af2e <memcpy+0x9a>
1000af2a:	880b      	ldrh	r3, [r1, #0]
1000af2c:	8003      	strh	r3, [r0, #0]
1000af2e:	4660      	mov	r0, ip
1000af30:	4770      	bx	lr
1000af32:	bf00      	nop
1000af34:	2a08      	cmp	r2, #8
1000af36:	d313      	bcc.n	1000af60 <memcpy+0xcc>
1000af38:	078b      	lsls	r3, r1, #30
1000af3a:	d0b1      	beq.n	1000aea0 <memcpy+0xc>
1000af3c:	f010 0303 	ands.w	r3, r0, #3
1000af40:	d0ae      	beq.n	1000aea0 <memcpy+0xc>
1000af42:	f1c3 0304 	rsb	r3, r3, #4
1000af46:	1ad2      	subs	r2, r2, r3
1000af48:	07db      	lsls	r3, r3, #31
1000af4a:	bf1c      	itt	ne
1000af4c:	f811 3b01 	ldrbne.w	r3, [r1], #1
1000af50:	f800 3b01 	strbne.w	r3, [r0], #1
1000af54:	d3a4      	bcc.n	1000aea0 <memcpy+0xc>
1000af56:	f831 3b02 	ldrh.w	r3, [r1], #2
1000af5a:	f820 3b02 	strh.w	r3, [r0], #2
1000af5e:	e79f      	b.n	1000aea0 <memcpy+0xc>
1000af60:	3a04      	subs	r2, #4
1000af62:	d3d9      	bcc.n	1000af18 <memcpy+0x84>
1000af64:	3a01      	subs	r2, #1
1000af66:	f811 3b01 	ldrb.w	r3, [r1], #1
1000af6a:	f800 3b01 	strb.w	r3, [r0], #1
1000af6e:	d2f9      	bcs.n	1000af64 <memcpy+0xd0>
1000af70:	780b      	ldrb	r3, [r1, #0]
1000af72:	7003      	strb	r3, [r0, #0]
1000af74:	784b      	ldrb	r3, [r1, #1]
1000af76:	7043      	strb	r3, [r0, #1]
1000af78:	788b      	ldrb	r3, [r1, #2]
1000af7a:	7083      	strb	r3, [r0, #2]
1000af7c:	4660      	mov	r0, ip
1000af7e:	4770      	bx	lr

1000af80 <strlen>:
1000af80:	f020 0103 	bic.w	r1, r0, #3
1000af84:	f010 0003 	ands.w	r0, r0, #3
1000af88:	f1c0 0000 	rsb	r0, r0, #0
1000af8c:	f851 3b04 	ldr.w	r3, [r1], #4
1000af90:	f100 0c04 	add.w	ip, r0, #4
1000af94:	ea4f 0ccc 	mov.w	ip, ip, lsl #3
1000af98:	f06f 0200 	mvn.w	r2, #0
1000af9c:	bf1c      	itt	ne
1000af9e:	fa22 f20c 	lsrne.w	r2, r2, ip
1000afa2:	4313      	orrne	r3, r2
1000afa4:	f04f 0c01 	mov.w	ip, #1
1000afa8:	ea4c 2c0c 	orr.w	ip, ip, ip, lsl #8
1000afac:	ea4c 4c0c 	orr.w	ip, ip, ip, lsl #16
1000afb0:	eba3 020c 	sub.w	r2, r3, ip
1000afb4:	ea22 0203 	bic.w	r2, r2, r3
1000afb8:	ea12 12cc 	ands.w	r2, r2, ip, lsl #7
1000afbc:	bf04      	itt	eq
1000afbe:	f851 3b04 	ldreq.w	r3, [r1], #4
1000afc2:	3004      	addeq	r0, #4
1000afc4:	d0f4      	beq.n	1000afb0 <strlen+0x30>
1000afc6:	f1c2 0100 	rsb	r1, r2, #0
1000afca:	ea02 0201 	and.w	r2, r2, r1
1000afce:	fab2 f282 	clz	r2, r2
1000afd2:	f1c2 021f 	rsb	r2, r2, #31
1000afd6:	eb00 00d2 	add.w	r0, r0, r2, lsr #3
1000afda:	4770      	bx	lr

1000afdc <_malloc_trim_r>:
1000afdc:	b5f8      	push	{r3, r4, r5, r6, r7, lr}
1000afde:	4606      	mov	r6, r0
1000afe0:	2008      	movs	r0, #8
1000afe2:	460c      	mov	r4, r1
1000afe4:	f7ff ff44 	bl	1000ae70 <sysconf>
1000afe8:	4607      	mov	r7, r0
1000afea:	4630      	mov	r0, r6
1000afec:	f7ff fed8 	bl	1000ada0 <__malloc_lock>
1000aff0:	4a22      	ldr	r2, [pc, #136]	@ (1000b07c <_malloc_trim_r+0xa0>)
1000aff2:	6893      	ldr	r3, [r2, #8]
1000aff4:	685d      	ldr	r5, [r3, #4]
1000aff6:	f025 0503 	bic.w	r5, r5, #3
1000affa:	f1a5 0311 	sub.w	r3, r5, #17
1000affe:	1b1c      	subs	r4, r3, r4
1000b000:	443c      	add	r4, r7
1000b002:	fbb4 f4f7 	udiv	r4, r4, r7
1000b006:	3c01      	subs	r4, #1
1000b008:	fb07 f404 	mul.w	r4, r7, r4
1000b00c:	42a7      	cmp	r7, r4
1000b00e:	dc08      	bgt.n	1000b022 <_malloc_trim_r+0x46>
1000b010:	2100      	movs	r1, #0
1000b012:	4630      	mov	r0, r6
1000b014:	f7ff ff14 	bl	1000ae40 <_sbrk_r>
1000b018:	4a18      	ldr	r2, [pc, #96]	@ (1000b07c <_malloc_trim_r+0xa0>)
1000b01a:	6893      	ldr	r3, [r2, #8]
1000b01c:	442b      	add	r3, r5
1000b01e:	4298      	cmp	r0, r3
1000b020:	d004      	beq.n	1000b02c <_malloc_trim_r+0x50>
1000b022:	4630      	mov	r0, r6
1000b024:	f7ff fec2 	bl	1000adac <__malloc_unlock>
1000b028:	2000      	movs	r0, #0
1000b02a:	bdf8      	pop	{r3, r4, r5, r6, r7, pc}
1000b02c:	4261      	negs	r1, r4
1000b02e:	4630      	mov	r0, r6
1000b030:	f7ff ff06 	bl	1000ae40 <_sbrk_r>
1000b034:	3001      	adds	r0, #1
1000b036:	4a11      	ldr	r2, [pc, #68]	@ (1000b07c <_malloc_trim_r+0xa0>)
1000b038:	d00d      	beq.n	1000b056 <_malloc_trim_r+0x7a>
1000b03a:	1b2d      	subs	r5, r5, r4
1000b03c:	4910      	ldr	r1, [pc, #64]	@ (1000b080 <_malloc_trim_r+0xa4>)
1000b03e:	6893      	ldr	r3, [r2, #8]
1000b040:	4630      	mov	r0, r6
1000b042:	f045 0501 	orr.w	r5, r5, #1
1000b046:	605d      	str	r5, [r3, #4]
1000b048:	680b      	ldr	r3, [r1, #0]
1000b04a:	1b1b      	subs	r3, r3, r4
1000b04c:	600b      	str	r3, [r1, #0]
1000b04e:	f7ff fead 	bl	1000adac <__malloc_unlock>
1000b052:	2001      	movs	r0, #1
1000b054:	bdf8      	pop	{r3, r4, r5, r6, r7, pc}
1000b056:	2100      	movs	r1, #0
1000b058:	4630      	mov	r0, r6
1000b05a:	f7ff fef1 	bl	1000ae40 <_sbrk_r>
1000b05e:	4a07      	ldr	r2, [pc, #28]	@ (1000b07c <_malloc_trim_r+0xa0>)
1000b060:	6892      	ldr	r2, [r2, #8]
1000b062:	1a83      	subs	r3, r0, r2
1000b064:	2b0f      	cmp	r3, #15
1000b066:	dddc      	ble.n	1000b022 <_malloc_trim_r+0x46>
1000b068:	f043 0301 	orr.w	r3, r3, #1
1000b06c:	4904      	ldr	r1, [pc, #16]	@ (1000b080 <_malloc_trim_r+0xa4>)
1000b06e:	6053      	str	r3, [r2, #4]
1000b070:	4b04      	ldr	r3, [pc, #16]	@ (1000b084 <_malloc_trim_r+0xa8>)
1000b072:	681b      	ldr	r3, [r3, #0]
1000b074:	1ac0      	subs	r0, r0, r3
1000b076:	6008      	str	r0, [r1, #0]
1000b078:	e7d3      	b.n	1000b022 <_malloc_trim_r+0x46>
1000b07a:	bf00      	nop
1000b07c:	200013e0 	.word	0x200013e0
1000b080:	200082c4 	.word	0x200082c4
1000b084:	200013d4 	.word	0x200013d4

1000b088 <_free_r>:
1000b088:	2900      	cmp	r1, #0
1000b08a:	d062      	beq.n	1000b152 <_free_r+0xca>
1000b08c:	e92d 41f0 	stmdb	sp!, {r4, r5, r6, r7, r8, lr}
1000b090:	460c      	mov	r4, r1
1000b092:	4607      	mov	r7, r0
1000b094:	f7ff fe84 	bl	1000ada0 <__malloc_lock>
1000b098:	497a      	ldr	r1, [pc, #488]	@ (1000b284 <_free_r+0x1fc>)
1000b09a:	f854 ec04 	ldr.w	lr, [r4, #-4]
1000b09e:	f1a4 0c08 	sub.w	ip, r4, #8
1000b0a2:	688d      	ldr	r5, [r1, #8]
1000b0a4:	f02e 0301 	bic.w	r3, lr, #1
1000b0a8:	f00e 0601 	and.w	r6, lr, #1
1000b0ac:	eb0c 0203 	add.w	r2, ip, r3
1000b0b0:	6850      	ldr	r0, [r2, #4]
1000b0b2:	4295      	cmp	r5, r2
1000b0b4:	f020 0003 	bic.w	r0, r0, #3
1000b0b8:	f000 8087 	beq.w	1000b1ca <_free_r+0x142>
1000b0bc:	1815      	adds	r5, r2, r0
1000b0be:	6050      	str	r0, [r2, #4]
1000b0c0:	686d      	ldr	r5, [r5, #4]
1000b0c2:	f005 0501 	and.w	r5, r5, #1
1000b0c6:	46a8      	mov	r8, r5
1000b0c8:	bb96      	cbnz	r6, 1000b130 <_free_r+0xa8>
1000b0ca:	f854 4c08 	ldr.w	r4, [r4, #-8]
1000b0ce:	f101 0e08 	add.w	lr, r1, #8
1000b0d2:	ebac 0c04 	sub.w	ip, ip, r4
1000b0d6:	4423      	add	r3, r4
1000b0d8:	f8dc 4008 	ldr.w	r4, [ip, #8]
1000b0dc:	4574      	cmp	r4, lr
1000b0de:	d067      	beq.n	1000b1b0 <_free_r+0x128>
1000b0e0:	f8dc 500c 	ldr.w	r5, [ip, #12]
1000b0e4:	60e5      	str	r5, [r4, #12]
1000b0e6:	60ac      	str	r4, [r5, #8]
1000b0e8:	f1b8 0f00 	cmp.w	r8, #0
1000b0ec:	f000 8088 	beq.w	1000b200 <_free_r+0x178>
1000b0f0:	f043 0001 	orr.w	r0, r3, #1
1000b0f4:	f8cc 0004 	str.w	r0, [ip, #4]
1000b0f8:	6013      	str	r3, [r2, #0]
1000b0fa:	f5b3 7f00 	cmp.w	r3, #512	@ 0x200
1000b0fe:	d232      	bcs.n	1000b166 <_free_r+0xde>
1000b100:	0958      	lsrs	r0, r3, #5
1000b102:	08da      	lsrs	r2, r3, #3
1000b104:	2301      	movs	r3, #1
1000b106:	4083      	lsls	r3, r0
1000b108:	6848      	ldr	r0, [r1, #4]
1000b10a:	3201      	adds	r2, #1
1000b10c:	4303      	orrs	r3, r0
1000b10e:	f851 0032 	ldr.w	r0, [r1, r2, lsl #3]
1000b112:	604b      	str	r3, [r1, #4]
1000b114:	eb01 03c2 	add.w	r3, r1, r2, lsl #3
1000b118:	3b08      	subs	r3, #8
1000b11a:	e9cc 0302 	strd	r0, r3, [ip, #8]
1000b11e:	f841 c032 	str.w	ip, [r1, r2, lsl #3]
1000b122:	f8c0 c00c 	str.w	ip, [r0, #12]
1000b126:	4638      	mov	r0, r7
1000b128:	e8bd 41f0 	ldmia.w	sp!, {r4, r5, r6, r7, r8, lr}
1000b12c:	f7ff be3e 	b.w	1000adac <__malloc_unlock>
1000b130:	b985      	cbnz	r5, 1000b154 <_free_r+0xcc>
1000b132:	4403      	add	r3, r0
1000b134:	f101 0e08 	add.w	lr, r1, #8
1000b138:	6890      	ldr	r0, [r2, #8]
1000b13a:	f043 0401 	orr.w	r4, r3, #1
1000b13e:	4570      	cmp	r0, lr
1000b140:	d077      	beq.n	1000b232 <_free_r+0x1aa>
1000b142:	68d2      	ldr	r2, [r2, #12]
1000b144:	60c2      	str	r2, [r0, #12]
1000b146:	6090      	str	r0, [r2, #8]
1000b148:	f8cc 4004 	str.w	r4, [ip, #4]
1000b14c:	f84c 3003 	str.w	r3, [ip, r3]
1000b150:	e7d3      	b.n	1000b0fa <_free_r+0x72>
1000b152:	4770      	bx	lr
1000b154:	f04e 0201 	orr.w	r2, lr, #1
1000b158:	f5b3 7f00 	cmp.w	r3, #512	@ 0x200
1000b15c:	f844 2c04 	str.w	r2, [r4, #-4]
1000b160:	f84c 3003 	str.w	r3, [ip, r3]
1000b164:	d3cc      	bcc.n	1000b100 <_free_r+0x78>
1000b166:	f5b3 6f20 	cmp.w	r3, #2560	@ 0xa00
1000b16a:	ea4f 2253 	mov.w	r2, r3, lsr #9
1000b16e:	d249      	bcs.n	1000b204 <_free_r+0x17c>
1000b170:	099a      	lsrs	r2, r3, #6
1000b172:	f102 0039 	add.w	r0, r2, #57	@ 0x39
1000b176:	f102 0438 	add.w	r4, r2, #56	@ 0x38
1000b17a:	00c2      	lsls	r2, r0, #3
1000b17c:	1888      	adds	r0, r1, r2
1000b17e:	588a      	ldr	r2, [r1, r2]
1000b180:	3808      	subs	r0, #8
1000b182:	4290      	cmp	r0, r2
1000b184:	d103      	bne.n	1000b18e <_free_r+0x106>
1000b186:	e05d      	b.n	1000b244 <_free_r+0x1bc>
1000b188:	6892      	ldr	r2, [r2, #8]
1000b18a:	4290      	cmp	r0, r2
1000b18c:	d004      	beq.n	1000b198 <_free_r+0x110>
1000b18e:	6851      	ldr	r1, [r2, #4]
1000b190:	f021 0103 	bic.w	r1, r1, #3
1000b194:	4299      	cmp	r1, r3
1000b196:	d8f7      	bhi.n	1000b188 <_free_r+0x100>
1000b198:	68d0      	ldr	r0, [r2, #12]
1000b19a:	e9cc 2002 	strd	r2, r0, [ip, #8]
1000b19e:	f8c0 c008 	str.w	ip, [r0, #8]
1000b1a2:	4638      	mov	r0, r7
1000b1a4:	f8c2 c00c 	str.w	ip, [r2, #12]
1000b1a8:	e8bd 41f0 	ldmia.w	sp!, {r4, r5, r6, r7, r8, lr}
1000b1ac:	f7ff bdfe 	b.w	1000adac <__malloc_unlock>
1000b1b0:	bb9d      	cbnz	r5, 1000b21a <_free_r+0x192>
1000b1b2:	4418      	add	r0, r3
1000b1b4:	e9d2 2302 	ldrd	r2, r3, [r2, #8]
1000b1b8:	60d3      	str	r3, [r2, #12]
1000b1ba:	609a      	str	r2, [r3, #8]
1000b1bc:	f040 0301 	orr.w	r3, r0, #1
1000b1c0:	f8cc 3004 	str.w	r3, [ip, #4]
1000b1c4:	f84c 0000 	str.w	r0, [ip, r0]
1000b1c8:	e7ad      	b.n	1000b126 <_free_r+0x9e>
1000b1ca:	4418      	add	r0, r3
1000b1cc:	b946      	cbnz	r6, 1000b1e0 <_free_r+0x158>
1000b1ce:	f854 3c08 	ldr.w	r3, [r4, #-8]
1000b1d2:	ebac 0c03 	sub.w	ip, ip, r3
1000b1d6:	4418      	add	r0, r3
1000b1d8:	e9dc 2302 	ldrd	r2, r3, [ip, #8]
1000b1dc:	60d3      	str	r3, [r2, #12]
1000b1de:	609a      	str	r2, [r3, #8]
1000b1e0:	f040 0301 	orr.w	r3, r0, #1
1000b1e4:	f8cc 3004 	str.w	r3, [ip, #4]
1000b1e8:	4b27      	ldr	r3, [pc, #156]	@ (1000b288 <_free_r+0x200>)
1000b1ea:	f8c1 c008 	str.w	ip, [r1, #8]
1000b1ee:	681b      	ldr	r3, [r3, #0]
1000b1f0:	4283      	cmp	r3, r0
1000b1f2:	d898      	bhi.n	1000b126 <_free_r+0x9e>
1000b1f4:	4b25      	ldr	r3, [pc, #148]	@ (1000b28c <_free_r+0x204>)
1000b1f6:	4638      	mov	r0, r7
1000b1f8:	6819      	ldr	r1, [r3, #0]
1000b1fa:	f7ff feef 	bl	1000afdc <_malloc_trim_r>
1000b1fe:	e792      	b.n	1000b126 <_free_r+0x9e>
1000b200:	4403      	add	r3, r0
1000b202:	e799      	b.n	1000b138 <_free_r+0xb0>
1000b204:	2a14      	cmp	r2, #20
1000b206:	d90e      	bls.n	1000b226 <_free_r+0x19e>
1000b208:	2a54      	cmp	r2, #84	@ 0x54
1000b20a:	d822      	bhi.n	1000b252 <_free_r+0x1ca>
1000b20c:	0b1a      	lsrs	r2, r3, #12
1000b20e:	f102 006f 	add.w	r0, r2, #111	@ 0x6f
1000b212:	f102 046e 	add.w	r4, r2, #110	@ 0x6e
1000b216:	00c2      	lsls	r2, r0, #3
1000b218:	e7b0      	b.n	1000b17c <_free_r+0xf4>
1000b21a:	f043 0101 	orr.w	r1, r3, #1
1000b21e:	f8cc 1004 	str.w	r1, [ip, #4]
1000b222:	6013      	str	r3, [r2, #0]
1000b224:	e77f      	b.n	1000b126 <_free_r+0x9e>
1000b226:	f102 005c 	add.w	r0, r2, #92	@ 0x5c
1000b22a:	f102 045b 	add.w	r4, r2, #91	@ 0x5b
1000b22e:	00c2      	lsls	r2, r0, #3
1000b230:	e7a4      	b.n	1000b17c <_free_r+0xf4>
1000b232:	e9c1 cc04 	strd	ip, ip, [r1, #16]
1000b236:	e9cc ee02 	strd	lr, lr, [ip, #8]
1000b23a:	f8cc 4004 	str.w	r4, [ip, #4]
1000b23e:	f84c 3003 	str.w	r3, [ip, r3]
1000b242:	e770      	b.n	1000b126 <_free_r+0x9e>
1000b244:	10a4      	asrs	r4, r4, #2
1000b246:	2301      	movs	r3, #1
1000b248:	40a3      	lsls	r3, r4
1000b24a:	684c      	ldr	r4, [r1, #4]
1000b24c:	4323      	orrs	r3, r4
1000b24e:	604b      	str	r3, [r1, #4]
1000b250:	e7a3      	b.n	1000b19a <_free_r+0x112>
1000b252:	f5b2 7faa 	cmp.w	r2, #340	@ 0x154
1000b256:	d806      	bhi.n	1000b266 <_free_r+0x1de>
1000b258:	0bda      	lsrs	r2, r3, #15
1000b25a:	f102 0078 	add.w	r0, r2, #120	@ 0x78
1000b25e:	f102 0477 	add.w	r4, r2, #119	@ 0x77
1000b262:	00c2      	lsls	r2, r0, #3
1000b264:	e78a      	b.n	1000b17c <_free_r+0xf4>
1000b266:	f240 5054 	movw	r0, #1364	@ 0x554
1000b26a:	4282      	cmp	r2, r0
1000b26c:	d806      	bhi.n	1000b27c <_free_r+0x1f4>
1000b26e:	0c9a      	lsrs	r2, r3, #18
1000b270:	f102 007d 	add.w	r0, r2, #125	@ 0x7d
1000b274:	f102 047c 	add.w	r4, r2, #124	@ 0x7c
1000b278:	00c2      	lsls	r2, r0, #3
1000b27a:	e77f      	b.n	1000b17c <_free_r+0xf4>
1000b27c:	f44f 727e 	mov.w	r2, #1016	@ 0x3f8
1000b280:	247e      	movs	r4, #126	@ 0x7e
1000b282:	e77b      	b.n	1000b17c <_free_r+0xf4>
1000b284:	200013e0 	.word	0x200013e0
1000b288:	200013d8 	.word	0x200013d8
1000b28c:	200082f4 	.word	0x200082f4

1000b290 <_fini>:
1000b290:	b5f8      	push	{r3, r4, r5, r6, r7, lr}
1000b292:	bf00      	nop
1000b294:	0000      	movs	r0, r0
	...

1000b298 <__flash_range_program_veneer>:
1000b298:	f85f f000 	ldr.w	pc, [pc]	@ 1000b29c <__flash_range_program_veneer+0x4>
1000b29c:	200007dd 	.word	0x200007dd

1000b2a0 <____aeabi_f2d_veneer>:
1000b2a0:	f85f f000 	ldr.w	pc, [pc]	@ 1000b2a4 <____aeabi_f2d_veneer+0x4>
1000b2a4:	20000c09 	.word	0x20000c09

1000b2a8 <____aeabi_uldivmod_veneer>:
1000b2a8:	f85f f000 	ldr.w	pc, [pc]	@ 1000b2ac <____aeabi_uldivmod_veneer+0x4>
1000b2ac:	20000d59 	.word	0x20000d59

1000b2b0 <__mutex_exit_veneer>:
1000b2b0:	f85f f000 	ldr.w	pc, [pc]	@ 1000b2b4 <__mutex_exit_veneer+0x4>
1000b2b4:	200005f1 	.word	0x200005f1

1000b2b8 <____aeabi_ldivmod_veneer>:
1000b2b8:	f85f f000 	ldr.w	pc, [pc]	@ 1000b2bc <____aeabi_ldivmod_veneer+0x4>
1000b2bc:	20000cb9 	.word	0x20000cb9

1000b2c0 <__mutex_enter_blocking_veneer>:
1000b2c0:	f85f f000 	ldr.w	pc, [pc]	@ 1000b2c4 <__mutex_enter_blocking_veneer+0x4>
1000b2c4:	2000049d 	.word	0x2000049d

1000b2c8 <__flash_range_erase_veneer>:
1000b2c8:	f85f f000 	ldr.w	pc, [pc]	@ 1000b2cc <__flash_range_erase_veneer+0x4>
1000b2cc:	20000731 	.word	0x20000731

1000b2d0 <__mutex_try_enter_block_until_veneer>:
1000b2d0:	f85f f000 	ldr.w	pc, [pc]	@ 1000b2d4 <__mutex_try_enter_block_until_veneer+0x4>
1000b2d4:	20000589 	.word	0x20000589

1000b2d8 <__pre_init_runtime_init_bootrom_reset>:
1000b2d8:	10006b35                                5k..

1000b2dc <__pre_init_runtime_init_early_resets>:
1000b2dc:	10006aad                                .j..

1000b2e0 <__pre_init_runtime_init_usb_power_down>:
1000b2e0:	10006add                                .j..

1000b2e4 <__pre_init_runtime_init_clocks>:
1000b2e4:	10006bc9                                .k..

1000b2e8 <__pre_init_runtime_init_post_clock_resets>:
1000b2e8:	10006b15                                .k..

1000b2ec <__pre_init_runtime_init_boot_locks_reset>:
1000b2ec:	10006a15                                .j..

1000b2f0 <__pre_init_runtime_init_spin_locks_reset>:
1000b2f0:	10006b5d                                ]k..

1000b2f4 <__pre_init_runtime_init_bootrom_locking_enable>:
1000b2f4:	10006a01                                .j..

1000b2f8 <__pre_init_runtime_init_mutex>:
1000b2f8:	10005c89                                .\..

1000b2fc <__pre_init_runtime_init_install_ram_vector_table>:
1000b2fc:	10006b61                                ak..

1000b300 <__pre_init_runtime_init_default_alarm_pool>:
1000b300:	10005ffd                                ._..

1000b304 <__pre_init_first_per_core_initializer>:
1000b304:	10006a5d                                ]j..

1000b308 <__pre_init_runtime_init_per_core_bootrom_reset>:
1000b308:	10006b49                                Ik..

1000b30c <__pre_init_runtime_init_per_core_enable_coprocessors>:
1000b30c:	10006af9                                .j..

1000b310 <__pre_init_spinlock_set_extexclall>:
1000b310:	10005871                                qX..

1000b314 <__pre_init_runtime_init_per_core_irq_priorities>:
1000b314:	100058a9                                .X..

1000b318 <__frame_dummy_init_array_entry>:
1000b318:	10000211                                ....

Disassembly of section .data:

20000110 <jmpCode>:
20000110:	00d4004c                                L...

20000114 <sidFlags>:
20000114:	00200000 00004000 00008000 0000c000     .. ..@..........
20000124:	00008000 00008000                       ........

2000012c <VERSION_STR>:
2000012c:	09104b53 2e300f03 442f3232 34364341     SK....0.22/DAC64
2000013c:	00000000 09104b53 00000f03 00031600     ....SK..........
2000014c:	00000000                                ....

20000150 <lfo_pm_table>:
	...
20000168:	00000001 000000ff 00000001 000000ff     ................
20000178:	ff000102 0100fffe 00000001 000000ff     ................
20000188:	ff000103 0100fffd ff000102 0100fffe     ................
20000198:	fe000204 0200fefc ff000102 0100fffe     ................
200001a8:	fe000205 0200fefb ff000103 0100fffd     ................
200001b8:	fd000306 0300fdfa ff000103 0100fffd     ................
200001c8:	fd000307 0300fdf9                       ........

200001d0 <lfo_am_table>:
200001d0:	00000000 01000000 02010101 03020202     ................
200001e0:	04030303 05040404 06050505 07060606     ................
200001f0:	08070707 09080808 0a090909 0b0a0a0a     ................
20000200:	0c0b0b0b 0d0c0c0c 0e0d0d0d 0f0e0e0e     ................
20000210:	100f0f0f 11101010 12111111 13121212     ................
20000220:	14131313 15141414 16151515 17161616     ................
20000230:	18171717 19181818 1a191919 19191a1a     ................
20000240:	18181919 17171818 16161717 15151616     ................
20000250:	14141515 13131414 12121313 11111212     ................
20000260:	10101111 0f0f1010 0e0e0f0f 0d0d0e0e     ................
20000270:	0c0c0d0d 0b0b0c0c 0a0a0b0b 09090a0a     ................
20000280:	08080909 07070808 06060707 05050606     ................
20000290:	04040505 03030404 02020303 01010202     ................
200002a0:	00000101                                ....

200002a4 <mul_tab8>:
200002a4:	06040201 0e0c0a08 14141210 1e1e1818     ................

200002b4 <eg_rate_shift>:
	...
200002c4:	0c0c0c0c 0b0b0b0b 0a0a0a0a 09090909     ................
200002d4:	08080808 07070707 06060606 05050505     ................
200002e4:	04040404 03030303 02020202 01010101     ................
	...

20000314 <eg_rate_select>:
20000314:	70707070 70707070 70707070 70707070     pppppppppppppppp
20000324:	18100800 18100800 18100800 18100800     ................
20000334:	18100800 18100800 18100800 18100800     ................
20000344:	18100800 18100800 18100800 18100800     ................
20000354:	18100800 38302820 58504840 60606060     .... (08@HPX````
20000364:	60606060 60606060 60606060 60606060     ````````````````

20000374 <eg_inc>:
20000374:	01000100 01000100 01000100 01000101     ................
20000384:	01010100 01010100 01010100 01010101     ................
20000394:	01010101 01010101 02010101 02010101     ................
200003a4:	02010201 02010201 02020201 02020201     ................
200003b4:	02020202 02020202 04020202 04020202     ................
200003c4:	04020402 04020402 04040402 04040402     ................
200003d4:	04040404 04040404 08080808 08080808     ................
	...

200003ec <sl_tab>:
200003ec:	18100800 38302820 58504840 f8706860     .... (08@HPX`hp.

200003fc <ksl_tab>:
	...
20000414:	100c0800 201c1814 00000000 1c140c00     ....... ........
20000424:	302c2820 403c3834 14000000 3c342c20      (,048<@.... ,4<
20000434:	504c4840 605c5854 34200000 5c544c40     @HLPTX\`.. 4@LT\
20000444:	706c6860 807c7874 54402000 7c746c60     `hlptx|.. @T`lt|
20000454:	908c8880 a09c9894 74604000 9c948c80     .........@`t....
20000464:	b0aca8a0 c0bcb8b4 94806000 bcb4aca0     .........`......
20000474:	d0ccc8c0 e0dcd8d4                       ........

2000047c <slot_array>:
2000047c:	01040200 ffff0503 070a0806 ffff0b09     ................
2000048c:	0d100e0c ffff110f ffffffff ffffffff     ................

2000049c <mutex_enter_blocking>:
2000049c:	f04f 4350 	mov.w	r3, #3489660928	@ 0xd0000000
200004a0:	b510      	push	{r4, lr}
200004a2:	6802      	ldr	r2, [r0, #0]
200004a4:	f993 4000 	ldrsb.w	r4, [r3]
200004a8:	f3ef 8310 	mrs	r3, PRIMASK
200004ac:	b672      	cpsid	i
200004ae:	e8d2 cfcf 	ldaexb	ip, [r2]
200004b2:	2101      	movs	r1, #1
200004b4:	f1bc 0f00 	cmp.w	ip, #0
200004b8:	d1f9      	bne.n	200004ae <mutex_enter_blocking+0x12>
200004ba:	e8c2 1f4c 	strexb	ip, r1, [r2]
200004be:	f1bc 0f00 	cmp.w	ip, #0
200004c2:	d1f4      	bne.n	200004ae <mutex_enter_blocking+0x12>
200004c4:	f3bf 8f5f 	dmb	sy
200004c8:	f990 2004 	ldrsb.w	r2, [r0, #4]
200004cc:	2a00      	cmp	r2, #0
200004ce:	db1c      	blt.n	2000050a <mutex_enter_blocking+0x6e>
200004d0:	2100      	movs	r1, #0
200004d2:	6802      	ldr	r2, [r0, #0]
200004d4:	e8c2 1f8f 	stlb	r1, [r2]
200004d8:	f383 8810 	msr	PRIMASK, r3
200004dc:	bf20      	wfe
200004de:	6802      	ldr	r2, [r0, #0]
200004e0:	f3ef 8310 	mrs	r3, PRIMASK
200004e4:	b672      	cpsid	i
200004e6:	e8d2 efcf 	ldaexb	lr, [r2]
200004ea:	f05f 0c01 	movs.w	ip, #1
200004ee:	f1be 0f00 	cmp.w	lr, #0
200004f2:	d1f8      	bne.n	200004e6 <mutex_enter_blocking+0x4a>
200004f4:	e8c2 cf4e 	strexb	lr, ip, [r2]
200004f8:	f1be 0f00 	cmp.w	lr, #0
200004fc:	d1f3      	bne.n	200004e6 <mutex_enter_blocking+0x4a>
200004fe:	f3bf 8f5f 	dmb	sy
20000502:	f990 2004 	ldrsb.w	r2, [r0, #4]
20000506:	2a00      	cmp	r2, #0
20000508:	dae3      	bge.n	200004d2 <mutex_enter_blocking+0x36>
2000050a:	2200      	movs	r2, #0
2000050c:	6801      	ldr	r1, [r0, #0]
2000050e:	7104      	strb	r4, [r0, #4]
20000510:	e8c1 2f8f 	stlb	r2, [r1]
20000514:	f383 8810 	msr	PRIMASK, r3
20000518:	bd10      	pop	{r4, pc}
2000051a:	bf00      	nop

2000051c <mutex_enter_block_until>:
2000051c:	f04f 4150 	mov.w	r1, #3489660928	@ 0xd0000000
20000520:	e92d 41f0 	stmdb	sp!, {r4, r5, r6, r7, r8, lr}
20000524:	461f      	mov	r7, r3
20000526:	680b      	ldr	r3, [r1, #0]
20000528:	4604      	mov	r4, r0
2000052a:	4616      	mov	r6, r2
2000052c:	2500      	movs	r5, #0
2000052e:	4698      	mov	r8, r3
20000530:	e008      	b.n	20000544 <mutex_enter_block_until+0x28>
20000532:	e8c3 5f8f 	stlb	r5, [r3]
20000536:	f382 8810 	msr	PRIMASK, r2
2000053a:	4630      	mov	r0, r6
2000053c:	4639      	mov	r1, r7
2000053e:	f000 fdc7 	bl	200010d0 <__best_effort_wfe_or_timeout_veneer>
20000542:	b9e8      	cbnz	r0, 20000580 <mutex_enter_block_until+0x64>
20000544:	6823      	ldr	r3, [r4, #0]
20000546:	f3ef 8210 	mrs	r2, PRIMASK
2000054a:	b672      	cpsid	i
2000054c:	e8d3 0fcf 	ldaexb	r0, [r3]
20000550:	2101      	movs	r1, #1
20000552:	2800      	cmp	r0, #0
20000554:	d1fa      	bne.n	2000054c <mutex_enter_block_until+0x30>
20000556:	e8c3 1f40 	strexb	r0, r1, [r3]
2000055a:	2800      	cmp	r0, #0
2000055c:	d1f6      	bne.n	2000054c <mutex_enter_block_until+0x30>
2000055e:	f3bf 8f5f 	dmb	sy
20000562:	f994 1004 	ldrsb.w	r1, [r4, #4]
20000566:	6823      	ldr	r3, [r4, #0]
20000568:	2900      	cmp	r1, #0
2000056a:	dae2      	bge.n	20000532 <mutex_enter_block_until+0x16>
2000056c:	2100      	movs	r1, #0
2000056e:	f884 8004 	strb.w	r8, [r4, #4]
20000572:	e8c3 1f8f 	stlb	r1, [r3]
20000576:	f382 8810 	msr	PRIMASK, r2
2000057a:	2001      	movs	r0, #1
2000057c:	e8bd 81f0 	ldmia.w	sp!, {r4, r5, r6, r7, r8, pc}
20000580:	2000      	movs	r0, #0
20000582:	e8bd 81f0 	ldmia.w	sp!, {r4, r5, r6, r7, r8, pc}
20000586:	bf00      	nop

20000588 <mutex_try_enter_block_until>:
20000588:	b510      	push	{r4, lr}
2000058a:	6801      	ldr	r1, [r0, #0]
2000058c:	f3ef 8e10 	mrs	lr, PRIMASK
20000590:	b672      	cpsid	i
20000592:	e8d1 cfcf 	ldaexb	ip, [r1]
20000596:	2401      	movs	r4, #1
20000598:	f1bc 0f00 	cmp.w	ip, #0
2000059c:	d1f9      	bne.n	20000592 <mutex_try_enter_block_until+0xa>
2000059e:	e8c1 4f4c 	strexb	ip, r4, [r1]
200005a2:	f1bc 0f00 	cmp.w	ip, #0
200005a6:	d1f4      	bne.n	20000592 <mutex_try_enter_block_until+0xa>
200005a8:	f3bf 8f5f 	dmb	sy
200005ac:	f990 c004 	ldrsb.w	ip, [r0, #4]
200005b0:	6804      	ldr	r4, [r0, #0]
200005b2:	f1bc 0f00 	cmp.w	ip, #0
200005b6:	db10      	blt.n	200005da <mutex_try_enter_block_until+0x52>
200005b8:	2100      	movs	r1, #0
200005ba:	e8c4 1f8f 	stlb	r1, [r4]
200005be:	f38e 8810 	msr	PRIMASK, lr
200005c2:	f04f 4450 	mov.w	r4, #3489660928	@ 0xd0000000
200005c6:	f994 4000 	ldrsb.w	r4, [r4]
200005ca:	4564      	cmp	r4, ip
200005cc:	d101      	bne.n	200005d2 <mutex_try_enter_block_until+0x4a>
200005ce:	4608      	mov	r0, r1
200005d0:	bd10      	pop	{r4, pc}
200005d2:	e8bd 4010 	ldmia.w	sp!, {r4, lr}
200005d6:	f7ff bfa1 	b.w	2000051c <mutex_enter_block_until>
200005da:	f04f 4250 	mov.w	r2, #3489660928	@ 0xd0000000
200005de:	6812      	ldr	r2, [r2, #0]
200005e0:	2300      	movs	r3, #0
200005e2:	7102      	strb	r2, [r0, #4]
200005e4:	e8c4 3f8f 	stlb	r3, [r4]
200005e8:	f38e 8810 	msr	PRIMASK, lr
200005ec:	2001      	movs	r0, #1
200005ee:	bd10      	pop	{r4, pc}

200005f0 <mutex_exit>:
200005f0:	6803      	ldr	r3, [r0, #0]
200005f2:	f3ef 8210 	mrs	r2, PRIMASK
200005f6:	b672      	cpsid	i
200005f8:	e8d3 cfcf 	ldaexb	ip, [r3]
200005fc:	2101      	movs	r1, #1
200005fe:	f1bc 0f00 	cmp.w	ip, #0
20000602:	d1f9      	bne.n	200005f8 <mutex_exit+0x8>
20000604:	e8c3 1f4c 	strexb	ip, r1, [r3]
20000608:	f1bc 0f00 	cmp.w	ip, #0
2000060c:	d1f4      	bne.n	200005f8 <mutex_exit+0x8>
2000060e:	f3bf 8f5f 	dmb	sy
20000612:	f04f 0cff 	mov.w	ip, #255	@ 0xff
20000616:	2300      	movs	r3, #0
20000618:	6801      	ldr	r1, [r0, #0]
2000061a:	f880 c004 	strb.w	ip, [r0, #4]
2000061e:	e8c1 3f8f 	stlb	r3, [r1]
20000622:	f382 8810 	msr	PRIMASK, r2
20000626:	bf40      	sev
20000628:	4770      	bx	lr
2000062a:	bf00      	nop

2000062c <flash_init_boot2_copyout>:
2000062c:	f8df c02c 	ldr.w	ip, [pc, #44]	@ 2000065c <flash_init_boot2_copyout+0x30>
20000630:	f89c 3000 	ldrb.w	r3, [ip]
20000634:	b96b      	cbnz	r3, 20000652 <flash_init_boot2_copyout+0x26>
20000636:	4a07      	ldr	r2, [pc, #28]	@ (20000654 <flash_init_boot2_copyout+0x28>)
20000638:	4907      	ldr	r1, [pc, #28]	@ (20000658 <flash_init_boot2_copyout+0x2c>)
2000063a:	1f13      	subs	r3, r2, #4
2000063c:	f102 00fc 	add.w	r0, r2, #252	@ 0xfc
20000640:	1a89      	subs	r1, r1, r2
20000642:	58ca      	ldr	r2, [r1, r3]
20000644:	f843 2f04 	str.w	r2, [r3, #4]!
20000648:	4283      	cmp	r3, r0
2000064a:	d1fa      	bne.n	20000642 <flash_init_boot2_copyout+0x16>
2000064c:	2301      	movs	r3, #1
2000064e:	f88c 3000 	strb.w	r3, [ip]
20000652:	4770      	bx	lr
20000654:	20008900 	.word	0x20008900
20000658:	400e0004 	.word	0x400e0004
2000065c:	2001f3c5 	.word	0x2001f3c5

20000660 <flash_enable_xip_via_boot2>:
20000660:	4b00      	ldr	r3, [pc, #0]	@ (20000664 <flash_enable_xip_via_boot2+0x4>)
20000662:	4718      	bx	r3
20000664:	20008901 	.word	0x20008901

20000668 <flash_rp2350_save_qmi_cs1>:
20000668:	4b03      	ldr	r3, [pc, #12]	@ (20000678 <flash_rp2350_save_qmi_cs1+0x10>)
2000066a:	6a1a      	ldr	r2, [r3, #32]
2000066c:	6002      	str	r2, [r0, #0]
2000066e:	6a9a      	ldr	r2, [r3, #40]	@ 0x28
20000670:	6042      	str	r2, [r0, #4]
20000672:	6a5b      	ldr	r3, [r3, #36]	@ 0x24
20000674:	6083      	str	r3, [r0, #8]
20000676:	4770      	bx	lr
20000678:	400d0000 	.word	0x400d0000

2000067c <flash_devinfo_ptr>:
2000067c:	b508      	push	{r3, lr}
2000067e:	2300      	movs	r3, #0
20000680:	2140      	movs	r1, #64	@ 0x40
20000682:	8adb      	ldrh	r3, [r3, #22]
20000684:	f244 4046 	movw	r0, #17478	@ 0x4446
20000688:	4798      	blx	r3
2000068a:	6800      	ldr	r0, [r0, #0]
2000068c:	bd08      	pop	{r3, pc}
2000068e:	bf00      	nop

20000690 <flash_save_hardware_state>:
20000690:	b500      	push	{lr}
20000692:	b083      	sub	sp, #12
20000694:	9001      	str	r0, [sp, #4]
20000696:	f000 f907 	bl	200008a8 <xip_cache_clean_all>
2000069a:	4b09      	ldr	r3, [pc, #36]	@ (200006c0 <flash_save_hardware_state+0x30>)
2000069c:	9801      	ldr	r0, [sp, #4]
2000069e:	685a      	ldr	r2, [r3, #4]
200006a0:	60c2      	str	r2, [r0, #12]
200006a2:	689a      	ldr	r2, [r3, #8]
200006a4:	6102      	str	r2, [r0, #16]
200006a6:	68da      	ldr	r2, [r3, #12]
200006a8:	6142      	str	r2, [r0, #20]
200006aa:	691a      	ldr	r2, [r3, #16]
200006ac:	6182      	str	r2, [r0, #24]
200006ae:	695a      	ldr	r2, [r3, #20]
200006b0:	61c2      	str	r2, [r0, #28]
200006b2:	699b      	ldr	r3, [r3, #24]
200006b4:	6203      	str	r3, [r0, #32]
200006b6:	b003      	add	sp, #12
200006b8:	f85d eb04 	ldr.w	lr, [sp], #4
200006bc:	f7ff bfd4 	b.w	20000668 <flash_rp2350_save_qmi_cs1>
200006c0:	40040000 	.word	0x40040000

200006c4 <flash_devinfo_get_cs_size>:
200006c4:	b510      	push	{r4, lr}
200006c6:	4604      	mov	r4, r0
200006c8:	f7ff ffd8 	bl	2000067c <flash_devinfo_ptr>
200006cc:	b11c      	cbz	r4, 200006d6 <flash_devinfo_get_cs_size+0x12>
200006ce:	8800      	ldrh	r0, [r0, #0]
200006d0:	f3c0 3003 	ubfx	r0, r0, #12, #4
200006d4:	bd10      	pop	{r4, pc}
200006d6:	200a      	movs	r0, #10
200006d8:	bd10      	pop	{r4, pc}
200006da:	bf00      	nop

200006dc <flash_rp2350_restore_qmi_cs1>:
200006dc:	b510      	push	{r4, lr}
200006de:	4604      	mov	r4, r0
200006e0:	2001      	movs	r0, #1
200006e2:	f7ff ffef 	bl	200006c4 <flash_devinfo_get_cs_size>
200006e6:	b938      	cbnz	r0, 200006f8 <flash_rp2350_restore_qmi_cs1+0x1c>
200006e8:	6822      	ldr	r2, [r4, #0]
200006ea:	4b07      	ldr	r3, [pc, #28]	@ (20000708 <flash_rp2350_restore_qmi_cs1+0x2c>)
200006ec:	621a      	str	r2, [r3, #32]
200006ee:	6862      	ldr	r2, [r4, #4]
200006f0:	629a      	str	r2, [r3, #40]	@ 0x28
200006f2:	68a2      	ldr	r2, [r4, #8]
200006f4:	625a      	str	r2, [r3, #36]	@ 0x24
200006f6:	bd10      	pop	{r4, pc}
200006f8:	f44f 5180 	mov.w	r1, #4096	@ 0x1000
200006fc:	f24a 0202 	movw	r2, #40962	@ 0xa002
20000700:	4b01      	ldr	r3, [pc, #4]	@ (20000708 <flash_rp2350_restore_qmi_cs1+0x2c>)
20000702:	62d9      	str	r1, [r3, #44]	@ 0x2c
20000704:	631a      	str	r2, [r3, #48]	@ 0x30
20000706:	bd10      	pop	{r4, pc}
20000708:	400d0000 	.word	0x400d0000

2000070c <flash_restore_hardware_state>:
2000070c:	68c2      	ldr	r2, [r0, #12]
2000070e:	4b07      	ldr	r3, [pc, #28]	@ (2000072c <flash_restore_hardware_state+0x20>)
20000710:	605a      	str	r2, [r3, #4]
20000712:	6902      	ldr	r2, [r0, #16]
20000714:	609a      	str	r2, [r3, #8]
20000716:	6942      	ldr	r2, [r0, #20]
20000718:	60da      	str	r2, [r3, #12]
2000071a:	6982      	ldr	r2, [r0, #24]
2000071c:	611a      	str	r2, [r3, #16]
2000071e:	69c2      	ldr	r2, [r0, #28]
20000720:	615a      	str	r2, [r3, #20]
20000722:	6a02      	ldr	r2, [r0, #32]
20000724:	619a      	str	r2, [r3, #24]
20000726:	f7ff bfd9 	b.w	200006dc <flash_rp2350_restore_qmi_cs1>
2000072a:	bf00      	nop
2000072c:	40040000 	.word	0x40040000

20000730 <flash_range_erase>:
20000730:	e92d 43f0 	stmdb	sp!, {r4, r5, r6, r7, r8, r9, lr}
20000734:	1843      	adds	r3, r0, r1
20000736:	f5b3 0f80 	cmp.w	r3, #4194304	@ 0x400000
2000073a:	4680      	mov	r8, r0
2000073c:	4689      	mov	r9, r1
2000073e:	b08b      	sub	sp, #44	@ 0x2c
20000740:	d849      	bhi.n	200007d6 <flash_range_erase+0xa6>
20000742:	2300      	movs	r3, #0
20000744:	8adb      	ldrh	r3, [r3, #22]
20000746:	2200      	movs	r2, #0
20000748:	e842 f200 	tt	r2, r2
2000074c:	0254      	lsls	r4, r2, #9
2000074e:	bf54      	ite	pl
20000750:	2110      	movpl	r1, #16
20000752:	2104      	movmi	r1, #4
20000754:	f244 6049 	movw	r0, #17993	@ 0x4649
20000758:	4798      	blx	r3
2000075a:	2300      	movs	r3, #0
2000075c:	4607      	mov	r7, r0
2000075e:	8adb      	ldrh	r3, [r3, #22]
20000760:	2200      	movs	r2, #0
20000762:	e842 f200 	tt	r2, r2
20000766:	0250      	lsls	r0, r2, #9
20000768:	bf54      	ite	pl
2000076a:	2110      	movpl	r1, #16
2000076c:	2104      	movmi	r1, #4
2000076e:	f645 0045 	movw	r0, #22597	@ 0x5845
20000772:	4798      	blx	r3
20000774:	2300      	movs	r3, #0
20000776:	4606      	mov	r6, r0
20000778:	8adb      	ldrh	r3, [r3, #22]
2000077a:	2200      	movs	r2, #0
2000077c:	e842 f200 	tt	r2, r2
20000780:	0251      	lsls	r1, r2, #9
20000782:	bf54      	ite	pl
20000784:	2110      	movpl	r1, #16
20000786:	2104      	movmi	r1, #4
20000788:	f244 5052 	movw	r0, #17746	@ 0x4552
2000078c:	4798      	blx	r3
2000078e:	2300      	movs	r3, #0
20000790:	4605      	mov	r5, r0
20000792:	8adb      	ldrh	r3, [r3, #22]
20000794:	2200      	movs	r2, #0
20000796:	e842 f200 	tt	r2, r2
2000079a:	0252      	lsls	r2, r2, #9
2000079c:	bf54      	ite	pl
2000079e:	2110      	movpl	r1, #16
200007a0:	2104      	movmi	r1, #4
200007a2:	f244 3046 	movw	r0, #17222	@ 0x4346
200007a6:	4798      	blx	r3
200007a8:	4604      	mov	r4, r0
200007aa:	f7ff ff3f 	bl	2000062c <flash_init_boot2_copyout>
200007ae:	a801      	add	r0, sp, #4
200007b0:	f7ff ff6e 	bl	20000690 <flash_save_hardware_state>
200007b4:	47b8      	blx	r7
200007b6:	47b0      	blx	r6
200007b8:	23d8      	movs	r3, #216	@ 0xd8
200007ba:	f44f 3280 	mov.w	r2, #65536	@ 0x10000
200007be:	4649      	mov	r1, r9
200007c0:	4640      	mov	r0, r8
200007c2:	47a8      	blx	r5
200007c4:	47a0      	blx	r4
200007c6:	f7ff ff4b 	bl	20000660 <flash_enable_xip_via_boot2>
200007ca:	a801      	add	r0, sp, #4
200007cc:	f7ff ff9e 	bl	2000070c <flash_restore_hardware_state>
200007d0:	b00b      	add	sp, #44	@ 0x2c
200007d2:	e8bd 83f0 	ldmia.w	sp!, {r4, r5, r6, r7, r8, r9, pc}
200007d6:	f000 fc87 	bl	200010e8 <__hard_assertion_failure_veneer>
200007da:	e7b2      	b.n	20000742 <flash_range_erase+0x12>

200007dc <flash_range_program>:
200007dc:	e92d 47f0 	stmdb	sp!, {r4, r5, r6, r7, r8, r9, sl, lr}
200007e0:	1883      	adds	r3, r0, r2
200007e2:	f5b3 0f80 	cmp.w	r3, #4194304	@ 0x400000
200007e6:	4680      	mov	r8, r0
200007e8:	4691      	mov	r9, r2
200007ea:	468a      	mov	sl, r1
200007ec:	b08a      	sub	sp, #40	@ 0x28
200007ee:	d847      	bhi.n	20000880 <flash_range_program+0xa4>
200007f0:	2300      	movs	r3, #0
200007f2:	8adb      	ldrh	r3, [r3, #22]
200007f4:	2200      	movs	r2, #0
200007f6:	e842 f200 	tt	r2, r2
200007fa:	0254      	lsls	r4, r2, #9
200007fc:	bf54      	ite	pl
200007fe:	2110      	movpl	r1, #16
20000800:	2104      	movmi	r1, #4
20000802:	f244 6049 	movw	r0, #17993	@ 0x4649
20000806:	4798      	blx	r3
20000808:	2300      	movs	r3, #0
2000080a:	4607      	mov	r7, r0
2000080c:	8adb      	ldrh	r3, [r3, #22]
2000080e:	2200      	movs	r2, #0
20000810:	e842 f200 	tt	r2, r2
20000814:	0250      	lsls	r0, r2, #9
20000816:	bf54      	ite	pl
20000818:	2110      	movpl	r1, #16
2000081a:	2104      	movmi	r1, #4
2000081c:	f645 0045 	movw	r0, #22597	@ 0x5845
20000820:	4798      	blx	r3
20000822:	2300      	movs	r3, #0
20000824:	4606      	mov	r6, r0
20000826:	8adb      	ldrh	r3, [r3, #22]
20000828:	2200      	movs	r2, #0
2000082a:	e842 f200 	tt	r2, r2
2000082e:	0251      	lsls	r1, r2, #9
20000830:	bf54      	ite	pl
20000832:	2110      	movpl	r1, #16
20000834:	2104      	movmi	r1, #4
20000836:	f245 0052 	movw	r0, #20562	@ 0x5052
2000083a:	4798      	blx	r3
2000083c:	2300      	movs	r3, #0
2000083e:	4605      	mov	r5, r0
20000840:	8adb      	ldrh	r3, [r3, #22]
20000842:	2200      	movs	r2, #0
20000844:	e842 f200 	tt	r2, r2
20000848:	0252      	lsls	r2, r2, #9
2000084a:	bf54      	ite	pl
2000084c:	2110      	movpl	r1, #16
2000084e:	2104      	movmi	r1, #4
20000850:	f244 3046 	movw	r0, #17222	@ 0x4346
20000854:	4798      	blx	r3
20000856:	4604      	mov	r4, r0
20000858:	f7ff fee8 	bl	2000062c <flash_init_boot2_copyout>
2000085c:	a801      	add	r0, sp, #4
2000085e:	f7ff ff17 	bl	20000690 <flash_save_hardware_state>
20000862:	47b8      	blx	r7
20000864:	47b0      	blx	r6
20000866:	464a      	mov	r2, r9
20000868:	4651      	mov	r1, sl
2000086a:	4640      	mov	r0, r8
2000086c:	47a8      	blx	r5
2000086e:	47a0      	blx	r4
20000870:	f7ff fef6 	bl	20000660 <flash_enable_xip_via_boot2>
20000874:	a801      	add	r0, sp, #4
20000876:	f7ff ff49 	bl	2000070c <flash_restore_hardware_state>
2000087a:	b00a      	add	sp, #40	@ 0x28
2000087c:	e8bd 87f0 	ldmia.w	sp!, {r4, r5, r6, r7, r8, r9, sl, pc}
20000880:	f000 fc32 	bl	200010e8 <__hard_assertion_failure_veneer>
20000884:	e7b4      	b.n	200007f0 <flash_range_program+0x14>
20000886:	bf00      	nop

20000888 <xip_cache_maintain>:
20000888:	4401      	add	r1, r0
2000088a:	4288      	cmp	r0, r1
2000088c:	d206      	bcs.n	2000089c <xip_cache_maintain+0x14>
2000088e:	2300      	movs	r3, #0
20000890:	f102 52c0 	add.w	r2, r2, #402653184	@ 0x18000000
20000894:	5483      	strb	r3, [r0, r2]
20000896:	3008      	adds	r0, #8
20000898:	4281      	cmp	r1, r0
2000089a:	d8fb      	bhi.n	20000894 <xip_cache_maintain+0xc>
2000089c:	f3bf 8f4f 	dsb	sy
200008a0:	f3bf 8f6f 	isb	sy
200008a4:	4770      	bx	lr
200008a6:	bf00      	nop

200008a8 <xip_cache_clean_all>:
200008a8:	2201      	movs	r2, #1
200008aa:	f44f 4180 	mov.w	r1, #16384	@ 0x4000
200008ae:	4801      	ldr	r0, [pc, #4]	@ (200008b4 <xip_cache_clean_all+0xc>)
200008b0:	f7ff bfea 	b.w	20000888 <xip_cache_maintain>
200008b4:	03ffc000 	.word	0x03ffc000

200008b8 <audio_i2s_dma_irq_handler>:
200008b8:	f04f 41a0 	mov.w	r1, #1342177280	@ 0x50000000
200008bc:	2301      	movs	r3, #1
200008be:	4a1d      	ldr	r2, [pc, #116]	@ (20000934 <audio_i2s_dma_irq_handler+0x7c>)
200008c0:	f8d1 040c 	ldr.w	r0, [r1, #1036]	@ 0x40c
200008c4:	f892 c009 	ldrb.w	ip, [r2, #9]
200008c8:	fa03 f30c 	lsl.w	r3, r3, ip
200008cc:	4218      	tst	r0, r3
200008ce:	d025      	beq.n	2000091c <audio_i2s_dma_irq_handler+0x64>
200008d0:	b500      	push	{lr}
200008d2:	b083      	sub	sp, #12
200008d4:	f8c1 340c 	str.w	r3, [r1, #1036]	@ 0x40c
200008d8:	6811      	ldr	r1, [r2, #0]
200008da:	4b17      	ldr	r3, [pc, #92]	@ (20000938 <audio_i2s_dma_irq_handler+0x80>)
200008dc:	b121      	cbz	r1, 200008e8 <audio_i2s_dma_irq_handler+0x30>
200008de:	6818      	ldr	r0, [r3, #0]
200008e0:	9301      	str	r3, [sp, #4]
200008e2:	f000 fbfd 	bl	200010e0 <__give_audio_buffer_veneer>
200008e6:	9b01      	ldr	r3, [sp, #4]
200008e8:	6818      	ldr	r0, [r3, #0]
200008ea:	2100      	movs	r1, #0
200008ec:	f000 fbf4 	bl	200010d8 <__take_audio_buffer_veneer>
200008f0:	4a10      	ldr	r2, [pc, #64]	@ (20000934 <audio_i2s_dma_irq_handler+0x7c>)
200008f2:	7a53      	ldrb	r3, [r2, #9]
200008f4:	6010      	str	r0, [r2, #0]
200008f6:	019b      	lsls	r3, r3, #6
200008f8:	f103 43a0 	add.w	r3, r3, #1342177280	@ 0x50000000
200008fc:	b178      	cbz	r0, 2000091e <audio_i2s_dma_irq_handler+0x66>
200008fe:	68da      	ldr	r2, [r3, #12]
20000900:	f8d0 c000 	ldr.w	ip, [r0]
20000904:	6881      	ldr	r1, [r0, #8]
20000906:	f022 0230 	bic.w	r2, r2, #48	@ 0x30
2000090a:	f8dc 0004 	ldr.w	r0, [ip, #4]
2000090e:	f042 0210 	orr.w	r2, r2, #16
20000912:	611a      	str	r2, [r3, #16]
20000914:	6018      	str	r0, [r3, #0]
20000916:	61d9      	str	r1, [r3, #28]
20000918:	b003      	add	sp, #12
2000091a:	bd00      	pop	{pc}
2000091c:	4770      	bx	lr
2000091e:	f44f 7180 	mov.w	r1, #256	@ 0x100
20000922:	68da      	ldr	r2, [r3, #12]
20000924:	4805      	ldr	r0, [pc, #20]	@ (2000093c <audio_i2s_dma_irq_handler+0x84>)
20000926:	f022 0230 	bic.w	r2, r2, #48	@ 0x30
2000092a:	611a      	str	r2, [r3, #16]
2000092c:	6018      	str	r0, [r3, #0]
2000092e:	61d9      	str	r1, [r3, #28]
20000930:	b003      	add	sp, #12
20000932:	bd00      	pop	{pc}
20000934:	2001e988 	.word	0x2001e988
20000938:	20008860 	.word	0x20008860
2000093c:	2001f3ac 	.word	0x2001f3ac

20000940 <__aeabi_drsub>:
20000940:	f081 4100 	eor.w	r1, r1, #2147483648	@ 0x80000000
20000944:	e002      	b.n	2000094c <__adddf3>
20000946:	bf00      	nop

20000948 <__aeabi_dsub>:
20000948:	f083 4300 	eor.w	r3, r3, #2147483648	@ 0x80000000

2000094c <__adddf3>:
2000094c:	b530      	push	{r4, r5, lr}
2000094e:	ea4f 0441 	mov.w	r4, r1, lsl #1
20000952:	ea4f 0543 	mov.w	r5, r3, lsl #1
20000956:	ea94 0f05 	teq	r4, r5
2000095a:	bf08      	it	eq
2000095c:	ea90 0f02 	teqeq	r0, r2
20000960:	bf1f      	itttt	ne
20000962:	ea54 0c00 	orrsne.w	ip, r4, r0
20000966:	ea55 0c02 	orrsne.w	ip, r5, r2
2000096a:	ea7f 5c64 	mvnsne.w	ip, r4, asr #21
2000096e:	ea7f 5c65 	mvnsne.w	ip, r5, asr #21
20000972:	f000 80e2 	beq.w	20000b3a <__adddf3+0x1ee>
20000976:	ea4f 5454 	mov.w	r4, r4, lsr #21
2000097a:	ebd4 5555 	rsbs	r5, r4, r5, lsr #21
2000097e:	bfb8      	it	lt
20000980:	426d      	neglt	r5, r5
20000982:	dd0c      	ble.n	2000099e <__adddf3+0x52>
20000984:	442c      	add	r4, r5
20000986:	ea80 0202 	eor.w	r2, r0, r2
2000098a:	ea81 0303 	eor.w	r3, r1, r3
2000098e:	ea82 0000 	eor.w	r0, r2, r0
20000992:	ea83 0101 	eor.w	r1, r3, r1
20000996:	ea80 0202 	eor.w	r2, r0, r2
2000099a:	ea81 0303 	eor.w	r3, r1, r3
2000099e:	2d36      	cmp	r5, #54	@ 0x36
200009a0:	bf88      	it	hi
200009a2:	bd30      	pophi	{r4, r5, pc}
200009a4:	f011 4f00 	tst.w	r1, #2147483648	@ 0x80000000
200009a8:	ea4f 3101 	mov.w	r1, r1, lsl #12
200009ac:	f44f 1c80 	mov.w	ip, #1048576	@ 0x100000
200009b0:	ea4c 3111 	orr.w	r1, ip, r1, lsr #12
200009b4:	d002      	beq.n	200009bc <__adddf3+0x70>
200009b6:	4240      	negs	r0, r0
200009b8:	eb61 0141 	sbc.w	r1, r1, r1, lsl #1
200009bc:	f013 4f00 	tst.w	r3, #2147483648	@ 0x80000000
200009c0:	ea4f 3303 	mov.w	r3, r3, lsl #12
200009c4:	ea4c 3313 	orr.w	r3, ip, r3, lsr #12
200009c8:	d002      	beq.n	200009d0 <__adddf3+0x84>
200009ca:	4252      	negs	r2, r2
200009cc:	eb63 0343 	sbc.w	r3, r3, r3, lsl #1
200009d0:	ea94 0f05 	teq	r4, r5
200009d4:	f000 80a7 	beq.w	20000b26 <__adddf3+0x1da>
200009d8:	f1a4 0401 	sub.w	r4, r4, #1
200009dc:	f1d5 0e20 	rsbs	lr, r5, #32
200009e0:	db0d      	blt.n	200009fe <__adddf3+0xb2>
200009e2:	fa02 fc0e 	lsl.w	ip, r2, lr
200009e6:	fa22 f205 	lsr.w	r2, r2, r5
200009ea:	1880      	adds	r0, r0, r2
200009ec:	f141 0100 	adc.w	r1, r1, #0
200009f0:	fa03 f20e 	lsl.w	r2, r3, lr
200009f4:	1880      	adds	r0, r0, r2
200009f6:	fa43 f305 	asr.w	r3, r3, r5
200009fa:	4159      	adcs	r1, r3
200009fc:	e00e      	b.n	20000a1c <__adddf3+0xd0>
200009fe:	f1a5 0520 	sub.w	r5, r5, #32
20000a02:	f10e 0e20 	add.w	lr, lr, #32
20000a06:	2a01      	cmp	r2, #1
20000a08:	fa03 fc0e 	lsl.w	ip, r3, lr
20000a0c:	bf28      	it	cs
20000a0e:	f04c 0c02 	orrcs.w	ip, ip, #2
20000a12:	fa43 f305 	asr.w	r3, r3, r5
20000a16:	18c0      	adds	r0, r0, r3
20000a18:	eb51 71e3 	adcs.w	r1, r1, r3, asr #31
20000a1c:	f001 4500 	and.w	r5, r1, #2147483648	@ 0x80000000
20000a20:	d507      	bpl.n	20000a32 <__adddf3+0xe6>
20000a22:	f04f 0e00 	mov.w	lr, #0
20000a26:	f1dc 0c00 	rsbs	ip, ip, #0
20000a2a:	eb7e 0000 	sbcs.w	r0, lr, r0
20000a2e:	eb6e 0101 	sbc.w	r1, lr, r1
20000a32:	f5b1 1f80 	cmp.w	r1, #1048576	@ 0x100000
20000a36:	d31b      	bcc.n	20000a70 <__adddf3+0x124>
20000a38:	f5b1 1f00 	cmp.w	r1, #2097152	@ 0x200000
20000a3c:	d30c      	bcc.n	20000a58 <__adddf3+0x10c>
20000a3e:	0849      	lsrs	r1, r1, #1
20000a40:	ea5f 0030 	movs.w	r0, r0, rrx
20000a44:	ea4f 0c3c 	mov.w	ip, ip, rrx
20000a48:	f104 0401 	add.w	r4, r4, #1
20000a4c:	ea4f 5244 	mov.w	r2, r4, lsl #21
20000a50:	f512 0f80 	cmn.w	r2, #4194304	@ 0x400000
20000a54:	f080 809a 	bcs.w	20000b8c <__adddf3+0x240>
20000a58:	f1bc 4f00 	cmp.w	ip, #2147483648	@ 0x80000000
20000a5c:	bf08      	it	eq
20000a5e:	ea5f 0c50 	movseq.w	ip, r0, lsr #1
20000a62:	f150 0000 	adcs.w	r0, r0, #0
20000a66:	eb41 5104 	adc.w	r1, r1, r4, lsl #20
20000a6a:	ea41 0105 	orr.w	r1, r1, r5
20000a6e:	bd30      	pop	{r4, r5, pc}
20000a70:	ea5f 0c4c 	movs.w	ip, ip, lsl #1
20000a74:	4140      	adcs	r0, r0
20000a76:	eb41 0101 	adc.w	r1, r1, r1
20000a7a:	3c01      	subs	r4, #1
20000a7c:	bf28      	it	cs
20000a7e:	f5b1 1f80 	cmpcs.w	r1, #1048576	@ 0x100000
20000a82:	d2e9      	bcs.n	20000a58 <__adddf3+0x10c>
20000a84:	f091 0f00 	teq	r1, #0
20000a88:	bf04      	itt	eq
20000a8a:	4601      	moveq	r1, r0
20000a8c:	2000      	moveq	r0, #0
20000a8e:	fab1 f381 	clz	r3, r1
20000a92:	bf08      	it	eq
20000a94:	3320      	addeq	r3, #32
20000a96:	f1a3 030b 	sub.w	r3, r3, #11
20000a9a:	f1b3 0220 	subs.w	r2, r3, #32
20000a9e:	da0c      	bge.n	20000aba <__adddf3+0x16e>
20000aa0:	320c      	adds	r2, #12
20000aa2:	dd08      	ble.n	20000ab6 <__adddf3+0x16a>
20000aa4:	f102 0c14 	add.w	ip, r2, #20
20000aa8:	f1c2 020c 	rsb	r2, r2, #12
20000aac:	fa01 f00c 	lsl.w	r0, r1, ip
20000ab0:	fa21 f102 	lsr.w	r1, r1, r2
20000ab4:	e00c      	b.n	20000ad0 <__adddf3+0x184>
20000ab6:	f102 0214 	add.w	r2, r2, #20
20000aba:	bfd8      	it	le
20000abc:	f1c2 0c20 	rsble	ip, r2, #32
20000ac0:	fa01 f102 	lsl.w	r1, r1, r2
20000ac4:	fa20 fc0c 	lsr.w	ip, r0, ip
20000ac8:	bfdc      	itt	le
20000aca:	ea41 010c 	orrle.w	r1, r1, ip
20000ace:	4090      	lslle	r0, r2
20000ad0:	1ae4      	subs	r4, r4, r3
20000ad2:	bfa2      	ittt	ge
20000ad4:	eb01 5104 	addge.w	r1, r1, r4, lsl #20
20000ad8:	4329      	orrge	r1, r5
20000ada:	bd30      	popge	{r4, r5, pc}
20000adc:	ea6f 0404 	mvn.w	r4, r4
20000ae0:	3c1f      	subs	r4, #31
20000ae2:	da1c      	bge.n	20000b1e <__adddf3+0x1d2>
20000ae4:	340c      	adds	r4, #12
20000ae6:	dc0e      	bgt.n	20000b06 <__adddf3+0x1ba>
20000ae8:	f104 0414 	add.w	r4, r4, #20
20000aec:	f1c4 0220 	rsb	r2, r4, #32
20000af0:	fa20 f004 	lsr.w	r0, r0, r4
20000af4:	fa01 f302 	lsl.w	r3, r1, r2
20000af8:	ea40 0003 	orr.w	r0, r0, r3
20000afc:	fa21 f304 	lsr.w	r3, r1, r4
20000b00:	ea45 0103 	orr.w	r1, r5, r3
20000b04:	bd30      	pop	{r4, r5, pc}
20000b06:	f1c4 040c 	rsb	r4, r4, #12
20000b0a:	f1c4 0220 	rsb	r2, r4, #32
20000b0e:	fa20 f002 	lsr.w	r0, r0, r2
20000b12:	fa01 f304 	lsl.w	r3, r1, r4
20000b16:	ea40 0003 	orr.w	r0, r0, r3
20000b1a:	4629      	mov	r1, r5
20000b1c:	bd30      	pop	{r4, r5, pc}
20000b1e:	fa21 f004 	lsr.w	r0, r1, r4
20000b22:	4629      	mov	r1, r5
20000b24:	bd30      	pop	{r4, r5, pc}
20000b26:	f094 0f00 	teq	r4, #0
20000b2a:	f483 1380 	eor.w	r3, r3, #1048576	@ 0x100000
20000b2e:	bf06      	itte	eq
20000b30:	f481 1180 	eoreq.w	r1, r1, #1048576	@ 0x100000
20000b34:	3401      	addeq	r4, #1
20000b36:	3d01      	subne	r5, #1
20000b38:	e74e      	b.n	200009d8 <__adddf3+0x8c>
20000b3a:	ea7f 5c64 	mvns.w	ip, r4, asr #21
20000b3e:	bf18      	it	ne
20000b40:	ea7f 5c65 	mvnsne.w	ip, r5, asr #21
20000b44:	d029      	beq.n	20000b9a <__adddf3+0x24e>
20000b46:	ea94 0f05 	teq	r4, r5
20000b4a:	bf08      	it	eq
20000b4c:	ea90 0f02 	teqeq	r0, r2
20000b50:	d005      	beq.n	20000b5e <__adddf3+0x212>
20000b52:	ea54 0c00 	orrs.w	ip, r4, r0
20000b56:	bf04      	itt	eq
20000b58:	4619      	moveq	r1, r3
20000b5a:	4610      	moveq	r0, r2
20000b5c:	bd30      	pop	{r4, r5, pc}
20000b5e:	ea91 0f03 	teq	r1, r3
20000b62:	bf1e      	ittt	ne
20000b64:	2100      	movne	r1, #0
20000b66:	2000      	movne	r0, #0
20000b68:	bd30      	popne	{r4, r5, pc}
20000b6a:	ea5f 5c54 	movs.w	ip, r4, lsr #21
20000b6e:	d105      	bne.n	20000b7c <__adddf3+0x230>
20000b70:	0040      	lsls	r0, r0, #1
20000b72:	4149      	adcs	r1, r1
20000b74:	bf28      	it	cs
20000b76:	f041 4100 	orrcs.w	r1, r1, #2147483648	@ 0x80000000
20000b7a:	bd30      	pop	{r4, r5, pc}
20000b7c:	f514 0480 	adds.w	r4, r4, #4194304	@ 0x400000
20000b80:	bf3c      	itt	cc
20000b82:	f501 1180 	addcc.w	r1, r1, #1048576	@ 0x100000
20000b86:	bd30      	popcc	{r4, r5, pc}
20000b88:	f001 4500 	and.w	r5, r1, #2147483648	@ 0x80000000
20000b8c:	f045 41fe 	orr.w	r1, r5, #2130706432	@ 0x7f000000
20000b90:	f441 0170 	orr.w	r1, r1, #15728640	@ 0xf00000
20000b94:	f04f 0000 	mov.w	r0, #0
20000b98:	bd30      	pop	{r4, r5, pc}
20000b9a:	ea7f 5c64 	mvns.w	ip, r4, asr #21
20000b9e:	bf1a      	itte	ne
20000ba0:	4619      	movne	r1, r3
20000ba2:	4610      	movne	r0, r2
20000ba4:	ea7f 5c65 	mvnseq.w	ip, r5, asr #21
20000ba8:	bf1c      	itt	ne
20000baa:	460b      	movne	r3, r1
20000bac:	4602      	movne	r2, r0
20000bae:	ea50 3401 	orrs.w	r4, r0, r1, lsl #12
20000bb2:	bf06      	itte	eq
20000bb4:	ea52 3503 	orrseq.w	r5, r2, r3, lsl #12
20000bb8:	ea91 0f03 	teqeq	r1, r3
20000bbc:	f441 2100 	orrne.w	r1, r1, #524288	@ 0x80000
20000bc0:	bd30      	pop	{r4, r5, pc}
20000bc2:	bf00      	nop

20000bc4 <__aeabi_ui2d>:
20000bc4:	f090 0f00 	teq	r0, #0
20000bc8:	bf04      	itt	eq
20000bca:	2100      	moveq	r1, #0
20000bcc:	4770      	bxeq	lr
20000bce:	b530      	push	{r4, r5, lr}
20000bd0:	f44f 6480 	mov.w	r4, #1024	@ 0x400
20000bd4:	f104 0432 	add.w	r4, r4, #50	@ 0x32
20000bd8:	f04f 0500 	mov.w	r5, #0
20000bdc:	f04f 0100 	mov.w	r1, #0
20000be0:	e750      	b.n	20000a84 <__adddf3+0x138>
20000be2:	bf00      	nop

20000be4 <__aeabi_i2d>:
20000be4:	f090 0f00 	teq	r0, #0
20000be8:	bf04      	itt	eq
20000bea:	2100      	moveq	r1, #0
20000bec:	4770      	bxeq	lr
20000bee:	b530      	push	{r4, r5, lr}
20000bf0:	f44f 6480 	mov.w	r4, #1024	@ 0x400
20000bf4:	f104 0432 	add.w	r4, r4, #50	@ 0x32
20000bf8:	f010 4500 	ands.w	r5, r0, #2147483648	@ 0x80000000
20000bfc:	bf48      	it	mi
20000bfe:	4240      	negmi	r0, r0
20000c00:	f04f 0100 	mov.w	r1, #0
20000c04:	e73e      	b.n	20000a84 <__adddf3+0x138>
20000c06:	bf00      	nop

20000c08 <__aeabi_f2d>:
20000c08:	0042      	lsls	r2, r0, #1
20000c0a:	ea4f 01e2 	mov.w	r1, r2, asr #3
20000c0e:	ea4f 0131 	mov.w	r1, r1, rrx
20000c12:	ea4f 7002 	mov.w	r0, r2, lsl #28
20000c16:	bf1f      	itttt	ne
20000c18:	f012 437f 	andsne.w	r3, r2, #4278190080	@ 0xff000000
20000c1c:	f093 4f7f 	teqne	r3, #4278190080	@ 0xff000000
20000c20:	f081 5160 	eorne.w	r1, r1, #939524096	@ 0x38000000
20000c24:	4770      	bxne	lr
20000c26:	f032 427f 	bics.w	r2, r2, #4278190080	@ 0xff000000
20000c2a:	bf08      	it	eq
20000c2c:	4770      	bxeq	lr
20000c2e:	f093 4f7f 	teq	r3, #4278190080	@ 0xff000000
20000c32:	bf04      	itt	eq
20000c34:	f441 2100 	orreq.w	r1, r1, #524288	@ 0x80000
20000c38:	4770      	bxeq	lr
20000c3a:	b530      	push	{r4, r5, lr}
20000c3c:	f44f 7460 	mov.w	r4, #896	@ 0x380
20000c40:	f001 4500 	and.w	r5, r1, #2147483648	@ 0x80000000
20000c44:	f021 4100 	bic.w	r1, r1, #2147483648	@ 0x80000000
20000c48:	e71c      	b.n	20000a84 <__adddf3+0x138>
20000c4a:	bf00      	nop

20000c4c <__aeabi_ul2d>:
20000c4c:	ea50 0201 	orrs.w	r2, r0, r1
20000c50:	bf08      	it	eq
20000c52:	4770      	bxeq	lr
20000c54:	b530      	push	{r4, r5, lr}
20000c56:	f04f 0500 	mov.w	r5, #0
20000c5a:	e00a      	b.n	20000c72 <__aeabi_l2d+0x16>

20000c5c <__aeabi_l2d>:
20000c5c:	ea50 0201 	orrs.w	r2, r0, r1
20000c60:	bf08      	it	eq
20000c62:	4770      	bxeq	lr
20000c64:	b530      	push	{r4, r5, lr}
20000c66:	f011 4500 	ands.w	r5, r1, #2147483648	@ 0x80000000
20000c6a:	d502      	bpl.n	20000c72 <__aeabi_l2d+0x16>
20000c6c:	4240      	negs	r0, r0
20000c6e:	eb61 0141 	sbc.w	r1, r1, r1, lsl #1
20000c72:	f44f 6480 	mov.w	r4, #1024	@ 0x400
20000c76:	f104 0432 	add.w	r4, r4, #50	@ 0x32
20000c7a:	ea5f 5c91 	movs.w	ip, r1, lsr #22
20000c7e:	f43f aed8 	beq.w	20000a32 <__adddf3+0xe6>
20000c82:	f04f 0203 	mov.w	r2, #3
20000c86:	ea5f 0cdc 	movs.w	ip, ip, lsr #3
20000c8a:	bf18      	it	ne
20000c8c:	3203      	addne	r2, #3
20000c8e:	ea5f 0cdc 	movs.w	ip, ip, lsr #3
20000c92:	bf18      	it	ne
20000c94:	3203      	addne	r2, #3
20000c96:	eb02 02dc 	add.w	r2, r2, ip, lsr #3
20000c9a:	f1c2 0320 	rsb	r3, r2, #32
20000c9e:	fa00 fc03 	lsl.w	ip, r0, r3
20000ca2:	fa20 f002 	lsr.w	r0, r0, r2
20000ca6:	fa01 fe03 	lsl.w	lr, r1, r3
20000caa:	ea40 000e 	orr.w	r0, r0, lr
20000cae:	fa21 f102 	lsr.w	r1, r1, r2
20000cb2:	4414      	add	r4, r2
20000cb4:	e6bd      	b.n	20000a32 <__adddf3+0xe6>
20000cb6:	bf00      	nop

20000cb8 <__aeabi_ldivmod>:
20000cb8:	b97b      	cbnz	r3, 20000cda <__aeabi_ldivmod+0x22>
20000cba:	b972      	cbnz	r2, 20000cda <__aeabi_ldivmod+0x22>
20000cbc:	2900      	cmp	r1, #0
20000cbe:	bfbe      	ittt	lt
20000cc0:	2000      	movlt	r0, #0
20000cc2:	f04f 4100 	movlt.w	r1, #2147483648	@ 0x80000000
20000cc6:	e006      	blt.n	20000cd6 <__aeabi_ldivmod+0x1e>
20000cc8:	bf08      	it	eq
20000cca:	2800      	cmpeq	r0, #0
20000ccc:	bf1c      	itt	ne
20000cce:	f06f 4100 	mvnne.w	r1, #2147483648	@ 0x80000000
20000cd2:	f04f 30ff 	movne.w	r0, #4294967295	@ 0xffffffff
20000cd6:	f000 b9f7 	b.w	200010c8 <__aeabi_idiv0>
20000cda:	f1ad 0c08 	sub.w	ip, sp, #8
20000cde:	e96d ce04 	strd	ip, lr, [sp, #-16]!
20000ce2:	2900      	cmp	r1, #0
20000ce4:	db09      	blt.n	20000cfa <__aeabi_ldivmod+0x42>
20000ce6:	2b00      	cmp	r3, #0
20000ce8:	db1a      	blt.n	20000d20 <__aeabi_ldivmod+0x68>
20000cea:	f000 f84d 	bl	20000d88 <__udivmoddi4>
20000cee:	f8dd e004 	ldr.w	lr, [sp, #4]
20000cf2:	e9dd 2302 	ldrd	r2, r3, [sp, #8]
20000cf6:	b004      	add	sp, #16
20000cf8:	4770      	bx	lr
20000cfa:	4240      	negs	r0, r0
20000cfc:	eb61 0141 	sbc.w	r1, r1, r1, lsl #1
20000d00:	2b00      	cmp	r3, #0
20000d02:	db1b      	blt.n	20000d3c <__aeabi_ldivmod+0x84>
20000d04:	f000 f840 	bl	20000d88 <__udivmoddi4>
20000d08:	f8dd e004 	ldr.w	lr, [sp, #4]
20000d0c:	e9dd 2302 	ldrd	r2, r3, [sp, #8]
20000d10:	b004      	add	sp, #16
20000d12:	4240      	negs	r0, r0
20000d14:	eb61 0141 	sbc.w	r1, r1, r1, lsl #1
20000d18:	4252      	negs	r2, r2
20000d1a:	eb63 0343 	sbc.w	r3, r3, r3, lsl #1
20000d1e:	4770      	bx	lr
20000d20:	4252      	negs	r2, r2
20000d22:	eb63 0343 	sbc.w	r3, r3, r3, lsl #1
20000d26:	f000 f82f 	bl	20000d88 <__udivmoddi4>
20000d2a:	f8dd e004 	ldr.w	lr, [sp, #4]
20000d2e:	e9dd 2302 	ldrd	r2, r3, [sp, #8]
20000d32:	b004      	add	sp, #16
20000d34:	4240      	negs	r0, r0
20000d36:	eb61 0141 	sbc.w	r1, r1, r1, lsl #1
20000d3a:	4770      	bx	lr
20000d3c:	4252      	negs	r2, r2
20000d3e:	eb63 0343 	sbc.w	r3, r3, r3, lsl #1
20000d42:	f000 f821 	bl	20000d88 <__udivmoddi4>
20000d46:	f8dd e004 	ldr.w	lr, [sp, #4]
20000d4a:	e9dd 2302 	ldrd	r2, r3, [sp, #8]
20000d4e:	b004      	add	sp, #16
20000d50:	4252      	negs	r2, r2
20000d52:	eb63 0343 	sbc.w	r3, r3, r3, lsl #1
20000d56:	4770      	bx	lr

20000d58 <__aeabi_uldivmod>:
20000d58:	b953      	cbnz	r3, 20000d70 <__aeabi_uldivmod+0x18>
20000d5a:	b94a      	cbnz	r2, 20000d70 <__aeabi_uldivmod+0x18>
20000d5c:	2900      	cmp	r1, #0
20000d5e:	bf08      	it	eq
20000d60:	2800      	cmpeq	r0, #0
20000d62:	bf1c      	itt	ne
20000d64:	f04f 31ff 	movne.w	r1, #4294967295	@ 0xffffffff
20000d68:	f04f 30ff 	movne.w	r0, #4294967295	@ 0xffffffff
20000d6c:	f000 b9ac 	b.w	200010c8 <__aeabi_idiv0>
20000d70:	f1ad 0c08 	sub.w	ip, sp, #8
20000d74:	e96d ce04 	strd	ip, lr, [sp, #-16]!
20000d78:	f000 f806 	bl	20000d88 <__udivmoddi4>
20000d7c:	f8dd e004 	ldr.w	lr, [sp, #4]
20000d80:	e9dd 2302 	ldrd	r2, r3, [sp, #8]
20000d84:	b004      	add	sp, #16
20000d86:	4770      	bx	lr

20000d88 <__udivmoddi4>:
20000d88:	e92d 47f0 	stmdb	sp!, {r4, r5, r6, r7, r8, r9, sl, lr}
20000d8c:	4606      	mov	r6, r0
20000d8e:	b082      	sub	sp, #8
20000d90:	4617      	mov	r7, r2
20000d92:	4608      	mov	r0, r1
20000d94:	9a0a      	ldr	r2, [sp, #40]	@ 0x28
20000d96:	46b4      	mov	ip, r6
20000d98:	460d      	mov	r5, r1
20000d9a:	2b00      	cmp	r3, #0
20000d9c:	d14d      	bne.n	20000e3a <__udivmoddi4+0xb2>
20000d9e:	428f      	cmp	r7, r1
20000da0:	46be      	mov	lr, r7
20000da2:	d965      	bls.n	20000e70 <__udivmoddi4+0xe8>
20000da4:	fab7 f187 	clz	r1, r7
20000da8:	b149      	cbz	r1, 20000dbe <__udivmoddi4+0x36>
20000daa:	f1c1 0320 	rsb	r3, r1, #32
20000dae:	408d      	lsls	r5, r1
20000db0:	fa07 fe01 	lsl.w	lr, r7, r1
20000db4:	fa06 fc01 	lsl.w	ip, r6, r1
20000db8:	fa26 f303 	lsr.w	r3, r6, r3
20000dbc:	431d      	orrs	r5, r3
20000dbe:	ea4f 461e 	mov.w	r6, lr, lsr #16
20000dc2:	fa1f f08e 	uxth.w	r0, lr
20000dc6:	ea4f 431c 	mov.w	r3, ip, lsr #16
20000dca:	fbb5 f4f6 	udiv	r4, r5, r6
20000dce:	fb06 5514 	mls	r5, r6, r4, r5
20000dd2:	ea43 4305 	orr.w	r3, r3, r5, lsl #16
20000dd6:	fb04 f500 	mul.w	r5, r4, r0
20000dda:	429d      	cmp	r5, r3
20000ddc:	d906      	bls.n	20000dec <__udivmoddi4+0x64>
20000dde:	eb1e 0303 	adds.w	r3, lr, r3
20000de2:	d202      	bcs.n	20000dea <__udivmoddi4+0x62>
20000de4:	429d      	cmp	r5, r3
20000de6:	f200 814c 	bhi.w	20001082 <__udivmoddi4+0x2fa>
20000dea:	3c01      	subs	r4, #1
20000dec:	1b5b      	subs	r3, r3, r5
20000dee:	fa1f fc8c 	uxth.w	ip, ip
20000df2:	fbb3 f5f6 	udiv	r5, r3, r6
20000df6:	fb06 3315 	mls	r3, r6, r5, r3
20000dfa:	fb05 f000 	mul.w	r0, r5, r0
20000dfe:	ea4c 4c03 	orr.w	ip, ip, r3, lsl #16
20000e02:	4560      	cmp	r0, ip
20000e04:	d90a      	bls.n	20000e1c <__udivmoddi4+0x94>
20000e06:	eb1e 0c0c 	adds.w	ip, lr, ip
20000e0a:	bf2c      	ite	cs
20000e0c:	2301      	movcs	r3, #1
20000e0e:	2300      	movcc	r3, #0
20000e10:	4560      	cmp	r0, ip
20000e12:	d902      	bls.n	20000e1a <__udivmoddi4+0x92>
20000e14:	2b00      	cmp	r3, #0
20000e16:	f000 8137 	beq.w	20001088 <__udivmoddi4+0x300>
20000e1a:	3d01      	subs	r5, #1
20000e1c:	ebac 0c00 	sub.w	ip, ip, r0
20000e20:	ea45 4004 	orr.w	r0, r5, r4, lsl #16
20000e24:	2400      	movs	r4, #0
20000e26:	b122      	cbz	r2, 20000e32 <__udivmoddi4+0xaa>
20000e28:	fa2c f301 	lsr.w	r3, ip, r1
20000e2c:	2100      	movs	r1, #0
20000e2e:	e9c2 3100 	strd	r3, r1, [r2]
20000e32:	4621      	mov	r1, r4
20000e34:	b002      	add	sp, #8
20000e36:	e8bd 87f0 	ldmia.w	sp!, {r4, r5, r6, r7, r8, r9, sl, pc}
20000e3a:	428b      	cmp	r3, r1
20000e3c:	d908      	bls.n	20000e50 <__udivmoddi4+0xc8>
20000e3e:	b10a      	cbz	r2, 20000e44 <__udivmoddi4+0xbc>
20000e40:	e9c2 6100 	strd	r6, r1, [r2]
20000e44:	2400      	movs	r4, #0
20000e46:	4620      	mov	r0, r4
20000e48:	4621      	mov	r1, r4
20000e4a:	b002      	add	sp, #8
20000e4c:	e8bd 87f0 	ldmia.w	sp!, {r4, r5, r6, r7, r8, r9, sl, pc}
20000e50:	fab3 f483 	clz	r4, r3
20000e54:	2c00      	cmp	r4, #0
20000e56:	d14d      	bne.n	20000ef4 <__udivmoddi4+0x16c>
20000e58:	428b      	cmp	r3, r1
20000e5a:	f0c0 8105 	bcc.w	20001068 <__udivmoddi4+0x2e0>
20000e5e:	42b7      	cmp	r7, r6
20000e60:	f240 8102 	bls.w	20001068 <__udivmoddi4+0x2e0>
20000e64:	4620      	mov	r0, r4
20000e66:	2a00      	cmp	r2, #0
20000e68:	d0e3      	beq.n	20000e32 <__udivmoddi4+0xaa>
20000e6a:	e9c2 c500 	strd	ip, r5, [r2]
20000e6e:	e7e0      	b.n	20000e32 <__udivmoddi4+0xaa>
20000e70:	2f00      	cmp	r7, #0
20000e72:	f000 80a2 	beq.w	20000fba <__udivmoddi4+0x232>
20000e76:	4619      	mov	r1, r3
20000e78:	fab7 f387 	clz	r3, r7
20000e7c:	2b00      	cmp	r3, #0
20000e7e:	f040 80b4 	bne.w	20000fea <__udivmoddi4+0x262>
20000e82:	1bc3      	subs	r3, r0, r7
20000e84:	fa1f f88e 	uxth.w	r8, lr
20000e88:	0c3f      	lsrs	r7, r7, #16
20000e8a:	2401      	movs	r4, #1
20000e8c:	ea4f 401c 	mov.w	r0, ip, lsr #16
20000e90:	fbb3 f5f7 	udiv	r5, r3, r7
20000e94:	fb07 3315 	mls	r3, r7, r5, r3
20000e98:	ea40 4303 	orr.w	r3, r0, r3, lsl #16
20000e9c:	fb08 f005 	mul.w	r0, r8, r5
20000ea0:	4298      	cmp	r0, r3
20000ea2:	d90a      	bls.n	20000eba <__udivmoddi4+0x132>
20000ea4:	eb1e 0303 	adds.w	r3, lr, r3
20000ea8:	bf2c      	ite	cs
20000eaa:	2601      	movcs	r6, #1
20000eac:	2600      	movcc	r6, #0
20000eae:	4298      	cmp	r0, r3
20000eb0:	d902      	bls.n	20000eb8 <__udivmoddi4+0x130>
20000eb2:	2e00      	cmp	r6, #0
20000eb4:	f000 80e2 	beq.w	2000107c <__udivmoddi4+0x2f4>
20000eb8:	3d01      	subs	r5, #1
20000eba:	1a1b      	subs	r3, r3, r0
20000ebc:	fa1f fc8c 	uxth.w	ip, ip
20000ec0:	fbb3 f0f7 	udiv	r0, r3, r7
20000ec4:	fb07 3310 	mls	r3, r7, r0, r3
20000ec8:	ea4c 4c03 	orr.w	ip, ip, r3, lsl #16
20000ecc:	fb08 f300 	mul.w	r3, r8, r0
20000ed0:	4563      	cmp	r3, ip
20000ed2:	d90a      	bls.n	20000eea <__udivmoddi4+0x162>
20000ed4:	eb1e 0c0c 	adds.w	ip, lr, ip
20000ed8:	bf2c      	ite	cs
20000eda:	2601      	movcs	r6, #1
20000edc:	2600      	movcc	r6, #0
20000ede:	4563      	cmp	r3, ip
20000ee0:	d902      	bls.n	20000ee8 <__udivmoddi4+0x160>
20000ee2:	2e00      	cmp	r6, #0
20000ee4:	f000 80c7 	beq.w	20001076 <__udivmoddi4+0x2ee>
20000ee8:	3801      	subs	r0, #1
20000eea:	ebac 0c03 	sub.w	ip, ip, r3
20000eee:	ea40 4005 	orr.w	r0, r0, r5, lsl #16
20000ef2:	e798      	b.n	20000e26 <__udivmoddi4+0x9e>
20000ef4:	f1c4 0820 	rsb	r8, r4, #32
20000ef8:	40a3      	lsls	r3, r4
20000efa:	fa06 fa04 	lsl.w	sl, r6, r4
20000efe:	40a1      	lsls	r1, r4
20000f00:	fa27 fc08 	lsr.w	ip, r7, r8
20000f04:	fa20 f008 	lsr.w	r0, r0, r8
20000f08:	fa07 f904 	lsl.w	r9, r7, r4
20000f0c:	ea4c 0c03 	orr.w	ip, ip, r3
20000f10:	fa26 f308 	lsr.w	r3, r6, r8
20000f14:	ea4f 461c 	mov.w	r6, ip, lsr #16
20000f18:	430b      	orrs	r3, r1
20000f1a:	fa1f fe8c 	uxth.w	lr, ip
20000f1e:	0c19      	lsrs	r1, r3, #16
20000f20:	fbb0 f7f6 	udiv	r7, r0, r6
20000f24:	fb06 0017 	mls	r0, r6, r7, r0
20000f28:	ea41 4100 	orr.w	r1, r1, r0, lsl #16
20000f2c:	fb07 f00e 	mul.w	r0, r7, lr
20000f30:	4288      	cmp	r0, r1
20000f32:	d90a      	bls.n	20000f4a <__udivmoddi4+0x1c2>
20000f34:	eb1c 0101 	adds.w	r1, ip, r1
20000f38:	bf2c      	ite	cs
20000f3a:	2501      	movcs	r5, #1
20000f3c:	2500      	movcc	r5, #0
20000f3e:	4288      	cmp	r0, r1
20000f40:	d902      	bls.n	20000f48 <__udivmoddi4+0x1c0>
20000f42:	2d00      	cmp	r5, #0
20000f44:	f000 80b2 	beq.w	200010ac <__udivmoddi4+0x324>
20000f48:	3f01      	subs	r7, #1
20000f4a:	1a09      	subs	r1, r1, r0
20000f4c:	b29b      	uxth	r3, r3
20000f4e:	fbb1 f0f6 	udiv	r0, r1, r6
20000f52:	fb06 1110 	mls	r1, r6, r0, r1
20000f56:	fb00 fe0e 	mul.w	lr, r0, lr
20000f5a:	ea43 4301 	orr.w	r3, r3, r1, lsl #16
20000f5e:	459e      	cmp	lr, r3
20000f60:	d90a      	bls.n	20000f78 <__udivmoddi4+0x1f0>
20000f62:	eb1c 0303 	adds.w	r3, ip, r3
20000f66:	bf2c      	ite	cs
20000f68:	2101      	movcs	r1, #1
20000f6a:	2100      	movcc	r1, #0
20000f6c:	459e      	cmp	lr, r3
20000f6e:	d902      	bls.n	20000f76 <__udivmoddi4+0x1ee>
20000f70:	2900      	cmp	r1, #0
20000f72:	f000 809e 	beq.w	200010b2 <__udivmoddi4+0x32a>
20000f76:	3801      	subs	r0, #1
20000f78:	ea40 4007 	orr.w	r0, r0, r7, lsl #16
20000f7c:	eba3 030e 	sub.w	r3, r3, lr
20000f80:	fba0 e109 	umull	lr, r1, r0, r9
20000f84:	428b      	cmp	r3, r1
20000f86:	4676      	mov	r6, lr
20000f88:	460f      	mov	r7, r1
20000f8a:	d302      	bcc.n	20000f92 <__udivmoddi4+0x20a>
20000f8c:	d107      	bne.n	20000f9e <__udivmoddi4+0x216>
20000f8e:	45f2      	cmp	sl, lr
20000f90:	d205      	bcs.n	20000f9e <__udivmoddi4+0x216>
20000f92:	ebbe 0609 	subs.w	r6, lr, r9
20000f96:	eb61 010c 	sbc.w	r1, r1, ip
20000f9a:	3801      	subs	r0, #1
20000f9c:	460f      	mov	r7, r1
20000f9e:	b152      	cbz	r2, 20000fb6 <__udivmoddi4+0x22e>
20000fa0:	ebba 0106 	subs.w	r1, sl, r6
20000fa4:	eb63 0307 	sbc.w	r3, r3, r7
20000fa8:	fa03 f508 	lsl.w	r5, r3, r8
20000fac:	40e1      	lsrs	r1, r4
20000fae:	40e3      	lsrs	r3, r4
20000fb0:	430d      	orrs	r5, r1
20000fb2:	e9c2 5300 	strd	r5, r3, [r2]
20000fb6:	2400      	movs	r4, #0
20000fb8:	e73b      	b.n	20000e32 <__udivmoddi4+0xaa>
20000fba:	0873      	lsrs	r3, r6, #1
20000fbc:	46b8      	mov	r8, r7
20000fbe:	0849      	lsrs	r1, r1, #1
20000fc0:	9701      	str	r7, [sp, #4]
20000fc2:	ea43 73c0 	orr.w	r3, r3, r0, lsl #31
20000fc6:	ea4f 7cc6 	mov.w	ip, r6, lsl #31
20000fca:	0c1c      	lsrs	r4, r3, #16
20000fcc:	b29b      	uxth	r3, r3
20000fce:	ea44 4401 	orr.w	r4, r4, r1, lsl #16
20000fd2:	ea43 4304 	orr.w	r3, r3, r4, lsl #16
20000fd6:	fbb4 f4f7 	udiv	r4, r4, r7
20000fda:	fbb1 f5f7 	udiv	r5, r1, r7
20000fde:	211f      	movs	r1, #31
20000fe0:	9801      	ldr	r0, [sp, #4]
20000fe2:	ea44 4405 	orr.w	r4, r4, r5, lsl #16
20000fe6:	1a1b      	subs	r3, r3, r0
20000fe8:	e750      	b.n	20000e8c <__udivmoddi4+0x104>
20000fea:	4619      	mov	r1, r3
20000fec:	fa07 fe03 	lsl.w	lr, r7, r3
20000ff0:	f1c3 0320 	rsb	r3, r3, #32
20000ff4:	fa00 f401 	lsl.w	r4, r0, r1
20000ff8:	ea4f 471e 	mov.w	r7, lr, lsr #16
20000ffc:	40d8      	lsrs	r0, r3
20000ffe:	fa26 f303 	lsr.w	r3, r6, r3
20001002:	fa1f f88e 	uxth.w	r8, lr
20001006:	fa06 fc01 	lsl.w	ip, r6, r1
2000100a:	4323      	orrs	r3, r4
2000100c:	fbb0 f5f7 	udiv	r5, r0, r7
20001010:	0c1c      	lsrs	r4, r3, #16
20001012:	fb07 0015 	mls	r0, r7, r5, r0
20001016:	ea44 4000 	orr.w	r0, r4, r0, lsl #16
2000101a:	fb05 f408 	mul.w	r4, r5, r8
2000101e:	4284      	cmp	r4, r0
20001020:	d94a      	bls.n	200010b8 <__udivmoddi4+0x330>
20001022:	eb1e 0000 	adds.w	r0, lr, r0
20001026:	bf2c      	ite	cs
20001028:	2601      	movcs	r6, #1
2000102a:	2600      	movcc	r6, #0
2000102c:	4284      	cmp	r4, r0
2000102e:	d900      	bls.n	20001032 <__udivmoddi4+0x2aa>
20001030:	b38e      	cbz	r6, 20001096 <__udivmoddi4+0x30e>
20001032:	1b00      	subs	r0, r0, r4
20001034:	3d01      	subs	r5, #1
20001036:	fbb0 f4f7 	udiv	r4, r0, r7
2000103a:	fb04 f608 	mul.w	r6, r4, r8
2000103e:	46a1      	mov	r9, r4
20001040:	9601      	str	r6, [sp, #4]
20001042:	fb07 0019 	mls	r0, r7, r9, r0
20001046:	b29b      	uxth	r3, r3
20001048:	9e01      	ldr	r6, [sp, #4]
2000104a:	ea43 4300 	orr.w	r3, r3, r0, lsl #16
2000104e:	42b3      	cmp	r3, r6
20001050:	d2c6      	bcs.n	20000fe0 <__udivmoddi4+0x258>
20001052:	eb1e 0303 	adds.w	r3, lr, r3
20001056:	bf2c      	ite	cs
20001058:	2001      	movcs	r0, #1
2000105a:	2000      	movcc	r0, #0
2000105c:	42b3      	cmp	r3, r6
2000105e:	d200      	bcs.n	20001062 <__udivmoddi4+0x2da>
20001060:	b1a8      	cbz	r0, 2000108e <__udivmoddi4+0x306>
20001062:	f109 34ff 	add.w	r4, r9, #4294967295	@ 0xffffffff
20001066:	e7bb      	b.n	20000fe0 <__udivmoddi4+0x258>
20001068:	ebb6 0c07 	subs.w	ip, r6, r7
2000106c:	eb60 0303 	sbc.w	r3, r0, r3
20001070:	2001      	movs	r0, #1
20001072:	461d      	mov	r5, r3
20001074:	e6f7      	b.n	20000e66 <__udivmoddi4+0xde>
20001076:	44f4      	add	ip, lr
20001078:	3802      	subs	r0, #2
2000107a:	e736      	b.n	20000eea <__udivmoddi4+0x162>
2000107c:	3d02      	subs	r5, #2
2000107e:	4473      	add	r3, lr
20001080:	e71b      	b.n	20000eba <__udivmoddi4+0x132>
20001082:	3c02      	subs	r4, #2
20001084:	4473      	add	r3, lr
20001086:	e6b1      	b.n	20000dec <__udivmoddi4+0x64>
20001088:	44f4      	add	ip, lr
2000108a:	3d02      	subs	r5, #2
2000108c:	e6c6      	b.n	20000e1c <__udivmoddi4+0x94>
2000108e:	f1a9 0402 	sub.w	r4, r9, #2
20001092:	4473      	add	r3, lr
20001094:	e7a4      	b.n	20000fe0 <__udivmoddi4+0x258>
20001096:	ebae 0404 	sub.w	r4, lr, r4
2000109a:	3d02      	subs	r5, #2
2000109c:	4420      	add	r0, r4
2000109e:	fbb0 f4f7 	udiv	r4, r0, r7
200010a2:	fb04 f608 	mul.w	r6, r4, r8
200010a6:	46a1      	mov	r9, r4
200010a8:	9601      	str	r6, [sp, #4]
200010aa:	e7ca      	b.n	20001042 <__udivmoddi4+0x2ba>
200010ac:	3f02      	subs	r7, #2
200010ae:	4461      	add	r1, ip
200010b0:	e74b      	b.n	20000f4a <__udivmoddi4+0x1c2>
200010b2:	3802      	subs	r0, #2
200010b4:	4463      	add	r3, ip
200010b6:	e75f      	b.n	20000f78 <__udivmoddi4+0x1f0>
200010b8:	1b00      	subs	r0, r0, r4
200010ba:	fbb0 f4f7 	udiv	r4, r0, r7
200010be:	fb04 f608 	mul.w	r6, r4, r8
200010c2:	46a1      	mov	r9, r4
200010c4:	9601      	str	r6, [sp, #4]
200010c6:	e7bc      	b.n	20001042 <__udivmoddi4+0x2ba>

200010c8 <__aeabi_idiv0>:
200010c8:	4770      	bx	lr
200010ca:	bf00      	nop
200010cc:	0000      	movs	r0, r0
	...

200010d0 <__best_effort_wfe_or_timeout_veneer>:
200010d0:	f85f f000 	ldr.w	pc, [pc]	@ 200010d4 <__best_effort_wfe_or_timeout_veneer+0x4>
200010d4:	10006251 	.word	0x10006251

200010d8 <__take_audio_buffer_veneer>:
200010d8:	f85f f000 	ldr.w	pc, [pc]	@ 200010dc <__take_audio_buffer_veneer+0x4>
200010dc:	1000a59d 	.word	0x1000a59d

200010e0 <__give_audio_buffer_veneer>:
200010e0:	f85f f000 	ldr.w	pc, [pc]	@ 200010e4 <__give_audio_buffer_veneer+0x4>
200010e4:	1000a589 	.word	0x1000a589

200010e8 <__hard_assertion_failure_veneer>:
200010e8:	f85f f000 	ldr.w	pc, [pc]	@ 200010ec <__hard_assertion_failure_veneer+0x4>
200010ec:	10006a61 	.word	0x10006a61

200010f0 <audio_format.4>:
200010f0:	0000ac44 00020001                       D.......

200010f8 <producer_format.5>:
200010f8:	200010f0 00000008                       ... ....

20001100 <pConfigXIP>:
20001100:	1001a000                                ....

20001104 <lerpDelta>:
20001104:	                                         ..

20001106 <lerp>:
20001106:	                                         .@

20001108 <newPotYCandidate2S>:
20001108:	                                         .

20001109 <newPotXCandidate2S>:
20001109:	                                         ...

2000110c <outRegisters_2>:
2000110c:	20008b26                                &.. 

20001110 <newSample>:
20001110:	0000ffff                                ....

20001114 <firstOutput>:
20001114:	                                         .

20001115 <currentPRG>:
20001115:	                                         ...

20001118 <SID2_ADDR_PREV>:
20001118:	000000ff                                ....

2000111c <C64_CLOCK>:
2000111c:	000f08a0                                ....

20001120 <_ZN17EnvelopeGenerator13sustain_levelE>:
20001120:	00000000 00000011 00000022 00000033     ........"...3...
20001130:	00000044 00000055 00000066 00000077     D...U...f...w...
20001140:	00000088 00000099 000000aa 000000bb     ................
20001150:	000000cc 000000dd 000000ee 000000ff     ................

20001160 <_ZN17EnvelopeGenerator19rate_counter_periodE>:
20001160:	00000008 0000001f 0000003e 0000005e     ........>...^...
20001170:	00000094 000000db 0000010a 00000138     ............8...
20001180:	00000187 000003d0 000007a1 00000c35     ............5...
20001190:	00000f42 00002dc7 00004c4b 00007a12     B....-..KL...z..

200011a0 <_ZN6Filter14f0_points_8580E>:
	...
200011b0:	00000080 00000320 00000100 00000640     .... .......@...
200011c0:	00000180 000009c4 00000200 00000ce4     ................
200011d0:	00000280 00001004 00000300 000012c0     ................
200011e0:	00000380 000015e0 00000400 00001964     ............d...
200011f0:	00000480 00001d4c 00000500 000020d0     ....L........ ..
20001200:	00000580 000023f0 00000600 00002648     .....#......H&..
20001210:	00000680 00002904 00000700 00002af8     .....).......*..
20001220:	00000780 00002db4 000007ff 000030d4     .....-.......0..
20001230:	000007ff 000030d4                       .....0..

20001238 <_ZN6Filter14f0_points_6581E>:
20001238:	00000000 000000dc 00000000 000000dc     ................
20001248:	00000080 000000e6 00000100 000000fa     ................
20001258:	00000180 0000012c 00000200 000001a4     ....,...........
20001268:	00000280 0000030c 00000300 00000640     ............@...
20001278:	00000340 000008fc 00000380 00000c80     @...............
20001288:	000003c0 000010cc 000003e0 00001388     ................
20001298:	000003f0 00001518 000003f8 00001644     ............D...
200012a8:	000003ff 00001770 000003ff 00001770     ....p.......p...
200012b8:	00000400 000011f8 00000400 000011f8     ................
200012c8:	00000408 000012c0 00000420 000014b4     ........ .......
200012d8:	00000440 00001770 00000460 000019c8     @...p...`.......
200012e8:	00000480 00001c20 00000500 0000251c     .... ........%..
200012f8:	00000580 00002ee0 00000600 000038a4     .............8..
20001308:	00000680 00003e80 00000700 000042cc     .....>.......B..
20001318:	00000780 00004524 000007ff 00004650     ....$E......PF..
20001328:	000007ff 00004650                       ....PF..

20001330 <striped_spin_lock_num>:
20001330:	00000010                                ....

20001334 <irq_handler_chain_slots>:
20001334:	00000000 	.word	0x00000000
20001338:	00010000 	.word	0x00010000
	...
20001344:	00020000 	.word	0x00020000
	...
20001350:	00030000 	.word	0x00030000
	...
2000135c:	00ff0000 	.word	0x00ff0000
20001360:	00000000 	.word	0x00000000

20001364 <irq_handler_chain_first_slot>:
20001364:	b501      	push	{r0, lr}
20001366:	6848      	ldr	r0, [r1, #4]
20001368:	3101      	adds	r1, #1
2000136a:	468e      	mov	lr, r1
2000136c:	4700      	bx	r0

2000136e <irq_handler_chain_remove_tail>:
2000136e:	4670      	mov	r0, lr
20001370:	3809      	subs	r0, #9
20001372:	4901      	ldr	r1, [pc, #4]	@ (20001378 <irq_handler_chain_remove_tail+0xa>)
20001374:	4788      	blx	r1
20001376:	bd01      	pop	{r0, pc}
20001378:	10005bb1 	.word	0x10005bb1

2000137c <default_alarm_pool>:
	...
20001390:	200040d8                                .@. 

20001394 <m2s_audio_i2s_ct_connection>:
20001394:	1000a32d 1000a2e1 10009ff1 1000a3b5     -...............
	...

200013b4 <pio_i2s_consumer_buffer_format>:
200013b4:	20008b50 00000000                       P.. ....

200013bc <_ZL18connection_default>:
200013bc:	1000a32d 1000a2e1 1000a489 1000a3b5     -...............
	...

200013d4 <__malloc_sbrk_base>:
200013d4:	ffffffff                                ....

200013d8 <__malloc_trim_threshold>:
200013d8:	00020000 00000000                       ........

200013e0 <__malloc_av_>:
	...
200013e8:	200013e0 200013e0 200013e8 200013e8     ... ... ... ... 
200013f8:	200013f0 200013f0 200013f8 200013f8     ... ... ... ... 
20001408:	20001400 20001400 20001408 20001408     ... ... ... ... 
20001418:	20001410 20001410 20001418 20001418     ... ... ... ... 
20001428:	20001420 20001420 20001428 20001428      ..  .. (.. (.. 
20001438:	20001430 20001430 20001438 20001438     0.. 0.. 8.. 8.. 
20001448:	20001440 20001440 20001448 20001448     @.. @.. H.. H.. 
20001458:	20001450 20001450 20001458 20001458     P.. P.. X.. X.. 
20001468:	20001460 20001460 20001468 20001468     `.. `.. h.. h.. 
20001478:	20001470 20001470 20001478 20001478     p.. p.. x.. x.. 
20001488:	20001480 20001480 20001488 20001488     ... ... ... ... 
20001498:	20001490 20001490 20001498 20001498     ... ... ... ... 
200014a8:	200014a0 200014a0 200014a8 200014a8     ... ... ... ... 
200014b8:	200014b0 200014b0 200014b8 200014b8     ... ... ... ... 
200014c8:	200014c0 200014c0 200014c8 200014c8     ... ... ... ... 
200014d8:	200014d0 200014d0 200014d8 200014d8     ... ... ... ... 
200014e8:	200014e0 200014e0 200014e8 200014e8     ... ... ... ... 
200014f8:	200014f0 200014f0 200014f8 200014f8     ... ... ... ... 
20001508:	20001500 20001500 20001508 20001508     ... ... ... ... 
20001518:	20001510 20001510 20001518 20001518     ... ... ... ... 
20001528:	20001520 20001520 20001528 20001528      ..  .. (.. (.. 
20001538:	20001530 20001530 20001538 20001538     0.. 0.. 8.. 8.. 
20001548:	20001540 20001540 20001548 20001548     @.. @.. H.. H.. 
20001558:	20001550 20001550 20001558 20001558     P.. P.. X.. X.. 
20001568:	20001560 20001560 20001568 20001568     `.. `.. h.. h.. 
20001578:	20001570 20001570 20001578 20001578     p.. p.. x.. x.. 
20001588:	20001580 20001580 20001588 20001588     ... ... ... ... 
20001598:	20001590 20001590 20001598 20001598     ... ... ... ... 
200015a8:	200015a0 200015a0 200015a8 200015a8     ... ... ... ... 
200015b8:	200015b0 200015b0 200015b8 200015b8     ... ... ... ... 
200015c8:	200015c0 200015c0 200015c8 200015c8     ... ... ... ... 
200015d8:	200015d0 200015d0 200015d8 200015d8     ... ... ... ... 
200015e8:	200015e0 200015e0 200015e8 200015e8     ... ... ... ... 
200015f8:	200015f0 200015f0 200015f8 200015f8     ... ... ... ... 
20001608:	20001600 20001600 20001608 20001608     ... ... ... ... 
20001618:	20001610 20001610 20001618 20001618     ... ... ... ... 
20001628:	20001620 20001620 20001628 20001628      ..  .. (.. (.. 
20001638:	20001630 20001630 20001638 20001638     0.. 0.. 8.. 8.. 
20001648:	20001640 20001640 20001648 20001648     @.. @.. H.. H.. 
20001658:	20001650 20001650 20001658 20001658     P.. P.. X.. X.. 
20001668:	20001660 20001660 20001668 20001668     `.. `.. h.. h.. 
20001678:	20001670 20001670 20001678 20001678     p.. p.. x.. x.. 
20001688:	20001680 20001680 20001688 20001688     ... ... ... ... 
20001698:	20001690 20001690 20001698 20001698     ... ... ... ... 
200016a8:	200016a0 200016a0 200016a8 200016a8     ... ... ... ... 
200016b8:	200016b0 200016b0 200016b8 200016b8     ... ... ... ... 
200016c8:	200016c0 200016c0 200016c8 200016c8     ... ... ... ... 
200016d8:	200016d0 200016d0 200016d8 200016d8     ... ... ... ... 
200016e8:	200016e0 200016e0 200016e8 200016e8     ... ... ... ... 
200016f8:	200016f0 200016f0 200016f8 200016f8     ... ... ... ... 
20001708:	20001700 20001700 20001708 20001708     ... ... ... ... 
20001718:	20001710 20001710 20001718 20001718     ... ... ... ... 
20001728:	20001720 20001720 20001728 20001728      ..  .. (.. (.. 
20001738:	20001730 20001730 20001738 20001738     0.. 0.. 8.. 8.. 
20001748:	20001740 20001740 20001748 20001748     @.. @.. H.. H.. 
20001758:	20001750 20001750 20001758 20001758     P.. P.. X.. X.. 
20001768:	20001760 20001760 20001768 20001768     `.. `.. h.. h.. 
20001778:	20001770 20001770 20001778 20001778     p.. p.. x.. x.. 
20001788:	20001780 20001780 20001788 20001788     ... ... ... ... 
20001798:	20001790 20001790 20001798 20001798     ... ... ... ... 
200017a8:	200017a0 200017a0 200017a8 200017a8     ... ... ... ... 
200017b8:	200017b0 200017b0 200017b8 200017b8     ... ... ... ... 
200017c8:	200017c0 200017c0 200017c8 200017c8     ... ... ... ... 
200017d8:	200017d0 200017d0 200017d8 200017d8     ... ... ... ... 

200017e8 <_impure_ptr>:
200017e8:	200017f0 00000000                       ... ....

200017f0 <_impure_data>:
200017f0:	00000000 200082f8 20008360 200083c8     ....... `.. ... 
	...
20001888:	00000001 00000000 abcd330e e66d1234     .........3..4.m.
20001898:	0005deec 0000000b 00000000 00000000     ................
	...

200019f0 <malloc_mutex>:
	...

200019f8 <print_mutex>:
	...
